----------------
IN: 
0x00000000:  580000c0  ldr      x0, #0x18
0x00000004:  aa1f03e1  mov      x1, xzr
0x00000008:  aa1f03e2  mov      x2, xzr
0x0000000c:  aa1f03e3  mov      x3, xzr
0x00000010:  58000084  ldr      x4, #0x20
0x00000014:  d61f0080  br       x4

----------------
IN: 
0x00080000:  d53800a1  mrs      x1, mpidr_el1
0x00080004:  92400421  and      x1, x1, #3
0x00080008:  b4000121  cbz      x1, #0x8002c

----------------
IN: 
0x00000300:  d2801b05  mov      x5, #0xd8
0x00000304:  d53800a6  mrs      x6, mpidr_el1
0x00000308:  924004c6  and      x6, x6, #3
0x0000030c:  d503205f  wfe      
0x00000310:  f86678a4  ldr      x4, [x5, x6, lsl #3]
0x00000314:  b4ffffc4  cbz      x4, #0x30c

----------------
IN: 
0x0008002c:  d2a36001  mov      x1, #0x1b000000
0x00080030:  d2a01fe2  mov      x2, #0xff0000
0x00080034:  8b020021  add      x1, x1, x2
0x00080038:  9100003f  mov      sp, x1
0x0008003c:  9400002c  bl       #0x800ec

----------------
IN: 
0x00000300:  d2801b05  mov      x5, #0xd8
0x00000304:  d53800a6  mrs      x6, mpidr_el1
0x00000308:  924004c6  and      x6, x6, #3
0x0000030c:  d503205f  wfe      
0x00000310:  f86678a4  ldr      x4, [x5, x6, lsl #3]
0x00000314:  b4ffffc4  cbz      x4, #0x30c

----------------
IN: 
0x000800ec:  d121c3ff  sub      sp, sp, #0x870
0x000800f0:  a9007bfd  stp      x29, x30, [sp]
0x000800f4:  910003fd  mov      x29, sp
0x000800f8:  f9000bf3  str      x19, [sp, #0x10]
0x000800fc:  94000fbf  bl       #0x83ff8

----------------
IN: 
0x00000300:  d2801b05  mov      x5, #0xd8
0x00000304:  d53800a6  mrs      x6, mpidr_el1
0x00000308:  924004c6  and      x6, x6, #3
0x0000030c:  d503205f  wfe      
0x00000310:  f86678a4  ldr      x4, [x5, x6, lsl #3]
0x00000314:  b4ffffc4  cbz      x4, #0x30c

----------------
IN: 
0x00083ff8:  d10043ff  sub      sp, sp, #0x10
0x00083ffc:  d28ffe00  mov      x0, #0x7ff0

----------------
IN: 
0x0000030c:  d503205f  wfe      
0x00000310:  f86678a4  ldr      x4, [x5, x6, lsl #3]
0x00000314:  b4ffffc4  cbz      x4, #0x30c

----------------
IN: 
0x0000030c:  d503205f  wfe      
0x00000310:  f86678a4  ldr      x4, [x5, x6, lsl #3]
0x00000314:  b4ffffc4  cbz      x4, #0x30c

----------------
IN: 
0x00084000:  f2a7e000  movk     x0, #0x3f00, lsl #16
0x00084004:  f90007e0  str      x0, [sp, #8]
0x00084008:  f94007e0  ldr      x0, [sp, #8]
0x0008400c:  528fffe1  mov      w1, #0x7fff
0x00084010:  b9000001  str      w1, [x0]
0x00084014:  d503201f  nop      
0x00084018:  910043ff  add      sp, sp, #0x10
0x0008401c:  d65f03c0  ret      

----------------
IN: 
0x0000030c:  d503205f  wfe      
0x00000310:  f86678a4  ldr      x4, [x5, x6, lsl #3]
0x00000314:  b4ffffc4  cbz      x4, #0x30c

----------------
IN: 
0x00084010:  b9000001  str      w1, [x0]

----------------
IN: 
0x00084014:  d503201f  nop      
0x00084018:  910043ff  add      sp, sp, #0x10
0x0008401c:  d65f03c0  ret      

----------------
IN: 
0x00080100:  94000142  bl       #0x80608

----------------
IN: 
0x00080608:  a9bd7bfd  stp      x29, x30, [sp, #-0x30]!
0x0008060c:  910003fd  mov      x29, sp
0x00080610:  910063e0  add      x0, sp, #0x18
0x00080614:  97ffffb3  bl       #0x804e0

----------------
IN: 
0x000804e0:  d10043ff  sub      sp, sp, #0x10
0x000804e4:  f90007e0  str      x0, [sp, #8]
0x000804e8:  f94007e0  ldr      x0, [sp, #8]
0x000804ec:  900000c1  adrp     x1, #0x98000
0x000804f0:  91356021  add      x1, x1, #0xd58
0x000804f4:  f9000401  str      x1, [x0, #8]
0x000804f8:  f94007e0  ldr      x0, [sp, #8]
0x000804fc:  f9400400  ldr      x0, [x0, #8]
0x00080500:  2a0003e1  mov      w1, w0
0x00080504:  529ffe00  mov      w0, #0xfff0
0x00080508:  72a377e0  movk     w0, #0x1bbf, lsl #16
0x0008050c:  4b010000  sub      w0, w0, w1
0x00080510:  2a0003e1  mov      w1, w0
0x00080514:  f94007e0  ldr      x0, [sp, #8]
0x00080518:  b9000001  str      w1, [x0]
0x0008051c:  f94007e0  ldr      x0, [sp, #8]
0x00080520:  f9400401  ldr      x1, [x0, #8]
0x00080524:  f94007e0  ldr      x0, [sp, #8]
0x00080528:  b9400000  ldr      w0, [x0]
0x0008052c:  93407c00  sxtw     x0, w0
0x00080530:  8b000021  add      x1, x1, x0
0x00080534:  f94007e0  ldr      x0, [sp, #8]
0x00080538:  f9000801  str      x1, [x0, #0x10]
0x0008053c:  d503201f  nop      
0x00080540:  910043ff  add      sp, sp, #0x10
0x00080544:  d65f03c0  ret      

----------------
IN: 
0x00080618:  b00000a0  adrp     x0, #0x95000
0x0008061c:  91100000  add      x0, x0, #0x400
0x00080620:  aa0003e3  mov      x3, x0
0x00080624:  910063e2  add      x2, sp, #0x18
0x00080628:  a9400440  ldp      x0, x1, [x2]
0x0008062c:  a9000460  stp      x0, x1, [x3]
0x00080630:  f9400840  ldr      x0, [x2, #0x10]
0x00080634:  f9000860  str      x0, [x3, #0x10]
0x00080638:  b00000a0  adrp     x0, #0x95000
0x0008063c:  91106000  add      x0, x0, #0x418
0x00080640:  b900001f  str      wzr, [x0]
0x00080644:  b00000a0  adrp     x0, #0x95000
0x00080648:  91100000  add      x0, x0, #0x400
0x0008064c:  f9400401  ldr      x1, [x0, #8]
0x00080650:  b00000a0  adrp     x0, #0x95000
0x00080654:  91108000  add      x0, x0, #0x420
0x00080658:  f9000001  str      x1, [x0]
0x0008065c:  b00000a0  adrp     x0, #0x95000
0x00080660:  91108000  add      x0, x0, #0x420
0x00080664:  f9400000  ldr      x0, [x0]
0x00080668:  b900081f  str      wzr, [x0, #8]
0x0008066c:  b00000a0  adrp     x0, #0x95000
0x00080670:  91108000  add      x0, x0, #0x420
0x00080674:  f9400000  ldr      x0, [x0]
0x00080678:  b9000c1f  str      wzr, [x0, #0xc]
0x0008067c:  b00000a0  adrp     x0, #0x95000
0x00080680:  91108000  add      x0, x0, #0x420
0x00080684:  f9400000  ldr      x0, [x0]
0x00080688:  b900041f  str      wzr, [x0, #4]
0x0008068c:  b00000a0  adrp     x0, #0x95000
0x00080690:  91108000  add      x0, x0, #0x420
0x00080694:  f9400000  ldr      x0, [x0]
0x00080698:  b00000a1  adrp     x1, #0x95000
0x0008069c:  91100021  add      x1, x1, #0x400
0x000806a0:  b9400021  ldr      w1, [x1]
0x000806a4:  b9000001  str      w1, [x0]
0x000806a8:  d503201f  nop      
0x000806ac:  a8c37bfd  ldp      x29, x30, [sp], #0x30
0x000806b0:  d65f03c0  ret      

----------------
IN: 
0x00080104:  911143e0  add      x0, sp, #0x450
0x00080108:  52804b02  mov      w2, #0x258
0x0008010c:  52808001  mov      w1, #0x400
0x00080110:  940011b8  bl       #0x847f0

----------------
IN: 
0x000847f0:  a9bb7bfd  stp      x29, x30, [sp, #-0x50]!
0x000847f4:  910003fd  mov      x29, sp
0x000847f8:  f9000fe0  str      x0, [sp, #0x18]
0x000847fc:  b90017e1  str      w1, [sp, #0x14]

----------------
IN: 
0x00084800:  b90013e2  str      w2, [sp, #0x10]
0x00084804:  f9400fe0  ldr      x0, [sp, #0x18]
0x00084808:  91002000  add      x0, x0, #8
0x0008480c:  97fffb8a  bl       #0x83634

----------------
IN: 
0x00083634:  d10043ff  sub      sp, sp, #0x10
0x00083638:  f90007e0  str      x0, [sp, #8]
0x0008363c:  f94007e0  ldr      x0, [sp, #8]
0x00083640:  b900001f  str      wzr, [x0]
0x00083644:  f94007e0  ldr      x0, [sp, #8]
0x00083648:  b900041f  str      wzr, [x0, #4]
0x0008364c:  d503201f  nop      
0x00083650:  910043ff  add      sp, sp, #0x10
0x00083654:  d65f03c0  ret      

----------------
IN: 
0x00084810:  9100e3e0  add      x0, sp, #0x38
0x00084814:  b94013e2  ldr      w2, [sp, #0x10]
0x00084818:  b94017e1  ldr      w1, [sp, #0x14]
0x0008481c:  97fffb8f  bl       #0x83658

----------------
IN: 
0x00083658:  d10043ff  sub      sp, sp, #0x10
0x0008365c:  f90007e0  str      x0, [sp, #8]
0x00083660:  b90007e1  str      w1, [sp, #4]
0x00083664:  b90003e2  str      w2, [sp]
0x00083668:  f94007e0  ldr      x0, [sp, #8]
0x0008366c:  b94007e1  ldr      w1, [sp, #4]
0x00083670:  b9000001  str      w1, [x0]
0x00083674:  f94007e0  ldr      x0, [sp, #8]
0x00083678:  b94003e1  ldr      w1, [sp]
0x0008367c:  b9000401  str      w1, [x0, #4]
0x00083680:  d503201f  nop      
0x00083684:  910043ff  add      sp, sp, #0x10
0x00083688:  d65f03c0  ret      

----------------
IN: 
0x00084820:  f9400fe0  ldr      x0, [sp, #0x18]
0x00084824:  f9401fe1  ldr      x1, [sp, #0x38]
0x00084828:  f9000401  str      x1, [x0, #8]
0x0008482c:  910083e0  add      x0, sp, #0x20
0x00084830:  94000150  bl       #0x84d70

----------------
IN: 
0x00084d70:  a9be7bfd  stp      x29, x30, [sp, #-0x20]!
0x00084d74:  910003fd  mov      x29, sp
0x00084d78:  f9000fe0  str      x0, [sp, #0x18]
0x00084d7c:  f9400fe0  ldr      x0, [sp, #0x18]
0x00084d80:  b900101f  str      wzr, [x0, #0x10]
0x00084d84:  f9400fe0  ldr      x0, [sp, #0x18]
0x00084d88:  b900141f  str      wzr, [x0, #0x14]
0x00084d8c:  f9400fe0  ldr      x0, [sp, #0x18]
0x00084d90:  d2971501  mov      x1, #0xb8a8
0x00084d94:  f2a7e001  movk     x1, #0x3f00, lsl #16
0x00084d98:  f9000001  str      x1, [x0]
0x00084d9c:  f9400fe0  ldr      x0, [sp, #0x18]
0x00084da0:  f0000081  adrp     x1, #0x97000
0x00084da4:  91248021  add      x1, x1, #0x920
0x00084da8:  f9000401  str      x1, [x0, #8]
0x00084dac:  f9400fe0  ldr      x0, [sp, #0x18]
0x00084db0:  94000004  bl       #0x84dc0

----------------
IN: 
0x00084dc0:  a9be7bfd  stp      x29, x30, [sp, #-0x20]!
0x00084dc4:  910003fd  mov      x29, sp
0x00084dc8:  f9000fe0  str      x0, [sp, #0x18]
0x00084dcc:  f9400fe0  ldr      x0, [sp, #0x18]
0x00084dd0:  b900101f  str      wzr, [x0, #0x10]
0x00084dd4:  f9400fe0  ldr      x0, [sp, #0x18]
0x00084dd8:  b900141f  str      wzr, [x0, #0x14]
0x00084ddc:  52800001  mov      w1, #0
0x00084de0:  f9400fe0  ldr      x0, [sp, #0x18]
0x00084de4:  94000007  bl       #0x84e00

----------------
IN: 
0x00084e00:  d10083ff  sub      sp, sp, #0x20
0x00084e04:  f90007e0  str      x0, [sp, #8]
0x00084e08:  b90007e1  str      w1, [sp, #4]
0x00084e0c:  f94007e0  ldr      x0, [sp, #8]
0x00084e10:  f9400401  ldr      x1, [x0, #8]
0x00084e14:  f94007e0  ldr      x0, [sp, #8]
0x00084e18:  b9401000  ldr      w0, [x0, #0x10]
0x00084e1c:  2a0003e0  mov      w0, w0
0x00084e20:  d37ef400  lsl      x0, x0, #2
0x00084e24:  8b000020  add      x0, x1, x0
0x00084e28:  f9000fe0  str      x0, [sp, #0x18]
0x00084e2c:  f94007e0  ldr      x0, [sp, #8]
0x00084e30:  f9400401  ldr      x1, [x0, #8]
0x00084e34:  f94007e0  ldr      x0, [sp, #8]
0x00084e38:  b9401000  ldr      w0, [x0, #0x10]
0x00084e3c:  2a0003e0  mov      w0, w0
0x00084e40:  d37ef400  lsl      x0, x0, #2
0x00084e44:  8b000020  add      x0, x1, x0
0x00084e48:  b94007e1  ldr      w1, [sp, #4]
0x00084e4c:  b9000001  str      w1, [x0]
0x00084e50:  f94007e0  ldr      x0, [sp, #8]
0x00084e54:  b9401400  ldr      w0, [x0, #0x14]
0x00084e58:  11001001  add      w1, w0, #4
0x00084e5c:  f94007e0  ldr      x0, [sp, #8]
0x00084e60:  b9001401  str      w1, [x0, #0x14]
0x00084e64:  f94007e0  ldr      x0, [sp, #8]
0x00084e68:  b9401000  ldr      w0, [x0, #0x10]
0x00084e6c:  11000401  add      w1, w0, #1
0x00084e70:  f94007e0  ldr      x0, [sp, #8]
0x00084e74:  b9001001  str      w1, [x0, #0x10]
0x00084e78:  f9400fe0  ldr      x0, [sp, #0x18]
0x00084e7c:  910083ff  add      sp, sp, #0x20
0x00084e80:  d65f03c0  ret      

----------------
IN: 
0x00084de8:  52800001  mov      w1, #0
0x00084dec:  f9400fe0  ldr      x0, [sp, #0x18]
0x00084df0:  94000004  bl       #0x84e00

----------------
IN: 
0x00084df4:  d503201f  nop      
0x00084df8:  a8c27bfd  ldp      x29, x30, [sp], #0x20
0x00084dfc:  d65f03c0  ret      

----------------
IN: 
0x00084db4:  d503201f  nop      
0x00084db8:  a8c27bfd  ldp      x29, x30, [sp], #0x20
0x00084dbc:  d65f03c0  ret      

----------------
IN: 
0x00084834:  910083e0  add      x0, sp, #0x20
0x00084838:  94000162  bl       #0x84dc0

----------------
IN: 
0x0008483c:  b94017e1  ldr      w1, [sp, #0x14]
0x00084840:  b94013e2  ldr      w2, [sp, #0x10]
0x00084844:  910083e0  add      x0, sp, #0x20
0x00084848:  2a0203e3  mov      w3, w2
0x0008484c:  2a0103e2  mov      w2, w1
0x00084850:  52900061  mov      w1, #0x8003
0x00084854:  72a00081  movk     w1, #4, lsl #16
0x00084858:  940001a0  bl       #0x84ed8

----------------
IN: 
0x00084ed8:  a9bc7bfd  stp      x29, x30, [sp, #-0x40]!
0x00084edc:  910003fd  mov      x29, sp
0x00084ee0:  f90017e0  str      x0, [sp, #0x28]
0x00084ee4:  b90027e1  str      w1, [sp, #0x24]
0x00084ee8:  b90023e2  str      w2, [sp, #0x20]
0x00084eec:  b9001fe3  str      w3, [sp, #0x1c]
0x00084ef0:  b94027e1  ldr      w1, [sp, #0x24]
0x00084ef4:  f94017e0  ldr      x0, [sp, #0x28]
0x00084ef8:  97ffffc2  bl       #0x84e00

----------------
IN: 
0x00084efc:  52800101  mov      w1, #8
0x00084f00:  f94017e0  ldr      x0, [sp, #0x28]
0x00084f04:  97ffffbf  bl       #0x84e00

----------------
IN: 
0x00084f08:  52800101  mov      w1, #8
0x00084f0c:  f94017e0  ldr      x0, [sp, #0x28]
0x00084f10:  97ffffbc  bl       #0x84e00

----------------
IN: 
0x00084f14:  b94023e1  ldr      w1, [sp, #0x20]
0x00084f18:  f94017e0  ldr      x0, [sp, #0x28]
0x00084f1c:  97ffffb9  bl       #0x84e00

----------------
IN: 
0x00084f20:  f9001fe0  str      x0, [sp, #0x38]
0x00084f24:  b9401fe1  ldr      w1, [sp, #0x1c]
0x00084f28:  f94017e0  ldr      x0, [sp, #0x28]
0x00084f2c:  97ffffb5  bl       #0x84e00

----------------
IN: 
0x00084f30:  f9401fe0  ldr      x0, [sp, #0x38]
0x00084f34:  a8c47bfd  ldp      x29, x30, [sp], #0x40
0x00084f38:  d65f03c0  ret      

----------------
IN: 
0x0008485c:  b94017e1  ldr      w1, [sp, #0x14]
0x00084860:  b94013e2  ldr      w2, [sp, #0x10]
0x00084864:  910083e0  add      x0, sp, #0x20
0x00084868:  2a0203e3  mov      w3, w2
0x0008486c:  2a0103e2  mov      w2, w1
0x00084870:  52900081  mov      w1, #0x8004
0x00084874:  72a00081  movk     w1, #4, lsl #16
0x00084878:  94000198  bl       #0x84ed8

----------------
IN: 
0x0008487c:  910083e0  add      x0, sp, #0x20
0x00084880:  52800402  mov      w2, #0x20
0x00084884:  529000a1  mov      w1, #0x8005
0x00084888:  72a00081  movk     w1, #4, lsl #16
0x0008488c:  9400017e  bl       #0x84e84

----------------
IN: 
0x00084e84:  a9bd7bfd  stp      x29, x30, [sp, #-0x30]!
0x00084e88:  910003fd  mov      x29, sp
0x00084e8c:  f9000fe0  str      x0, [sp, #0x18]
0x00084e90:  b90017e1  str      w1, [sp, #0x14]
0x00084e94:  b90013e2  str      w2, [sp, #0x10]
0x00084e98:  b94017e1  ldr      w1, [sp, #0x14]
0x00084e9c:  f9400fe0  ldr      x0, [sp, #0x18]
0x00084ea0:  97ffffd8  bl       #0x84e00

----------------
IN: 
0x00084ea4:  52800081  mov      w1, #4
0x00084ea8:  f9400fe0  ldr      x0, [sp, #0x18]
0x00084eac:  97ffffd5  bl       #0x84e00

----------------
IN: 
0x00084eb0:  52800081  mov      w1, #4
0x00084eb4:  f9400fe0  ldr      x0, [sp, #0x18]
0x00084eb8:  97ffffd2  bl       #0x84e00

----------------
IN: 
0x00084ebc:  b94013e1  ldr      w1, [sp, #0x10]
0x00084ec0:  f9400fe0  ldr      x0, [sp, #0x18]
0x00084ec4:  97ffffcf  bl       #0x84e00

----------------
IN: 
0x00084ec8:  f90017e0  str      x0, [sp, #0x28]
0x00084ecc:  f94017e0  ldr      x0, [sp, #0x28]
0x00084ed0:  a8c37bfd  ldp      x29, x30, [sp], #0x30
0x00084ed4:  d65f03c0  ret      

----------------
IN: 
0x00084890:  910083e0  add      x0, sp, #0x20
0x00084894:  52800003  mov      w3, #0
0x00084898:  52800002  mov      w2, #0
0x0008489c:  52900121  mov      w1, #0x8009
0x000848a0:  72a00081  movk     w1, #4, lsl #16
0x000848a4:  9400018d  bl       #0x84ed8

----------------
IN: 
0x000848a8:  910083e0  add      x0, sp, #0x20
0x000848ac:  12800005  mov      w5, #-1
0x000848b0:  52800004  mov      w4, #0
0x000848b4:  52800043  mov      w3, #2
0x000848b8:  52800002  mov      w2, #0
0x000848bc:  52900161  mov      w1, #0x800b
0x000848c0:  72a00081  movk     w1, #4, lsl #16
0x000848c4:  940001bb  bl       #0x84fb0

----------------
IN: 
0x00084fb0:  a9bc7bfd  stp      x29, x30, [sp, #-0x40]!
0x00084fb4:  910003fd  mov      x29, sp
0x00084fb8:  f90017e0  str      x0, [sp, #0x28]
0x00084fbc:  b90027e1  str      w1, [sp, #0x24]
0x00084fc0:  b90023e2  str      w2, [sp, #0x20]
0x00084fc4:  b9001fe3  str      w3, [sp, #0x1c]
0x00084fc8:  b9001be4  str      w4, [sp, #0x18]
0x00084fcc:  b90017e5  str      w5, [sp, #0x14]
0x00084fd0:  b94027e1  ldr      w1, [sp, #0x24]
0x00084fd4:  f94017e0  ldr      x0, [sp, #0x28]
0x00084fd8:  97ffff8a  bl       #0x84e00

----------------
IN: 
0x00084fdc:  52800201  mov      w1, #0x10
0x00084fe0:  f94017e0  ldr      x0, [sp, #0x28]
0x00084fe4:  97ffff87  bl       #0x84e00

----------------
IN: 
0x00084fe8:  52800201  mov      w1, #0x10
0x00084fec:  f94017e0  ldr      x0, [sp, #0x28]
0x00084ff0:  97ffff84  bl       #0x84e00

----------------
IN: 
0x00084ff4:  b94023e1  ldr      w1, [sp, #0x20]
0x00084ff8:  f94017e0  ldr      x0, [sp, #0x28]
0x00084ffc:  97ffff81  bl       #0x84e00

----------------
IN: 
0x00085000:  f9001fe0  str      x0, [sp, #0x38]
0x00085004:  b9401fe1  ldr      w1, [sp, #0x1c]
0x00085008:  f94017e0  ldr      x0, [sp, #0x28]
0x0008500c:  97ffff7d  bl       #0x84e00

----------------
IN: 
0x00085010:  b9401be1  ldr      w1, [sp, #0x18]
0x00085014:  f94017e0  ldr      x0, [sp, #0x28]
0x00085018:  97ffff7a  bl       #0x84e00

----------------
IN: 
0x0008501c:  b94017e1  ldr      w1, [sp, #0x14]
0x00085020:  f94017e0  ldr      x0, [sp, #0x28]
0x00085024:  97ffff77  bl       #0x84e00

----------------
IN: 
0x00085028:  f9401fe0  ldr      x0, [sp, #0x38]
0x0008502c:  a8c47bfd  ldp      x29, x30, [sp], #0x40
0x00085030:  d65f03c0  ret      

----------------
IN: 
0x000848c8:  910083e0  add      x0, sp, #0x20
0x000848cc:  52800003  mov      w3, #0
0x000848d0:  52800002  mov      w2, #0
0x000848d4:  52800021  mov      w1, #1
0x000848d8:  72a00081  movk     w1, #4, lsl #16
0x000848dc:  9400017f  bl       #0x84ed8

----------------
IN: 
0x000848e0:  f90027e0  str      x0, [sp, #0x48]
0x000848e4:  910083e0  add      x0, sp, #0x20
0x000848e8:  940001d3  bl       #0x85034

----------------
IN: 
0x00085034:  a9be7bfd  stp      x29, x30, [sp, #-0x20]!
0x00085038:  910003fd  mov      x29, sp
0x0008503c:  f9000fe0  str      x0, [sp, #0x18]
0x00085040:  52800001  mov      w1, #0
0x00085044:  f9400fe0  ldr      x0, [sp, #0x18]
0x00085048:  97ffff6e  bl       #0x84e00

----------------
IN: 
0x0008504c:  f9400fe0  ldr      x0, [sp, #0x18]
0x00085050:  f9400400  ldr      x0, [x0, #8]
0x00085054:  f9400fe1  ldr      x1, [sp, #0x18]
0x00085058:  b9401421  ldr      w1, [x1, #0x14]
0x0008505c:  b9000001  str      w1, [x0]
0x00085060:  d503201f  nop      
0x00085064:  a8c27bfd  ldp      x29, x30, [sp], #0x20
0x00085068:  d65f03c0  ret      

----------------
IN: 
0x000848ec:  910083e0  add      x0, sp, #0x20
0x000848f0:  940001df  bl       #0x8506c

----------------
IN: 
0x0008506c:  d10043ff  sub      sp, sp, #0x10
0x00085070:  f90007e0  str      x0, [sp, #8]
0x00085074:  f94007e0  ldr      x0, [sp, #8]
0x00085078:  f9400400  ldr      x0, [x0, #8]
0x0008507c:  2a0003e1  mov      w1, w0
0x00085080:  f94007e0  ldr      x0, [sp, #8]
0x00085084:  f9400000  ldr      x0, [x0]
0x00085088:  11002021  add      w1, w1, #8
0x0008508c:  b9000001  str      w1, [x0]
0x00085090:  d503201f  nop      
0x00085094:  910043ff  add      sp, sp, #0x10
0x00085098:  d65f03c0  ret      

----------------
IN: 
0x0008508c:  b9000001  str      w1, [x0]

----------------
IN: 
0x00085090:  d503201f  nop      
0x00085094:  910043ff  add      sp, sp, #0x10
0x00085098:  d65f03c0  ret      

----------------
IN: 
0x000848f4:  f94027e0  ldr      x0, [sp, #0x48]
0x000848f8:  b9400000  ldr      w0, [x0]
0x000848fc:  b90047e0  str      w0, [sp, #0x44]
0x00084900:  b94047e0  ldr      w0, [sp, #0x44]
0x00084904:  7100001f  cmp      w0, #0
0x00084908:  54ffff20  b.eq     #0x848ec

----------------
IN: 
0x0008490c:  b94047e0  ldr      w0, [sp, #0x44]
0x00084910:  92407400  and      x0, x0, #0x3fffffff
0x00084914:  aa0003e1  mov      x1, x0
0x00084918:  f9400fe0  ldr      x0, [sp, #0x18]
0x0008491c:  f9000001  str      x1, [x0]
0x00084920:  d503201f  nop      
0x00084924:  a8c57bfd  ldp      x29, x30, [sp], #0x50
0x00084928:  d65f03c0  ret      

----------------
IN: 
0x00080114:  911003e0  add      x0, sp, #0x400
0x00080118:  a9450400  ldp      x0, x1, [x0, #0x50]
0x0008011c:  9400031d  bl       #0x80d90

----------------
IN: 
0x00080d90:  d10043ff  sub      sp, sp, #0x10
0x00080d94:  a90007e0  stp      x0, x1, [sp]
0x00080d98:  f0000080  adrp     x0, #0x93000
0x00080d9c:  91000002  add      x2, x0, #0
0x00080da0:  a94007e0  ldp      x0, x1, [sp]
0x00080da4:  a9000440  stp      x0, x1, [x2]
0x00080da8:  d503201f  nop      
0x00080dac:  910043ff  add      sp, sp, #0x10
0x00080db0:  d65f03c0  ret      

----------------
IN: 
0x00080120:  911183e2  add      x2, sp, #0x460
0x00080124:  b0000020  adrp     x0, #0x85000
0x00080128:  910b8001  add      x1, x0, #0x2e0
0x0008012c:  aa0203e0  mov      x0, x2
0x00080130:  94000cae  bl       #0x833e8

----------------
IN: 
0x000833e8:  a9bc7bfd  stp      x29, x30, [sp, #-0x40]!
0x000833ec:  910003fd  mov      x29, sp
0x000833f0:  f9000fe0  str      x0, [sp, #0x18]
0x000833f4:  f9000be1  str      x1, [sp, #0x10]
0x000833f8:  f9400be0  ldr      x0, [sp, #0x10]
0x000833fc:  f9001be0  str      x0, [sp, #0x30]

----------------
IN: 
0x00083400:  f9401be0  ldr      x0, [sp, #0x30]
0x00083404:  b9400000  ldr      w0, [x0]
0x00083408:  97fff788  bl       #0x81228

----------------
IN: 
0x00081228:  d10043ff  sub      sp, sp, #0x10
0x0008122c:  b9000fe0  str      w0, [sp, #0xc]
0x00081230:  b9400fe0  ldr      w0, [sp, #0xc]
0x00081234:  53081c01  lsl      w1, w0, #0x18
0x00081238:  b9400fe0  ldr      w0, [sp, #0xc]
0x0008123c:  53185c00  lsl      w0, w0, #8
0x00081240:  12101c00  and      w0, w0, #0xff0000
0x00081244:  2a000021  orr      w1, w1, w0
0x00081248:  b9400fe0  ldr      w0, [sp, #0xc]
0x0008124c:  53087c00  lsr      w0, w0, #8
0x00081250:  12181c00  and      w0, w0, #0xff00
0x00081254:  2a000021  orr      w1, w1, w0
0x00081258:  b9400fe0  ldr      w0, [sp, #0xc]
0x0008125c:  53187c00  lsr      w0, w0, #0x18
0x00081260:  2a000020  orr      w0, w1, w0
0x00081264:  910043ff  add      sp, sp, #0x10
0x00081268:  d65f03c0  ret      

----------------
IN: 
0x0008340c:  2a0003e1  mov      w1, w0
0x00083410:  f9401be0  ldr      x0, [sp, #0x30]
0x00083414:  b9000001  str      w1, [x0]
0x00083418:  f9400fe0  ldr      x0, [sp, #0x18]
0x0008341c:  f9401be1  ldr      x1, [sp, #0x30]
0x00083420:  f9000001  str      x1, [x0]
0x00083424:  b9003fff  str      wzr, [sp, #0x3c]
0x00083428:  b9403fe0  ldr      w0, [sp, #0x3c]
0x0008342c:  7101fc1f  cmp      w0, #0x7f
0x00083430:  5400044c  b.gt     #0x834b8

----------------
IN: 
0x00083434:  f9401be0  ldr      x0, [sp, #0x30]
0x00083438:  b9401000  ldr      w0, [x0, #0x10]
0x0008343c:  2a0003e1  mov      w1, w0
0x00083440:  b9403fe0  ldr      w0, [sp, #0x3c]
0x00083444:  6b01001f  cmp      w0, w1
0x00083448:  5400038a  b.ge     #0x834b8

----------------
IN: 
0x0008344c:  f9400fe1  ldr      x1, [sp, #0x18]
0x00083450:  b9803fe0  ldrsw    x0, [sp, #0x3c]
0x00083454:  d37df000  lsl      x0, x0, #3
0x00083458:  8b000020  add      x0, x1, x0
0x0008345c:  f900041f  str      xzr, [x0, #8]
0x00083460:  f9401be0  ldr      x0, [sp, #0x30]
0x00083464:  b9400800  ldr      w0, [x0, #8]
0x00083468:  2a0003e0  mov      w0, w0
0x0008346c:  f9401be1  ldr      x1, [sp, #0x30]
0x00083470:  8b000020  add      x0, x1, x0
0x00083474:  f90017e0  str      x0, [sp, #0x28]
0x00083478:  f9401be0  ldr      x0, [sp, #0x30]
0x0008347c:  b9401401  ldr      w1, [x0, #0x14]
0x00083480:  b9403fe0  ldr      w0, [sp, #0x3c]
0x00083484:  1b007c20  mul      w0, w1, w0
0x00083488:  2a0003e0  mov      w0, w0
0x0008348c:  f94017e1  ldr      x1, [sp, #0x28]
0x00083490:  8b000021  add      x1, x1, x0
0x00083494:  f9400fe2  ldr      x2, [sp, #0x18]
0x00083498:  b9803fe0  ldrsw    x0, [sp, #0x3c]
0x0008349c:  d37df000  lsl      x0, x0, #3
0x000834a0:  8b000040  add      x0, x2, x0
0x000834a4:  f9000401  str      x1, [x0, #8]
0x000834a8:  b9403fe0  ldr      w0, [sp, #0x3c]
0x000834ac:  11000400  add      w0, w0, #1
0x000834b0:  b9003fe0  str      w0, [sp, #0x3c]
0x000834b4:  17ffffdd  b        #0x83428

----------------
IN: 
0x00083428:  b9403fe0  ldr      w0, [sp, #0x3c]
0x0008342c:  7101fc1f  cmp      w0, #0x7f
0x00083430:  5400044c  b.gt     #0x834b8

----------------
IN: 
0x000834b8:  d503201f  nop      
0x000834bc:  a8c47bfd  ldp      x29, x30, [sp], #0x40
0x000834c0:  d65f03c0  ret      

----------------
IN: 
0x00080134:  90000080  adrp     x0, #0x90000
0x00080138:  912c4000  add      x0, x0, #0xb10
0x0008013c:  aa0003e3  mov      x3, x0
0x00080140:  911183e0  add      x0, sp, #0x460
0x00080144:  d2808101  mov      x1, #0x408
0x00080148:  aa0103e2  mov      x2, x1
0x0008014c:  aa0003e1  mov      x1, x0
0x00080150:  aa0303e0  mov      x0, x3
0x00080154:  94000446  bl       #0x8126c

----------------
IN: 
0x0008126c:  a9ba7bfd  stp      x29, x30, [sp, #-0x60]!
0x00081270:  910003fd  mov      x29, sp
0x00081274:  f90017e0  str      x0, [sp, #0x28]
0x00081278:  f90013e1  str      x1, [sp, #0x20]
0x0008127c:  f9000fe2  str      x2, [sp, #0x18]
0x00081280:  f94017e0  ldr      x0, [sp, #0x28]
0x00081284:  f9002fe0  str      x0, [sp, #0x58]
0x00081288:  f94013e0  ldr      x0, [sp, #0x20]
0x0008128c:  f9002be0  str      x0, [sp, #0x50]
0x00081290:  f9400fe1  ldr      x1, [sp, #0x18]
0x00081294:  d284ffe0  mov      x0, #0x27ff
0x00081298:  eb00003f  cmp      x1, x0
0x0008129c:  540004c9  b.ls     #0x81334

----------------
IN: 
0x00081334:  f9400fe0  ldr      x0, [sp, #0x18]
0x00081338:  f100001f  cmp      x0, #0
0x0008133c:  540001e0  b.eq     #0x81378

----------------
IN: 
0x00081340:  f9402be0  ldr      x0, [sp, #0x50]
0x00081344:  39400001  ldrb     w1, [x0]
0x00081348:  f9402fe0  ldr      x0, [sp, #0x58]
0x0008134c:  39000001  strb     w1, [x0]
0x00081350:  f9402fe0  ldr      x0, [sp, #0x58]
0x00081354:  91000400  add      x0, x0, #1
0x00081358:  f9002fe0  str      x0, [sp, #0x58]
0x0008135c:  f9402be0  ldr      x0, [sp, #0x50]
0x00081360:  91000400  add      x0, x0, #1
0x00081364:  f9002be0  str      x0, [sp, #0x50]
0x00081368:  f9400fe0  ldr      x0, [sp, #0x18]
0x0008136c:  d1000400  sub      x0, x0, #1
0x00081370:  f9000fe0  str      x0, [sp, #0x18]
0x00081374:  17fffff0  b        #0x81334

----------------
IN: 
0x00081378:  d503201f  nop      
0x0008137c:  a8c67bfd  ldp      x29, x30, [sp], #0x60
0x00081380:  d65f03c0  ret      

----------------
IN: 
0x00080158:  90000080  adrp     x0, #0x90000
0x0008015c:  912c4001  add      x1, x0, #0xb10
0x00080160:  910083e0  add      x0, sp, #0x20
0x00080164:  aa0103e3  mov      x3, x1
0x00080168:  d2808101  mov      x1, #0x408
0x0008016c:  aa0103e2  mov      x2, x1
0x00080170:  aa0303e1  mov      x1, x3
0x00080174:  9400043e  bl       #0x8126c

----------------
IN: 
0x00080178:  910083e0  add      x0, sp, #0x20
0x0008017c:  94001424  bl       #0x8520c

----------------
IN: 
0x0008520c:  a9be7bfd  stp      x29, x30, [sp, #-0x20]!
0x00085210:  910003fd  mov      x29, sp
0x00085214:  f9000bf3  str      x19, [sp, #0x10]
0x00085218:  aa0003f3  mov      x19, x0
0x0008521c:  f0000080  adrp     x0, #0x98000
0x00085220:  91254000  add      x0, x0, #0x950
0x00085224:  aa0003e3  mov      x3, x0
0x00085228:  aa1303e1  mov      x1, x19
0x0008522c:  d2808100  mov      x0, #0x408
0x00085230:  aa0003e2  mov      x2, x0
0x00085234:  aa0303e0  mov      x0, x3
0x00085238:  97fff00d  bl       #0x8126c

----------------
IN: 
0x0008523c:  d503201f  nop      
0x00085240:  f9400bf3  ldr      x19, [sp, #0x10]
0x00085244:  a8c27bfd  ldp      x29, x30, [sp], #0x20
0x00085248:  d65f03c0  ret      

----------------
IN: 
0x00080180:  9110e3e0  add      x0, sp, #0x438
0x00080184:  52800023  mov      w3, #1
0x00080188:  911003e1  add      x1, sp, #0x400
0x0008018c:  a9450821  ldp      x1, x2, [x1, #0x50]
0x00080190:  94000ded  bl       #0x83944

----------------
IN: 
0x00083944:  a9bd7bfd  stp      x29, x30, [sp, #-0x30]!
0x00083948:  910003fd  mov      x29, sp
0x0008394c:  f90017e0  str      x0, [sp, #0x28]
0x00083950:  a9018be1  stp      x1, x2, [sp, #0x18]
0x00083954:  39005fe3  strb     w3, [sp, #0x17]
0x00083958:  f9400fe1  ldr      x1, [sp, #0x18]
0x0008395c:  f94017e0  ldr      x0, [sp, #0x28]
0x00083960:  f9000001  str      x1, [x0]
0x00083964:  b94023e1  ldr      w1, [sp, #0x20]
0x00083968:  f94017e0  ldr      x0, [sp, #0x28]
0x0008396c:  b9000801  str      w1, [x0, #8]
0x00083970:  b94027e1  ldr      w1, [sp, #0x24]
0x00083974:  f94017e0  ldr      x0, [sp, #0x28]
0x00083978:  b9000c01  str      w1, [x0, #0xc]
0x0008397c:  39405fe0  ldrb     w0, [sp, #0x17]
0x00083980:  7100001f  cmp      w0, #0
0x00083984:  54000100  b.eq     #0x839a4

----------------
IN: 
0x00083988:  f94017e0  ldr      x0, [sp, #0x28]
0x0008398c:  9400002f  bl       #0x83a48

----------------
IN: 
0x00083a48:  a9be7bfd  stp      x29, x30, [sp, #-0x20]!
0x00083a4c:  910003fd  mov      x29, sp
0x00083a50:  f9000fe0  str      x0, [sp, #0x18]
0x00083a54:  f9400fe0  ldr      x0, [sp, #0x18]
0x00083a58:  94000004  bl       #0x83a68

----------------
IN: 
0x00083a68:  d10043ff  sub      sp, sp, #0x10
0x00083a6c:  f90007e0  str      x0, [sp, #8]
0x00083a70:  f94007e0  ldr      x0, [sp, #8]
0x00083a74:  b9400801  ldr      w1, [x0, #8]
0x00083a78:  f94007e0  ldr      x0, [sp, #8]
0x00083a7c:  b9400c00  ldr      w0, [x0, #0xc]
0x00083a80:  1b007c20  mul      w0, w1, w0
0x00083a84:  910043ff  add      sp, sp, #0x10
0x00083a88:  d65f03c0  ret      

----------------
IN: 
0x00083a5c:  531e7400  lsl      w0, w0, #2
0x00083a60:  a8c27bfd  ldp      x29, x30, [sp], #0x20
0x00083a64:  d65f03c0  ret      

----------------
IN: 
0x00083990:  97fff414  bl       #0x809e0

----------------
IN: 
0x000809e0:  a9ae7bfd  stp      x29, x30, [sp, #-0x120]!
0x000809e4:  910003fd  mov      x29, sp
0x000809e8:  b9001fe0  str      w0, [sp, #0x1c]
0x000809ec:  b9401fe0  ldr      w0, [sp, #0x1c]
0x000809f0:  11000c00  add      w0, w0, #3
0x000809f4:  11000c01  add      w1, w0, #3
0x000809f8:  7100001f  cmp      w0, #0
0x000809fc:  1a80b020  csel     w0, w1, w0, lt
0x00080a00:  13027c00  asr      w0, w0, #2
0x00080a04:  531e7400  lsl      w0, w0, #2
0x00080a08:  b9001fe0  str      w0, [sp, #0x1c]
0x00080a0c:  910083e0  add      x0, sp, #0x20
0x00080a10:  aa0003e8  mov      x8, x0
0x00080a14:  97ffff28  bl       #0x806b4

----------------
IN: 
0x000806b4:  aa0803e1  mov      x1, x8
0x000806b8:  b00000a0  adrp     x0, #0x95000
0x000806bc:  91100000  add      x0, x0, #0x400
0x000806c0:  aa0103e2  mov      x2, x1
0x000806c4:  aa0003e3  mov      x3, x0
0x000806c8:  a9400460  ldp      x0, x1, [x3]
0x000806cc:  a9000440  stp      x0, x1, [x2]
0x000806d0:  f9400860  ldr      x0, [x3, #0x10]
0x000806d4:  f9000840  str      x0, [x2, #0x10]
0x000806d8:  d65f03c0  ret      

----------------
IN: 
0x00080a18:  b00000a0  adrp     x0, #0x95000
0x00080a1c:  91106000  add      x0, x0, #0x418
0x00080a20:  b9400000  ldr      w0, [x0]
0x00080a24:  11000401  add      w1, w0, #1
0x00080a28:  b00000a0  adrp     x0, #0x95000
0x00080a2c:  91106000  add      x0, x0, #0x418
0x00080a30:  b9000001  str      w1, [x0]
0x00080a34:  b00000a0  adrp     x0, #0x95000
0x00080a38:  91108000  add      x0, x0, #0x420
0x00080a3c:  f9400000  ldr      x0, [x0]
0x00080a40:  f9008fe0  str      x0, [sp, #0x118]
0x00080a44:  f9408fe0  ldr      x0, [sp, #0x118]
0x00080a48:  b9400400  ldr      w0, [x0, #4]
0x00080a4c:  7100001f  cmp      w0, #0
0x00080a50:  540000c1  b.ne     #0x80a68

----------------
IN: 
0x00080a54:  f9408fe0  ldr      x0, [sp, #0x118]
0x00080a58:  b9400000  ldr      w0, [x0]
0x00080a5c:  b9401fe1  ldr      w1, [sp, #0x1c]
0x00080a60:  6b00003f  cmp      w1, w0
0x00080a64:  54000ecd  b.le     #0x80c3c

----------------
IN: 
0x00080c3c:  f9408fe0  ldr      x0, [sp, #0x118]
0x00080c40:  52800021  mov      w1, #1
0x00080c44:  b9000401  str      w1, [x0, #4]
0x00080c48:  f9408fe0  ldr      x0, [sp, #0x118]
0x00080c4c:  b9400c00  ldr      w0, [x0, #0xc]
0x00080c50:  7100001f  cmp      w0, #0
0x00080c54:  54000501  b.ne     #0x80cf4

----------------
IN: 
0x00080c58:  b9801fe1  ldrsw    x1, [sp, #0x1c]
0x00080c5c:  f9408fe0  ldr      x0, [sp, #0x118]
0x00080c60:  8b000020  add      x0, x1, x0
0x00080c64:  91004000  add      x0, x0, #0x10
0x00080c68:  f9401be1  ldr      x1, [sp, #0x30]
0x00080c6c:  eb01001f  cmp      x0, x1
0x00080c70:  54000422  b.hs     #0x80cf4

----------------
IN: 
0x00080c74:  f9408fe0  ldr      x0, [sp, #0x118]
0x00080c78:  b9400000  ldr      w0, [x0]
0x00080c7c:  b90117e0  str      w0, [sp, #0x114]
0x00080c80:  f9408fe0  ldr      x0, [sp, #0x118]
0x00080c84:  b9401fe1  ldr      w1, [sp, #0x1c]
0x00080c88:  b9000001  str      w1, [x0]
0x00080c8c:  f9408fe0  ldr      x0, [sp, #0x118]
0x00080c90:  2a0003e1  mov      w1, w0
0x00080c94:  b9401fe0  ldr      w0, [sp, #0x1c]
0x00080c98:  0b000020  add      w0, w1, w0
0x00080c9c:  11004001  add      w1, w0, #0x10
0x00080ca0:  f9408fe0  ldr      x0, [sp, #0x118]
0x00080ca4:  b9000c01  str      w1, [x0, #0xc]
0x00080ca8:  f9408fe0  ldr      x0, [sp, #0x118]
0x00080cac:  b9400c00  ldr      w0, [x0, #0xc]
0x00080cb0:  2a0003e0  mov      w0, w0
0x00080cb4:  f90087e0  str      x0, [sp, #0x108]
0x00080cb8:  f9408fe0  ldr      x0, [sp, #0x118]
0x00080cbc:  2a0003e1  mov      w1, w0
0x00080cc0:  f94087e0  ldr      x0, [sp, #0x108]
0x00080cc4:  b9000801  str      w1, [x0, #8]
0x00080cc8:  f94087e0  ldr      x0, [sp, #0x108]
0x00080ccc:  b900041f  str      wzr, [x0, #4]
0x00080cd0:  f94087e0  ldr      x0, [sp, #0x108]
0x00080cd4:  b9000c1f  str      wzr, [x0, #0xc]
0x00080cd8:  b94117e1  ldr      w1, [sp, #0x114]
0x00080cdc:  b9401fe0  ldr      w0, [sp, #0x1c]
0x00080ce0:  4b000020  sub      w0, w1, w0
0x00080ce4:  51004000  sub      w0, w0, #0x10
0x00080ce8:  2a0003e1  mov      w1, w0
0x00080cec:  f94087e0  ldr      x0, [sp, #0x108]
0x00080cf0:  b9000001  str      w1, [x0]
0x00080cf4:  f9408fe0  ldr      x0, [sp, #0x118]
0x00080cf8:  b9400c00  ldr      w0, [x0, #0xc]
0x00080cfc:  7100001f  cmp      w0, #0
0x00080d00:  54000100  b.eq     #0x80d20

----------------
IN: 
0x00080d04:  f9408fe0  ldr      x0, [sp, #0x118]
0x00080d08:  b9400c00  ldr      w0, [x0, #0xc]
0x00080d0c:  2a0003e0  mov      w0, w0
0x00080d10:  aa0003e1  mov      x1, x0
0x00080d14:  b00000a0  adrp     x0, #0x95000
0x00080d18:  91108000  add      x0, x0, #0x420
0x00080d1c:  f9000001  str      x1, [x0]
0x00080d20:  f9408fe0  ldr      x0, [sp, #0x118]
0x00080d24:  91004000  add      x0, x0, #0x10
0x00080d28:  a8d27bfd  ldp      x29, x30, [sp], #0x120
0x00080d2c:  d65f03c0  ret      

----------------
IN: 
0x00083994:  aa0003e1  mov      x1, x0
0x00083998:  f94017e0  ldr      x0, [sp, #0x28]
0x0008399c:  f9000801  str      x1, [x0, #0x10]
0x000839a0:  14000003  b        #0x839ac

----------------
IN: 
0x000839ac:  d503201f  nop      
0x000839b0:  a8c37bfd  ldp      x29, x30, [sp], #0x30
0x000839b4:  d65f03c0  ret      

----------------
IN: 
0x00080194:  9121a3e0  add      x0, sp, #0x868
0x00080198:  528002c3  mov      w3, #0x16
0x0008019c:  528002c2  mov      w2, #0x16
0x000801a0:  528002c1  mov      w1, #0x16
0x000801a4:  94000d5c  bl       #0x83714

----------------
IN: 
0x00083714:  d10043ff  sub      sp, sp, #0x10
0x00083718:  f90007e0  str      x0, [sp, #8]
0x0008371c:  39001fe1  strb     w1, [sp, #7]
0x00083720:  39001be2  strb     w2, [sp, #6]
0x00083724:  390017e3  strb     w3, [sp, #5]
0x00083728:  39401fe1  ldrb     w1, [sp, #7]
0x0008372c:  39401be0  ldrb     w0, [sp, #6]
0x00083730:  53185c00  lsl      w0, w0, #8
0x00083734:  2a000021  orr      w1, w1, w0
0x00083738:  394017e0  ldrb     w0, [sp, #5]
0x0008373c:  53103c00  lsl      w0, w0, #0x10
0x00083740:  2a000021  orr      w1, w1, w0
0x00083744:  f94007e0  ldr      x0, [sp, #8]
0x00083748:  b9000001  str      w1, [x0]
0x0008374c:  d503201f  nop      
0x00083750:  910043ff  add      sp, sp, #0x10
0x00083754:  d65f03c0  ret      

----------------
IN: 
0x000801a8:  9110e3e0  add      x0, sp, #0x438
0x000801ac:  b9486be1  ldr      w1, [sp, #0x868]
0x000801b0:  94000e37  bl       #0x83a8c

----------------
IN: 
0x00083a8c:  a9bd7bfd  stp      x29, x30, [sp, #-0x30]!
0x00083a90:  910003fd  mov      x29, sp
0x00083a94:  f9000fe0  str      x0, [sp, #0x18]
0x00083a98:  b90013e1  str      w1, [sp, #0x10]
0x00083a9c:  f9400fe0  ldr      x0, [sp, #0x18]
0x00083aa0:  97ffffdd  bl       #0x83a14

----------------
IN: 
0x00083a14:  d10043ff  sub      sp, sp, #0x10
0x00083a18:  f90007e0  str      x0, [sp, #8]
0x00083a1c:  f94007e0  ldr      x0, [sp, #8]
0x00083a20:  f9400800  ldr      x0, [x0, #0x10]
0x00083a24:  f100001f  cmp      x0, #0
0x00083a28:  54000080  b.eq     #0x83a38

----------------
IN: 
0x00083a2c:  f94007e0  ldr      x0, [sp, #8]
0x00083a30:  f9400800  ldr      x0, [x0, #0x10]
0x00083a34:  14000003  b        #0x83a40

----------------
IN: 
0x00083a40:  910043ff  add      sp, sp, #0x10
0x00083a44:  d65f03c0  ret      

----------------
IN: 
0x00083aa4:  f90017e0  str      x0, [sp, #0x28]
0x00083aa8:  f9400fe0  ldr      x0, [sp, #0x18]
0x00083aac:  97ffffef  bl       #0x83a68

----------------
IN: 
0x00083ab0:  b90027e0  str      w0, [sp, #0x24]
0x00083ab4:  b94027e0  ldr      w0, [sp, #0x24]
0x00083ab8:  7100001f  cmp      w0, #0
0x00083abc:  5400016d  b.le     #0x83ae8

----------------
IN: 
0x00083ac0:  b94013e1  ldr      w1, [sp, #0x10]
0x00083ac4:  f94017e0  ldr      x0, [sp, #0x28]
0x00083ac8:  b9000001  str      w1, [x0]
0x00083acc:  f94017e0  ldr      x0, [sp, #0x28]
0x00083ad0:  91001000  add      x0, x0, #4
0x00083ad4:  f90017e0  str      x0, [sp, #0x28]
0x00083ad8:  b94027e0  ldr      w0, [sp, #0x24]
0x00083adc:  51000400  sub      w0, w0, #1
0x00083ae0:  b90027e0  str      w0, [sp, #0x24]
0x00083ae4:  17fffff4  b        #0x83ab4

----------------
IN: 
0x00083ab4:  b94027e0  ldr      w0, [sp, #0x24]
0x00083ab8:  7100001f  cmp      w0, #0
0x00083abc:  5400016d  b.le     #0x83ae8

----------------
IN: 
0x00083ae8:  d503201f  nop      
0x00083aec:  a8c37bfd  ldp      x29, x30, [sp], #0x30
0x00083af0:  d65f03c0  ret      

----------------
IN: 
0x000801b4:  d2800900  mov      x0, #0x48
0x000801b8:  940000a3  bl       #0x80444

----------------
IN: 
0x00080444:  a9be7bfd  stp      x29, x30, [sp, #-0x20]!
0x00080448:  910003fd  mov      x29, sp
0x0008044c:  f9000fe0  str      x0, [sp, #0x18]
0x00080450:  f9400fe0  ldr      x0, [sp, #0x18]
0x00080454:  94000163  bl       #0x809e0

----------------
IN: 
0x00080458:  a8c27bfd  ldp      x29, x30, [sp], #0x20
0x0008045c:  d65f03c0  ret      

----------------
IN: 
0x000801bc:  aa0003f3  mov      x19, x0
0x000801c0:  aa1303e0  mov      x0, x19
0x000801c4:  9400058c  bl       #0x817f4

----------------
IN: 
0x000817f4:  a9be7bfd  stp      x29, x30, [sp, #-0x20]!
0x000817f8:  910003fd  mov      x29, sp
0x000817fc:  f9000fe0  str      x0, [sp, #0x18]

----------------
IN: 
0x00081800:  f9400fe0  ldr      x0, [sp, #0x18]
0x00081804:  97fffa28  bl       #0x800a4

----------------
IN: 
0x000800a4:  a9be7bfd  stp      x29, x30, [sp, #-0x20]!
0x000800a8:  910003fd  mov      x29, sp
0x000800ac:  f9000fe0  str      x0, [sp, #0x18]
0x000800b0:  f9400fe0  ldr      x0, [sp, #0x18]
0x000800b4:  94000879  bl       #0x82298

----------------
IN: 
0x00082298:  d10043ff  sub      sp, sp, #0x10
0x0008229c:  f90007e0  str      x0, [sp, #8]
0x000822a0:  f94007e0  ldr      x0, [sp, #8]
0x000822a4:  12800001  mov      w1, #-1
0x000822a8:  b9000801  str      w1, [x0, #8]
0x000822ac:  f94007e0  ldr      x0, [sp, #8]
0x000822b0:  3900301f  strb     wzr, [x0, #0xc]
0x000822b4:  f94007e0  ldr      x0, [sp, #8]
0x000822b8:  f900001f  str      xzr, [x0]
0x000822bc:  f94007e0  ldr      x0, [sp, #8]
0x000822c0:  b900081f  str      wzr, [x0, #8]
0x000822c4:  d503201f  nop      
0x000822c8:  910043ff  add      sp, sp, #0x10
0x000822cc:  d65f03c0  ret      

----------------
IN: 
0x000800b8:  f9400fe0  ldr      x0, [sp, #0x18]
0x000800bc:  f900081f  str      xzr, [x0, #0x10]
0x000800c0:  f9400fe0  ldr      x0, [sp, #0x18]
0x000800c4:  3900601f  strb     wzr, [x0, #0x18]
0x000800c8:  f9400fe0  ldr      x0, [sp, #0x18]
0x000800cc:  f900101f  str      xzr, [x0, #0x20]
0x000800d0:  f9400fe0  ldr      x0, [sp, #0x18]
0x000800d4:  f900141f  str      xzr, [x0, #0x28]
0x000800d8:  f9400fe0  ldr      x0, [sp, #0x18]
0x000800dc:  f900181f  str      xzr, [x0, #0x30]
0x000800e0:  d503201f  nop      
0x000800e4:  a8c27bfd  ldp      x29, x30, [sp], #0x20
0x000800e8:  d65f03c0  ret      

----------------
IN: 
0x00081808:  f9400fe0  ldr      x0, [sp, #0x18]
0x0008180c:  f9001c1f  str      xzr, [x0, #0x38]
0x00081810:  f9400fe0  ldr      x0, [sp, #0x18]
0x00081814:  b900401f  str      wzr, [x0, #0x40]
0x00081818:  f9400fe0  ldr      x0, [sp, #0x18]
0x0008181c:  b900441f  str      wzr, [x0, #0x44]
0x00081820:  f9400fe0  ldr      x0, [sp, #0x18]
0x00081824:  90000001  adrp     x1, #0x81000
0x00081828:  91217021  add      x1, x1, #0x85c
0x0008182c:  f9001001  str      x1, [x0, #0x20]
0x00081830:  f9400fe0  ldr      x0, [sp, #0x18]
0x00081834:  90000001  adrp     x1, #0x81000
0x00081838:  9122b021  add      x1, x1, #0x8ac
0x0008183c:  f9001401  str      x1, [x0, #0x28]
0x00081840:  f9400fe0  ldr      x0, [sp, #0x18]
0x00081844:  90000001  adrp     x1, #0x81000
0x00081848:  9124c021  add      x1, x1, #0x930
0x0008184c:  f9001801  str      x1, [x0, #0x30]
0x00081850:  d503201f  nop      
0x00081854:  a8c27bfd  ldp      x29, x30, [sp], #0x20
0x00081858:  d65f03c0  ret      

----------------
IN: 
0x000801c8:  d0000080  adrp     x0, #0x92000
0x000801cc:  913c0000  add      x0, x0, #0xf00
0x000801d0:  f9000013  str      x19, [x0]
0x000801d4:  d0000080  adrp     x0, #0x92000
0x000801d8:  913c0000  add      x0, x0, #0xf00
0x000801dc:  f9400000  ldr      x0, [x0]
0x000801e0:  f9401001  ldr      x1, [x0, #0x20]
0x000801e4:  d0000080  adrp     x0, #0x92000
0x000801e8:  913c0000  add      x0, x0, #0xf00
0x000801ec:  f9400000  ldr      x0, [x0]
0x000801f0:  d63f0020  blr      x1

----------------
IN: 
0x0008185c:  a9bd7bfd  stp      x29, x30, [sp, #-0x30]!
0x00081860:  910003fd  mov      x29, sp
0x00081864:  f9000fe0  str      x0, [sp, #0x18]
0x00081868:  910083e2  add      x2, sp, #0x20
0x0008186c:  f0000040  adrp     x0, #0x8c000
0x00081870:  91016001  add      x1, x0, #0x58
0x00081874:  aa0203e0  mov      x0, x2
0x00081878:  940002a4  bl       #0x82308

----------------
IN: 
0x00082308:  d10043ff  sub      sp, sp, #0x10
0x0008230c:  f90007e0  str      x0, [sp, #8]
0x00082310:  f90003e1  str      x1, [sp]
0x00082314:  f94007e0  ldr      x0, [sp, #8]
0x00082318:  12800001  mov      w1, #-1
0x0008231c:  b9000801  str      w1, [x0, #8]
0x00082320:  f94007e0  ldr      x0, [sp, #8]
0x00082324:  3900301f  strb     wzr, [x0, #0xc]
0x00082328:  f94007e0  ldr      x0, [sp, #8]
0x0008232c:  f94003e1  ldr      x1, [sp]
0x00082330:  f9000001  str      x1, [x0]
0x00082334:  d503201f  nop      
0x00082338:  910043ff  add      sp, sp, #0x10
0x0008233c:  d65f03c0  ret      

----------------
IN: 
0x0008187c:  f9400fe0  ldr      x0, [sp, #0x18]
0x00081880:  aa0003e1  mov      x1, x0
0x00081884:  910083e0  add      x0, sp, #0x20
0x00081888:  f9400002  ldr      x2, [x0]
0x0008188c:  f9000022  str      x2, [x1]
0x00081890:  f8405000  ldur     x0, [x0, #5]
0x00081894:  f8005020  stur     x0, [x1, #5]
0x00081898:  910083e0  add      x0, sp, #0x20
0x0008189c:  94000230  bl       #0x8215c

----------------
IN: 
0x0008215c:  a9be7bfd  stp      x29, x30, [sp, #-0x20]!
0x00082160:  910003fd  mov      x29, sp
0x00082164:  f9000fe0  str      x0, [sp, #0x18]
0x00082168:  f9400fe0  ldr      x0, [sp, #0x18]
0x0008216c:  39403000  ldrb     w0, [x0, #0xc]
0x00082170:  7100001f  cmp      w0, #0
0x00082174:  54000080  b.eq     #0x82184

----------------
IN: 
0x00082184:  d503201f  nop      
0x00082188:  a8c27bfd  ldp      x29, x30, [sp], #0x20
0x0008218c:  d65f03c0  ret      

----------------
IN: 
0x000818a0:  d503201f  nop      
0x000818a4:  a8c37bfd  ldp      x29, x30, [sp], #0x30
0x000818a8:  d65f03c0  ret      

----------------
IN: 
0x000801f4:  d0000080  adrp     x0, #0x92000
0x000801f8:  913c0000  add      x0, x0, #0xf00
0x000801fc:  f9400000  ldr      x0, [x0]
0x00080200:  f9401402  ldr      x2, [x0, #0x28]
0x00080204:  d0000080  adrp     x0, #0x92000
0x00080208:  913c0000  add      x0, x0, #0xf00
0x0008020c:  f9400000  ldr      x0, [x0]
0x00080210:  52800001  mov      w1, #0
0x00080214:  d63f0040  blr      x2

----------------
IN: 
0x000818ac:  a9be7bfd  stp      x29, x30, [sp, #-0x20]!
0x000818b0:  910003fd  mov      x29, sp
0x000818b4:  f9000fe0  str      x0, [sp, #0x18]
0x000818b8:  b90017e1  str      w1, [sp, #0x14]
0x000818bc:  f9400fe0  ldr      x0, [sp, #0x18]
0x000818c0:  f9401c00  ldr      x0, [x0, #0x38]
0x000818c4:  f100001f  cmp      x0, #0
0x000818c8:  54000280  b.eq     #0x81918

----------------
IN: 
0x00081918:  f9400fe0  ldr      x0, [sp, #0x18]
0x0008191c:  52800021  mov      w1, #1
0x00081920:  39006001  strb     w1, [x0, #0x18]
0x00081924:  d503201f  nop      
0x00081928:  a8c27bfd  ldp      x29, x30, [sp], #0x20
0x0008192c:  d65f03c0  ret      

----------------
IN: 
0x00080218:  d0000080  adrp     x0, #0x92000
0x0008021c:  913c0000  add      x0, x0, #0xf00
0x00080220:  f9400000  ldr      x0, [x0]
0x00080224:  39406000  ldrb     w0, [x0, #0x18]
0x00080228:  7100001f  cmp      w0, #0
0x0008022c:  54fffe40  b.eq     #0x801f4

----------------
IN: 
0x00080230:  d0000080  adrp     x0, #0x92000
0x00080234:  913c0000  add      x0, x0, #0xf00
0x00080238:  f9400000  ldr      x0, [x0]
0x0008023c:  3900601f  strb     wzr, [x0, #0x18]
0x00080240:  d0000080  adrp     x0, #0x92000
0x00080244:  913c0000  add      x0, x0, #0xf00
0x00080248:  f9400000  ldr      x0, [x0]
0x0008024c:  f9401804  ldr      x4, [x0, #0x30]
0x00080250:  d0000080  adrp     x0, #0x92000
0x00080254:  913c0000  add      x0, x0, #0xf00
0x00080258:  f9400005  ldr      x5, [x0]
0x0008025c:  910083e2  add      x2, sp, #0x20
0x00080260:  9110e3e3  add      x3, sp, #0x438
0x00080264:  a9400460  ldp      x0, x1, [x3]
0x00080268:  a9000440  stp      x0, x1, [x2]
0x0008026c:  f9400860  ldr      x0, [x3, #0x10]
0x00080270:  f9000840  str      x0, [x2, #0x10]
0x00080274:  910083e0  add      x0, sp, #0x20
0x00080278:  aa0003e1  mov      x1, x0
0x0008027c:  aa0503e0  mov      x0, x5
0x00080280:  d63f0080  blr      x4

----------------
IN: 
0x00081930:  d11943ff  sub      sp, sp, #0x650
0x00081934:  a9007bfd  stp      x29, x30, [sp]
0x00081938:  910003fd  mov      x29, sp
0x0008193c:  f9000bf3  str      x19, [sp, #0x10]
0x00081940:  f90017e0  str      x0, [sp, #0x28]
0x00081944:  aa0103f3  mov      x19, x1
0x00081948:  b9400a61  ldr      w1, [x19, #8]
0x0008194c:  b9400e60  ldr      w0, [x19, #0xc]
0x00081950:  5100a002  sub      w2, w0, #0x28
0x00081954:  911243e0  add      x0, sp, #0x490
0x00081958:  2a0203e4  mov      w4, w2
0x0008195c:  2a0103e3  mov      w3, w1
0x00081960:  52800502  mov      w2, #0x28
0x00081964:  52800001  mov      w1, #0
0x00081968:  94000756  bl       #0x836c0

----------------
IN: 
0x000836c0:  d10083ff  sub      sp, sp, #0x20
0x000836c4:  f9000fe0  str      x0, [sp, #0x18]
0x000836c8:  b90017e1  str      w1, [sp, #0x14]
0x000836cc:  b90013e2  str      w2, [sp, #0x10]
0x000836d0:  b9000fe3  str      w3, [sp, #0xc]
0x000836d4:  b9000be4  str      w4, [sp, #8]
0x000836d8:  f9400fe0  ldr      x0, [sp, #0x18]
0x000836dc:  b94017e1  ldr      w1, [sp, #0x14]
0x000836e0:  b9000001  str      w1, [x0]
0x000836e4:  f9400fe0  ldr      x0, [sp, #0x18]
0x000836e8:  b94013e1  ldr      w1, [sp, #0x10]
0x000836ec:  b9000401  str      w1, [x0, #4]
0x000836f0:  f9400fe0  ldr      x0, [sp, #0x18]
0x000836f4:  b9400fe1  ldr      w1, [sp, #0xc]
0x000836f8:  b9000801  str      w1, [x0, #8]
0x000836fc:  f9400fe0  ldr      x0, [sp, #0x18]
0x00083700:  b9400be1  ldr      w1, [sp, #8]
0x00083704:  b9000c01  str      w1, [x0, #0xc]
0x00083708:  d503201f  nop      
0x0008370c:  910083ff  add      sp, sp, #0x20
0x00083710:  d65f03c0  ret      

----------------
IN: 
0x0008196c:  911283e0  add      x0, sp, #0x4a0
0x00081970:  128002c3  mov      w3, #-0x17
0x00081974:  128002c2  mov      w2, #-0x17
0x00081978:  128002c1  mov      w1, #-0x17
0x0008197c:  94000766  bl       #0x83714

----------------
IN: 
0x00081980:  b944a3e3  ldr      w3, [sp, #0x4a0]
0x00081984:  911003e0  add      x0, sp, #0x400
0x00081988:  a9490801  ldp      x1, x2, [x0, #0x90]
0x0008198c:  aa1303e0  mov      x0, x19
0x00081990:  94000859  bl       #0x83af4

----------------
IN: 
0x00083af4:  a9bb7bfd  stp      x29, x30, [sp, #-0x50]!
0x00083af8:  910003fd  mov      x29, sp
0x00083afc:  f90017e0  str      x0, [sp, #0x28]
0x00083b00:  a9018be1  stp      x1, x2, [sp, #0x18]
0x00083b04:  b90013e3  str      w3, [sp, #0x10]
0x00083b08:  f94017e0  ldr      x0, [sp, #0x28]
0x00083b0c:  97ffffc2  bl       #0x83a14

----------------
IN: 
0x00083b10:  f90027e0  str      x0, [sp, #0x48]
0x00083b14:  b94023e0  ldr      w0, [sp, #0x20]
0x00083b18:  b9003fe0  str      w0, [sp, #0x3c]
0x00083b1c:  b94027e0  ldr      w0, [sp, #0x24]
0x00083b20:  b9003be0  str      w0, [sp, #0x38]
0x00083b24:  b9401fe1  ldr      w1, [sp, #0x1c]
0x00083b28:  f94017e0  ldr      x0, [sp, #0x28]
0x00083b2c:  b9400800  ldr      w0, [x0, #8]
0x00083b30:  1b007c21  mul      w1, w1, w0
0x00083b34:  b9401be0  ldr      w0, [sp, #0x18]
0x00083b38:  0b000020  add      w0, w1, w0
0x00083b3c:  93407c00  sxtw     x0, w0
0x00083b40:  d37ef400  lsl      x0, x0, #2
0x00083b44:  f94027e1  ldr      x1, [sp, #0x48]
0x00083b48:  8b000020  add      x0, x1, x0
0x00083b4c:  f90027e0  str      x0, [sp, #0x48]
0x00083b50:  b90047ff  str      wzr, [sp, #0x44]
0x00083b54:  b94047e1  ldr      w1, [sp, #0x44]
0x00083b58:  b9403be0  ldr      w0, [sp, #0x38]
0x00083b5c:  6b00003f  cmp      w1, w0
0x00083b60:  5400042a  b.ge     #0x83be4

----------------
IN: 
0x00083b64:  b90043ff  str      wzr, [sp, #0x40]
0x00083b68:  b94043e1  ldr      w1, [sp, #0x40]
0x00083b6c:  b9403fe0  ldr      w0, [sp, #0x3c]
0x00083b70:  6b00003f  cmp      w1, w0
0x00083b74:  5400016a  b.ge     #0x83ba0

----------------
IN: 
0x00083b78:  b94013e1  ldr      w1, [sp, #0x10]
0x00083b7c:  f94027e0  ldr      x0, [sp, #0x48]
0x00083b80:  b9000001  str      w1, [x0]
0x00083b84:  f94027e0  ldr      x0, [sp, #0x48]
0x00083b88:  91001000  add      x0, x0, #4
0x00083b8c:  f90027e0  str      x0, [sp, #0x48]
0x00083b90:  b94043e0  ldr      w0, [sp, #0x40]
0x00083b94:  11000400  add      w0, w0, #1
0x00083b98:  b90043e0  str      w0, [sp, #0x40]
0x00083b9c:  17fffff3  b        #0x83b68

----------------
IN: 
0x00083b68:  b94043e1  ldr      w1, [sp, #0x40]
0x00083b6c:  b9403fe0  ldr      w0, [sp, #0x3c]
0x00083b70:  6b00003f  cmp      w1, w0
0x00083b74:  5400016a  b.ge     #0x83ba0

----------------
IN: 
0x00083ba0:  f94017e0  ldr      x0, [sp, #0x28]
0x00083ba4:  b9400800  ldr      w0, [x0, #8]
0x00083ba8:  93407c00  sxtw     x0, w0
0x00083bac:  d37ef400  lsl      x0, x0, #2
0x00083bb0:  f94027e1  ldr      x1, [sp, #0x48]
0x00083bb4:  8b000020  add      x0, x1, x0
0x00083bb8:  f90027e0  str      x0, [sp, #0x48]
0x00083bbc:  b9803fe0  ldrsw    x0, [sp, #0x3c]
0x00083bc0:  d37ef400  lsl      x0, x0, #2
0x00083bc4:  cb0003e0  neg      x0, x0
0x00083bc8:  f94027e1  ldr      x1, [sp, #0x48]
0x00083bcc:  8b000020  add      x0, x1, x0
0x00083bd0:  f90027e0  str      x0, [sp, #0x48]
0x00083bd4:  b94047e0  ldr      w0, [sp, #0x44]
0x00083bd8:  11000400  add      w0, w0, #1
0x00083bdc:  b90047e0  str      w0, [sp, #0x44]
0x00083be0:  17ffffdd  b        #0x83b54

----------------
IN: 
0x00083b54:  b94047e1  ldr      w1, [sp, #0x44]
0x00083b58:  b9403be0  ldr      w0, [sp, #0x38]
0x00083b5c:  6b00003f  cmp      w1, w0
0x00083b60:  5400042a  b.ge     #0x83be4

----------------
IN: 
0x00083be4:  d503201f  nop      
0x00083be8:  a8c57bfd  ldp      x29, x30, [sp], #0x50
0x00083bec:  d65f03c0  ret      

----------------
IN: 
0x00081994:  528000a0  mov      w0, #5
0x00081998:  b90643e0  str      w0, [sp, #0x640]
0x0008199c:  b9063fff  str      wzr, [sp, #0x63c]
0x000819a0:  528003c0  mov      w0, #0x1e
0x000819a4:  b9063be0  str      w0, [sp, #0x638]
0x000819a8:  b9400a60  ldr      w0, [x19, #8]
0x000819ac:  531f7c01  lsr      w1, w0, #0x1f
0x000819b0:  0b000020  add      w0, w1, w0
0x000819b4:  13017c00  asr      w0, w0, #1
0x000819b8:  2a0003e2  mov      w2, w0
0x000819bc:  b9400a60  ldr      w0, [x19, #8]
0x000819c0:  528412a1  mov      w1, #0x2095
0x000819c4:  72a129e1  movk     w1, #0x94f, lsl #16
0x000819c8:  9b217c01  smull    x1, w0, w1
0x000819cc:  d360fc21  lsr      x1, x1, #0x20
0x000819d0:  13037c21  asr      w1, w1, #3
0x000819d4:  131f7c00  asr      w0, w0, #0x1f
0x000819d8:  4b010001  sub      w1, w0, w1
0x000819dc:  52800dc0  mov      w0, #0x6e
0x000819e0:  1b007c20  mul      w0, w1, w0
0x000819e4:  0b000040  add      w0, w2, w0
0x000819e8:  b90637e0  str      w0, [sp, #0x634]
0x000819ec:  b94637e0  ldr      w0, [sp, #0x634]
0x000819f0:  b9064fe0  str      w0, [sp, #0x64c]
0x000819f4:  b9463be0  ldr      w0, [sp, #0x638]
0x000819f8:  1100a001  add      w1, w0, #0x28
0x000819fc:  f94017e0  ldr      x0, [sp, #0x28]
0x00081a00:  b9404000  ldr      w0, [x0, #0x40]
0x00081a04:  4b000020  sub      w0, w1, w0
0x00081a08:  b9064be0  str      w0, [sp, #0x648]
0x00081a0c:  b90647ff  str      wzr, [sp, #0x644]
0x00081a10:  b94647e1  ldr      w1, [sp, #0x644]
0x00081a14:  b94643e0  ldr      w0, [sp, #0x640]
0x00081a18:  6b00003f  cmp      w1, w0
0x00081a1c:  54000c0a  b.ge     #0x81b9c

----------------
IN: 
0x00081a20:  9112a3e0  add      x0, sp, #0x4a8
0x00081a24:  52801904  mov      w4, #0xc8
0x00081a28:  52801903  mov      w3, #0xc8
0x00081a2c:  b9464be2  ldr      w2, [sp, #0x648]
0x00081a30:  b9464fe1  ldr      w1, [sp, #0x64c]
0x00081a34:  94000723  bl       #0x836c0

----------------
IN: 
0x00081a38:  9112e3e0  add      x0, sp, #0x4b8
0x00081a3c:  12800483  mov      w3, #-0x25
0x00081a40:  12800482  mov      w2, #-0x25
0x00081a44:  12800481  mov      w1, #-0x25
0x00081a48:  94000733  bl       #0x83714

----------------
IN: 
0x00081a4c:  b944bbe3  ldr      w3, [sp, #0x4b8]
0x00081a50:  911003e0  add      x0, sp, #0x400
0x00081a54:  a94a8801  ldp      x1, x2, [x0, #0xa8]
0x00081a58:  aa1303e0  mov      x0, x19
0x00081a5c:  94000826  bl       #0x83af4

----------------
IN: 
0x00081a60:  b9463fe1  ldr      w1, [sp, #0x63c]
0x00081a64:  b94647e0  ldr      w0, [sp, #0x644]
0x00081a68:  6b00003f  cmp      w1, w0
0x00081a6c:  540006a1  b.ne     #0x81b40

----------------
IN: 
0x00081a70:  9100e3e0  add      x0, sp, #0x38
0x00081a74:  12800fe3  mov      w3, #-0x80
0x00081a78:  12800fe2  mov      w2, #-0x80
0x00081a7c:  12800fe1  mov      w1, #-0x80
0x00081a80:  94000725  bl       #0x83714

----------------
IN: 
0x00081a84:  911303e0  add      x0, sp, #0x4c0
0x00081a88:  52801904  mov      w4, #0xc8
0x00081a8c:  52800083  mov      w3, #4
0x00081a90:  b9464be2  ldr      w2, [sp, #0x648]
0x00081a94:  b9464fe1  ldr      w1, [sp, #0x64c]
0x00081a98:  9400070a  bl       #0x836c0

----------------
IN: 
0x00081a9c:  b9403be3  ldr      w3, [sp, #0x38]
0x00081aa0:  911003e0  add      x0, sp, #0x400
0x00081aa4:  a94c0801  ldp      x1, x2, [x0, #0xc0]
0x00081aa8:  aa1303e0  mov      x0, x19
0x00081aac:  94000812  bl       #0x83af4

----------------
IN: 
0x00081ab0:  911343e0  add      x0, sp, #0x4d0
0x00081ab4:  52800084  mov      w4, #4
0x00081ab8:  52801903  mov      w3, #0xc8
0x00081abc:  b9464be2  ldr      w2, [sp, #0x648]
0x00081ac0:  b9464fe1  ldr      w1, [sp, #0x64c]
0x00081ac4:  940006ff  bl       #0x836c0

----------------
IN: 
0x00081ac8:  b9403be3  ldr      w3, [sp, #0x38]
0x00081acc:  911003e0  add      x0, sp, #0x400
0x00081ad0:  a94d0801  ldp      x1, x2, [x0, #0xd0]
0x00081ad4:  aa1303e0  mov      x0, x19
0x00081ad8:  94000807  bl       #0x83af4

----------------
IN: 
0x00081adc:  b9464fe0  ldr      w0, [sp, #0x64c]
0x00081ae0:  11031001  add      w1, w0, #0xc4
0x00081ae4:  911383e0  add      x0, sp, #0x4e0
0x00081ae8:  52801904  mov      w4, #0xc8
0x00081aec:  52800083  mov      w3, #4
0x00081af0:  b9464be2  ldr      w2, [sp, #0x648]
0x00081af4:  940006f3  bl       #0x836c0

----------------
IN: 
0x00081af8:  b9403be3  ldr      w3, [sp, #0x38]
0x00081afc:  911003e0  add      x0, sp, #0x400
0x00081b00:  a94e0801  ldp      x1, x2, [x0, #0xe0]
0x00081b04:  aa1303e0  mov      x0, x19
0x00081b08:  940007fb  bl       #0x83af4

----------------
IN: 
0x00081b0c:  b9464be0  ldr      w0, [sp, #0x648]
0x00081b10:  11031001  add      w1, w0, #0xc4
0x00081b14:  9113c3e0  add      x0, sp, #0x4f0
0x00081b18:  52800084  mov      w4, #4
0x00081b1c:  52801903  mov      w3, #0xc8
0x00081b20:  2a0103e2  mov      w2, w1
0x00081b24:  b9464fe1  ldr      w1, [sp, #0x64c]
0x00081b28:  940006e6  bl       #0x836c0

----------------
IN: 
0x00081b2c:  b9403be3  ldr      w3, [sp, #0x38]
0x00081b30:  911003e0  add      x0, sp, #0x400
0x00081b34:  a94f0801  ldp      x1, x2, [x0, #0xf0]
0x00081b38:  aa1303e0  mov      x0, x19
0x00081b3c:  940007ee  bl       #0x83af4

----------------
IN: 
0x00081b40:  b9463be0  ldr      w0, [sp, #0x638]
0x00081b44:  11032000  add      w0, w0, #0xc8
0x00081b48:  b9464fe1  ldr      w1, [sp, #0x64c]
0x00081b4c:  0b000020  add      w0, w1, w0
0x00081b50:  b9064fe0  str      w0, [sp, #0x64c]
0x00081b54:  b9464fe0  ldr      w0, [sp, #0x64c]
0x00081b58:  11032001  add      w1, w0, #0xc8
0x00081b5c:  b9400a62  ldr      w2, [x19, #8]
0x00081b60:  b9463be0  ldr      w0, [sp, #0x638]
0x00081b64:  4b000040  sub      w0, w2, w0
0x00081b68:  6b00003f  cmp      w1, w0
0x00081b6c:  5400010b  b.lt     #0x81b8c

----------------
IN: 
0x00081b8c:  b94647e0  ldr      w0, [sp, #0x644]
0x00081b90:  11000400  add      w0, w0, #1
0x00081b94:  b90647e0  str      w0, [sp, #0x644]
0x00081b98:  17ffff9e  b        #0x81a10

----------------
IN: 
0x00081a10:  b94647e1  ldr      w1, [sp, #0x644]
0x00081a14:  b94643e0  ldr      w0, [sp, #0x640]
0x00081a18:  6b00003f  cmp      w1, w0
0x00081a1c:  54000c0a  b.ge     #0x81b9c

----------------
IN: 
0x00081b70:  b94637e0  ldr      w0, [sp, #0x634]
0x00081b74:  b9064fe0  str      w0, [sp, #0x64c]
0x00081b78:  b9463be0  ldr      w0, [sp, #0x638]
0x00081b7c:  11032000  add      w0, w0, #0xc8
0x00081b80:  b9464be1  ldr      w1, [sp, #0x648]
0x00081b84:  0b000020  add      w0, w1, w0
0x00081b88:  b9064be0  str      w0, [sp, #0x648]
0x00081b8c:  b94647e0  ldr      w0, [sp, #0x644]
0x00081b90:  11000400  add      w0, w0, #1
0x00081b94:  b90647e0  str      w0, [sp, #0x644]
0x00081b98:  17ffff9e  b        #0x81a10

----------------
IN: 
0x00081b9c:  b9400a61  ldr      w1, [x19, #8]
0x00081ba0:  911403e0  add      x0, sp, #0x500
0x00081ba4:  52800504  mov      w4, #0x28
0x00081ba8:  2a0103e3  mov      w3, w1
0x00081bac:  52800002  mov      w2, #0
0x00081bb0:  52800001  mov      w1, #0
0x00081bb4:  940006c3  bl       #0x836c0

----------------
IN: 
0x00081bb8:  911443e0  add      x0, sp, #0x510
0x00081bbc:  128006e3  mov      w3, #-0x38
0x00081bc0:  128006e2  mov      w2, #-0x38
0x00081bc4:  128006e1  mov      w1, #-0x38
0x00081bc8:  940006d3  bl       #0x83714

----------------
IN: 
0x00081bcc:  b94513e3  ldr      w3, [sp, #0x510]
0x00081bd0:  911803e0  add      x0, sp, #0x600
0x00081bd4:  a9700801  ldp      x1, x2, [x0, #-0x100]
0x00081bd8:  aa1303e0  mov      x0, x19
0x00081bdc:  940007c6  bl       #0x83af4

----------------
IN: 
0x00081be0:  940005e5  bl       #0x83374

----------------
IN: 
0x00083374:  a9be7bfd  stp      x29, x30, [sp, #-0x20]!
0x00083378:  910003fd  mov      x29, sp
0x0008337c:  94000766  bl       #0x85114

----------------
IN: 
0x00085114:  a9bd7bfd  stp      x29, x30, [sp, #-0x30]!
0x00085118:  910003fd  mov      x29, sp
0x0008511c:  97fffff8  bl       #0x850fc

----------------
IN: 
0x000850fc:  d2860000  mov      x0, #0x3000
0x00085100:  f2a7e000  movk     x0, #0x3f00, lsl #16
0x00085104:  d65f03c0  ret      

----------------
IN: 
0x00085120:  f9000fe0  str      x0, [sp, #0x18]
0x00085124:  f9400fe0  ldr      x0, [sp, #0x18]
0x00085128:  b9400400  ldr      w0, [x0, #4]
0x0008512c:  2a0003e0  mov      w0, w0
0x00085130:  f90017e0  str      x0, [sp, #0x28]
0x00085134:  f9400fe0  ldr      x0, [sp, #0x18]
0x00085138:  b9400800  ldr      w0, [x0, #8]
0x0008513c:  2a0003e0  mov      w0, w0
0x00085140:  f90013e0  str      x0, [sp, #0x20]
0x00085144:  f9400fe0  ldr      x0, [sp, #0x18]
0x00085148:  b9400800  ldr      w0, [x0, #8]
0x0008514c:  2a0003e0  mov      w0, w0
0x00085150:  f94013e1  ldr      x1, [sp, #0x20]
0x00085154:  eb00003f  cmp      x1, x0
0x00085158:  1a9f07e0  cset     w0, ne
0x0008515c:  12001c00  and      w0, w0, #0xff
0x00085160:  7100001f  cmp      w0, #0
0x00085164:  54000120  b.eq     #0x85188

----------------
IN: 
0x00085128:  b9400400  ldr      w0, [x0, #4]

----------------
IN: 
0x0008512c:  2a0003e0  mov      w0, w0
0x00085130:  f90017e0  str      x0, [sp, #0x28]
0x00085134:  f9400fe0  ldr      x0, [sp, #0x18]
0x00085138:  b9400800  ldr      w0, [x0, #8]
0x0008513c:  2a0003e0  mov      w0, w0
0x00085140:  f90013e0  str      x0, [sp, #0x20]
0x00085144:  f9400fe0  ldr      x0, [sp, #0x18]
0x00085148:  b9400800  ldr      w0, [x0, #8]
0x0008514c:  2a0003e0  mov      w0, w0
0x00085150:  f94013e1  ldr      x1, [sp, #0x20]
0x00085154:  eb00003f  cmp      x1, x0
0x00085158:  1a9f07e0  cset     w0, ne
0x0008515c:  12001c00  and      w0, w0, #0xff
0x00085160:  7100001f  cmp      w0, #0
0x00085164:  54000120  b.eq     #0x85188

----------------
IN: 
0x00085138:  b9400800  ldr      w0, [x0, #8]

----------------
IN: 
0x0008513c:  2a0003e0  mov      w0, w0
0x00085140:  f90013e0  str      x0, [sp, #0x20]
0x00085144:  f9400fe0  ldr      x0, [sp, #0x18]
0x00085148:  b9400800  ldr      w0, [x0, #8]
0x0008514c:  2a0003e0  mov      w0, w0
0x00085150:  f94013e1  ldr      x1, [sp, #0x20]
0x00085154:  eb00003f  cmp      x1, x0
0x00085158:  1a9f07e0  cset     w0, ne
0x0008515c:  12001c00  and      w0, w0, #0xff
0x00085160:  7100001f  cmp      w0, #0
0x00085164:  54000120  b.eq     #0x85188

----------------
IN: 
0x00085148:  b9400800  ldr      w0, [x0, #8]

----------------
IN: 
0x0008514c:  2a0003e0  mov      w0, w0
0x00085150:  f94013e1  ldr      x1, [sp, #0x20]
0x00085154:  eb00003f  cmp      x1, x0
0x00085158:  1a9f07e0  cset     w0, ne
0x0008515c:  12001c00  and      w0, w0, #0xff
0x00085160:  7100001f  cmp      w0, #0
0x00085164:  54000120  b.eq     #0x85188

----------------
IN: 
0x00085188:  f94013e0  ldr      x0, [sp, #0x20]
0x0008518c:  d3607c01  lsl      x1, x0, #0x20
0x00085190:  f94017e0  ldr      x0, [sp, #0x28]
0x00085194:  aa000020  orr      x0, x1, x0
0x00085198:  a8c37bfd  ldp      x29, x30, [sp], #0x30
0x0008519c:  d65f03c0  ret      

----------------
IN: 
0x00083380:  aa0003e1  mov      x1, x0
0x00083384:  910063e0  add      x0, sp, #0x18
0x00083388:  97ffff05  bl       #0x82f9c

----------------
IN: 
0x00082f9c:  d10043ff  sub      sp, sp, #0x10
0x00082fa0:  f90007e0  str      x0, [sp, #8]
0x00082fa4:  f90003e1  str      x1, [sp]
0x00082fa8:  f94007e0  ldr      x0, [sp, #8]
0x00082fac:  f94003e1  ldr      x1, [sp]
0x00082fb0:  f9000001  str      x1, [x0]
0x00082fb4:  d503201f  nop      
0x00082fb8:  910043ff  add      sp, sp, #0x10
0x00082fbc:  d65f03c0  ret      

----------------
IN: 
0x0008338c:  f9400fe0  ldr      x0, [sp, #0x18]
0x00083390:  a8c27bfd  ldp      x29, x30, [sp], #0x20
0x00083394:  d65f03c0  ret      

----------------
IN: 
0x00081be4:  f90247e0  str      x0, [sp, #0x488]
0x00081be8:  911223e0  add      x0, sp, #0x488
0x00081bec:  940005b0  bl       #0x832ac

----------------
IN: 
0x000832ac:  a9bc7bfd  stp      x29, x30, [sp, #-0x40]!
0x000832b0:  910003fd  mov      x29, sp
0x000832b4:  f9000fe0  str      x0, [sp, #0x18]
0x000832b8:  910083e0  add      x0, sp, #0x20
0x000832bc:  52800062  mov      w2, #3
0x000832c0:  d28a3001  mov      x1, #0x5180
0x000832c4:  f2a00021  movk     x1, #1, lsl #16
0x000832c8:  97ffff3e  bl       #0x82fc0

----------------
IN: 
0x00082fc0:  a9bc7bfd  stp      x29, x30, [sp, #-0x40]!
0x00082fc4:  910003fd  mov      x29, sp
0x00082fc8:  f90017e0  str      x0, [sp, #0x28]
0x00082fcc:  f90013e1  str      x1, [sp, #0x20]
0x00082fd0:  b9001fe2  str      w2, [sp, #0x1c]
0x00082fd4:  9400084d  bl       #0x85108

----------------
IN: 
0x00085108:  52884800  mov      w0, #0x4240
0x0008510c:  72a001e0  movk     w0, #0xf, lsl #16
0x00085110:  d65f03c0  ret      

----------------
IN: 
0x00082fd8:  b9003fe0  str      w0, [sp, #0x3c]
0x00082fdc:  b9401fe0  ldr      w0, [sp, #0x1c]
0x00082fe0:  71000c1f  cmp      w0, #3
0x00082fe4:  54000640  b.eq     #0x830ac

----------------
IN: 
0x000830ac:  b9403fe1  ldr      w1, [sp, #0x3c]
0x000830b0:  f94013e0  ldr      x0, [sp, #0x20]
0x000830b4:  9b007c21  mul      x1, x1, x0
0x000830b8:  f94017e0  ldr      x0, [sp, #0x28]
0x000830bc:  f9000001  str      x1, [x0]
0x000830c0:  d503201f  nop      
0x000830c4:  d503201f  nop      
0x000830c8:  a8c47bfd  ldp      x29, x30, [sp], #0x40
0x000830cc:  d65f03c0  ret      

----------------
IN: 
0x000832cc:  f94013e0  ldr      x0, [sp, #0x20]
0x000832d0:  f9001fe0  str      x0, [sp, #0x38]
0x000832d4:  9100a3e0  add      x0, sp, #0x28
0x000832d8:  52800062  mov      w2, #3
0x000832dc:  d281c201  mov      x1, #0xe10
0x000832e0:  97ffff38  bl       #0x82fc0

----------------
IN: 
0x000832e4:  f94017e0  ldr      x0, [sp, #0x28]
0x000832e8:  f9001be0  str      x0, [sp, #0x30]
0x000832ec:  f9400fe0  ldr      x0, [sp, #0x18]
0x000832f0:  f9400000  ldr      x0, [x0]
0x000832f4:  f9401fe1  ldr      x1, [sp, #0x38]
0x000832f8:  9ac10802  udiv     x2, x0, x1
0x000832fc:  9b017c41  mul      x1, x2, x1
0x00083300:  cb010001  sub      x1, x0, x1
0x00083304:  f9401be0  ldr      x0, [sp, #0x30]
0x00083308:  9ac00820  udiv     x0, x1, x0
0x0008330c:  a8c47bfd  ldp      x29, x30, [sp], #0x40
0x00083310:  d65f03c0  ret      

----------------
IN: 
0x00081bf0:  2a0003e2  mov      w2, w0
0x00081bf4:  9111e3e0  add      x0, sp, #0x478
0x00081bf8:  aa0003e8  mov      x8, x0
0x00081bfc:  52800021  mov      w1, #1

----------------
IN: 
0x00081c00:  2a0203e0  mov      w0, w2
0x00081c04:  9400036b  bl       #0x829b0

----------------
IN: 
0x000829b0:  a9bd7bfd  stp      x29, x30, [sp, #-0x30]!
0x000829b4:  910003fd  mov      x29, sp
0x000829b8:  f9000bf3  str      x19, [sp, #0x10]
0x000829bc:  aa0803f3  mov      x19, x8
0x000829c0:  b9002fe0  str      w0, [sp, #0x2c]
0x000829c4:  b9002be1  str      w1, [sp, #0x28]
0x000829c8:  b9402be0  ldr      w0, [sp, #0x28]
0x000829cc:  7100001f  cmp      w0, #0
0x000829d0:  540000c1  b.ne     #0x829e8

----------------
IN: 
0x000829e8:  b9402be0  ldr      w0, [sp, #0x28]
0x000829ec:  7100081f  cmp      w0, #2
0x000829f0:  540000c1  b.ne     #0x82a08

----------------
IN: 
0x00082a08:  b9802fe0  ldrsw    x0, [sp, #0x2c]
0x00082a0c:  aa1303e8  mov      x8, x19
0x00082a10:  52800402  mov      w2, #0x20
0x00082a14:  b9402be1  ldr      w1, [sp, #0x28]
0x00082a18:  94000083  bl       #0x82c24

----------------
IN: 
0x00082c24:  a9ba7bfd  stp      x29, x30, [sp, #-0x60]!
0x00082c28:  910003fd  mov      x29, sp
0x00082c2c:  f9000bf3  str      x19, [sp, #0x10]
0x00082c30:  aa0803f3  mov      x19, x8
0x00082c34:  f90017e0  str      x0, [sp, #0x28]
0x00082c38:  b90027e1  str      w1, [sp, #0x24]
0x00082c3c:  b90023e2  str      w2, [sp, #0x20]
0x00082c40:  b94027e0  ldr      w0, [sp, #0x24]
0x00082c44:  7100001f  cmp      w0, #0
0x00082c48:  540000c1  b.ne     #0x82c60

----------------
IN: 
0x00082c60:  b94027e0  ldr      w0, [sp, #0x24]
0x00082c64:  7100081f  cmp      w0, #2
0x00082c68:  540000c1  b.ne     #0x82c80

----------------
IN: 
0x00082c80:  b9005fff  str      wzr, [sp, #0x5c]
0x00082c84:  f94017e0  ldr      x0, [sp, #0x28]
0x00082c88:  d37ffc00  lsr      x0, x0, #0x3f
0x00082c8c:  39013fe0  strb     w0, [sp, #0x4f]
0x00082c90:  39413fe0  ldrb     w0, [sp, #0x4f]
0x00082c94:  7100001f  cmp      w0, #0
0x00082c98:  540000e0  b.eq     #0x82cb4

----------------
IN: 
0x00082cb4:  f94017e0  ldr      x0, [sp, #0x28]
0x00082cb8:  b9004be0  str      w0, [sp, #0x48]
0x00082cbc:  b9405fe0  ldr      w0, [sp, #0x5c]
0x00082cc0:  11000400  add      w0, w0, #1
0x00082cc4:  b9005fe0  str      w0, [sp, #0x5c]
0x00082cc8:  f94017e0  ldr      x0, [sp, #0x28]
0x00082ccc:  b203e7e1  mov      x1, #0x6666666666666666
0x00082cd0:  f28ccce1  movk     x1, #0x6667
0x00082cd4:  9b417c01  smulh    x1, x0, x1
0x00082cd8:  9342fc21  asr      x1, x1, #2
0x00082cdc:  937ffc00  asr      x0, x0, #0x3f
0x00082ce0:  cb000020  sub      x0, x1, x0
0x00082ce4:  f90017e0  str      x0, [sp, #0x28]
0x00082ce8:  f94017e0  ldr      x0, [sp, #0x28]
0x00082cec:  f100001f  cmp      x0, #0
0x00082cf0:  5400004d  b.le     #0x82cf8

----------------
IN: 
0x00082cf8:  9100e3e0  add      x0, sp, #0x38
0x00082cfc:  b9405fe1  ldr      w1, [sp, #0x5c]
0x00082d00:  97fffd24  bl       #0x82190

----------------
IN: 
0x00082190:  a9be7bfd  stp      x29, x30, [sp, #-0x20]!
0x00082194:  910003fd  mov      x29, sp
0x00082198:  f9000fe0  str      x0, [sp, #0x18]
0x0008219c:  b90017e1  str      w1, [sp, #0x14]
0x000821a0:  f9400fe0  ldr      x0, [sp, #0x18]
0x000821a4:  12800001  mov      w1, #-1
0x000821a8:  b9000801  str      w1, [x0, #8]
0x000821ac:  f9400fe0  ldr      x0, [sp, #0x18]
0x000821b0:  3900301f  strb     wzr, [x0, #0xc]
0x000821b4:  b94017e0  ldr      w0, [sp, #0x14]
0x000821b8:  97fffa0a  bl       #0x809e0

----------------
IN: 
0x000821bc:  aa0003e1  mov      x1, x0
0x000821c0:  f9400fe0  ldr      x0, [sp, #0x18]
0x000821c4:  f9000001  str      x1, [x0]
0x000821c8:  f9400fe0  ldr      x0, [sp, #0x18]
0x000821cc:  b94017e1  ldr      w1, [sp, #0x14]
0x000821d0:  b9000801  str      w1, [x0, #8]
0x000821d4:  f9400fe0  ldr      x0, [sp, #0x18]
0x000821d8:  52800021  mov      w1, #1
0x000821dc:  39003001  strb     w1, [x0, #0xc]
0x000821e0:  d503201f  nop      
0x000821e4:  a8c27bfd  ldp      x29, x30, [sp], #0x20
0x000821e8:  d65f03c0  ret      

----------------
IN: 
0x00082d04:  f9401fe1  ldr      x1, [sp, #0x38]
0x00082d08:  b9805fe0  ldrsw    x0, [sp, #0x5c]
0x00082d0c:  d1000400  sub      x0, x0, #1
0x00082d10:  8b000020  add      x0, x1, x0
0x00082d14:  f9002be0  str      x0, [sp, #0x50]
0x00082d18:  b9804be0  ldrsw    x0, [sp, #0x48]
0x00082d1c:  f90017e0  str      x0, [sp, #0x28]
0x00082d20:  f94017e1  ldr      x1, [sp, #0x28]
0x00082d24:  b203e7e0  mov      x0, #0x6666666666666666
0x00082d28:  f28ccce0  movk     x0, #0x6667
0x00082d2c:  9b407c20  smulh    x0, x1, x0
0x00082d30:  9342fc02  asr      x2, x0, #2
0x00082d34:  937ffc20  asr      x0, x1, #0x3f
0x00082d38:  cb000042  sub      x2, x2, x0
0x00082d3c:  aa0203e0  mov      x0, x2
0x00082d40:  d37ef400  lsl      x0, x0, #2
0x00082d44:  8b020000  add      x0, x0, x2
0x00082d48:  8b000000  add      x0, x0, x0
0x00082d4c:  cb000022  sub      x2, x1, x0
0x00082d50:  12001c40  and      w0, w2, #0xff
0x00082d54:  1100c000  add      w0, w0, #0x30
0x00082d58:  12001c01  and      w1, w0, #0xff
0x00082d5c:  f9402be0  ldr      x0, [sp, #0x50]
0x00082d60:  39000001  strb     w1, [x0]
0x00082d64:  f9402be0  ldr      x0, [sp, #0x50]
0x00082d68:  d1000400  sub      x0, x0, #1
0x00082d6c:  f9002be0  str      x0, [sp, #0x50]
0x00082d70:  f94017e0  ldr      x0, [sp, #0x28]
0x00082d74:  b203e7e1  mov      x1, #0x6666666666666666
0x00082d78:  f28ccce1  movk     x1, #0x6667
0x00082d7c:  9b417c01  smulh    x1, x0, x1
0x00082d80:  9342fc21  asr      x1, x1, #2
0x00082d84:  937ffc00  asr      x0, x0, #0x3f
0x00082d88:  cb000020  sub      x0, x1, x0
0x00082d8c:  f90017e0  str      x0, [sp, #0x28]
0x00082d90:  f94017e0  ldr      x0, [sp, #0x28]
0x00082d94:  f100001f  cmp      x0, #0
0x00082d98:  5400004d  b.le     #0x82da0

----------------
IN: 
0x00082da0:  39413fe0  ldrb     w0, [sp, #0x4f]
0x00082da4:  7100001f  cmp      w0, #0
0x00082da8:  54000080  b.eq     #0x82db8

----------------
IN: 
0x00082db8:  9100e3e0  add      x0, sp, #0x38
0x00082dbc:  aa0003e1  mov      x1, x0
0x00082dc0:  aa1303e0  mov      x0, x19
0x00082dc4:  97fffd0a  bl       #0x821ec

----------------
IN: 
0x000821ec:  a9bd7bfd  stp      x29, x30, [sp, #-0x30]!
0x000821f0:  910003fd  mov      x29, sp
0x000821f4:  f9000fe0  str      x0, [sp, #0x18]
0x000821f8:  f9000be1  str      x1, [sp, #0x10]
0x000821fc:  f9400fe0  ldr      x0, [sp, #0x18]
0x00082200:  12800001  mov      w1, #-1
0x00082204:  b9000801  str      w1, [x0, #8]
0x00082208:  f9400fe0  ldr      x0, [sp, #0x18]
0x0008220c:  3900301f  strb     wzr, [x0, #0xc]
0x00082210:  f9400be0  ldr      x0, [sp, #0x10]
0x00082214:  b9400800  ldr      w0, [x0, #8]
0x00082218:  3100041f  cmn      w0, #1
0x0008221c:  540000a1  b.ne     #0x82230

----------------
IN: 
0x00082230:  f9400be0  ldr      x0, [sp, #0x10]
0x00082234:  b9400800  ldr      w0, [x0, #8]
0x00082238:  b9002fe0  str      w0, [sp, #0x2c]
0x0008223c:  b9402fe0  ldr      w0, [sp, #0x2c]
0x00082240:  97fff9e8  bl       #0x809e0

----------------
IN: 
0x00082244:  aa0003e1  mov      x1, x0
0x00082248:  f9400fe0  ldr      x0, [sp, #0x18]
0x0008224c:  f9000001  str      x1, [x0]
0x00082250:  f9400fe0  ldr      x0, [sp, #0x18]
0x00082254:  b9402fe1  ldr      w1, [sp, #0x2c]
0x00082258:  b9000801  str      w1, [x0, #8]
0x0008225c:  f9400fe0  ldr      x0, [sp, #0x18]
0x00082260:  52800021  mov      w1, #1
0x00082264:  39003001  strb     w1, [x0, #0xc]
0x00082268:  f9400fe0  ldr      x0, [sp, #0x18]
0x0008226c:  f9400003  ldr      x3, [x0]
0x00082270:  f9400be0  ldr      x0, [sp, #0x10]
0x00082274:  f9400000  ldr      x0, [x0]
0x00082278:  b9802fe1  ldrsw    x1, [sp, #0x2c]
0x0008227c:  aa0103e2  mov      x2, x1
0x00082280:  aa0003e1  mov      x1, x0
0x00082284:  aa0303e0  mov      x0, x3
0x00082288:  97fffbf9  bl       #0x8126c

----------------
IN: 
0x0008228c:  d503201f  nop      
0x00082290:  a8c37bfd  ldp      x29, x30, [sp], #0x30
0x00082294:  d65f03c0  ret      

----------------
IN: 
0x00082dc8:  9100e3e0  add      x0, sp, #0x38
0x00082dcc:  97fffce4  bl       #0x8215c

----------------
IN: 
0x00082178:  f9400fe0  ldr      x0, [sp, #0x18]
0x0008217c:  f9400000  ldr      x0, [x0]
0x00082180:  97fffaec  bl       #0x80d30

----------------
IN: 
0x00080d30:  d10083ff  sub      sp, sp, #0x20
0x00080d34:  f90007e0  str      x0, [sp, #8]
0x00080d38:  f94007e0  ldr      x0, [sp, #8]
0x00080d3c:  d1004000  sub      x0, x0, #0x10
0x00080d40:  f9000fe0  str      x0, [sp, #0x18]
0x00080d44:  f9400fe0  ldr      x0, [sp, #0x18]
0x00080d48:  b900041f  str      wzr, [x0, #4]
0x00080d4c:  d503201f  nop      
0x00080d50:  910083ff  add      sp, sp, #0x20
0x00080d54:  d65f03c0  ret      

----------------
IN: 
0x00082dd0:  aa1303e0  mov      x0, x19
0x00082dd4:  f9400bf3  ldr      x19, [sp, #0x10]
0x00082dd8:  a8c67bfd  ldp      x29, x30, [sp], #0x60
0x00082ddc:  d65f03c0  ret      

----------------
IN: 
0x00082a1c:  aa1303e0  mov      x0, x19
0x00082a20:  f9400bf3  ldr      x19, [sp, #0x10]
0x00082a24:  a8c37bfd  ldp      x29, x30, [sp], #0x30
0x00082a28:  d65f03c0  ret      

----------------
IN: 
0x00081c08:  9111e3e0  add      x0, sp, #0x478
0x00081c0c:  94000219  bl       #0x82470

----------------
IN: 
0x00082470:  a9be7bfd  stp      x29, x30, [sp, #-0x20]!
0x00082474:  910003fd  mov      x29, sp
0x00082478:  f9000fe0  str      x0, [sp, #0x18]
0x0008247c:  f9400fe0  ldr      x0, [sp, #0x18]
0x00082480:  b9400800  ldr      w0, [x0, #8]
0x00082484:  3100041f  cmn      w0, #1
0x00082488:  540000e1  b.ne     #0x824a4

----------------
IN: 
0x000824a4:  f9400fe0  ldr      x0, [sp, #0x18]
0x000824a8:  b9400800  ldr      w0, [x0, #8]
0x000824ac:  a8c27bfd  ldp      x29, x30, [sp], #0x20
0x000824b0:  d65f03c0  ret      

----------------
IN: 
0x00081c10:  7100041f  cmp      w0, #1
0x00081c14:  1a9fc7e0  cset     w0, le
0x00081c18:  12001c00  and      w0, w0, #0xff
0x00081c1c:  7100001f  cmp      w0, #0
0x00081c20:  54000340  b.eq     #0x81c88

----------------
IN: 
0x00081c24:  9114a3e2  add      x2, sp, #0x528
0x00081c28:  f0000040  adrp     x0, #0x8c000
0x00081c2c:  91018001  add      x1, x0, #0x60
0x00081c30:  aa0203e0  mov      x0, x2
0x00081c34:  940001b5  bl       #0x82308

----------------
IN: 
0x00081c38:  9111e3e1  add      x1, sp, #0x478
0x00081c3c:  9114e3e0  add      x0, sp, #0x538
0x00081c40:  9400016b  bl       #0x821ec

----------------
IN: 
0x00081c44:  9114e3e1  add      x1, sp, #0x538
0x00081c48:  9114a3e0  add      x0, sp, #0x528
0x00081c4c:  911463e2  add      x2, sp, #0x518
0x00081c50:  aa0203e8  mov      x8, x2
0x00081c54:  940001dc  bl       #0x823c4

----------------
IN: 
0x000823c4:  a9bc7bfd  stp      x29, x30, [sp, #-0x40]!
0x000823c8:  910003fd  mov      x29, sp
0x000823cc:  f9000bf3  str      x19, [sp, #0x10]
0x000823d0:  aa0803f3  mov      x19, x8
0x000823d4:  f90017e0  str      x0, [sp, #0x28]
0x000823d8:  f90013e1  str      x1, [sp, #0x20]
0x000823dc:  f94017e0  ldr      x0, [sp, #0x28]
0x000823e0:  94000024  bl       #0x82470

----------------
IN: 
0x0008248c:  f9400fe0  ldr      x0, [sp, #0x18]
0x00082490:  f9400000  ldr      x0, [x0]
0x00082494:  97ffff21  bl       #0x82118

----------------
IN: 
0x00082118:  d10083ff  sub      sp, sp, #0x20
0x0008211c:  f90007e0  str      x0, [sp, #8]
0x00082120:  b9001fff  str      wzr, [sp, #0x1c]
0x00082124:  f94007e0  ldr      x0, [sp, #8]
0x00082128:  39400000  ldrb     w0, [x0]
0x0008212c:  7100001f  cmp      w0, #0
0x00082130:  54000100  b.eq     #0x82150

----------------
IN: 
0x00082134:  f94007e0  ldr      x0, [sp, #8]
0x00082138:  91000400  add      x0, x0, #1
0x0008213c:  f90007e0  str      x0, [sp, #8]
0x00082140:  b9401fe0  ldr      w0, [sp, #0x1c]
0x00082144:  11000400  add      w0, w0, #1
0x00082148:  b9001fe0  str      w0, [sp, #0x1c]
0x0008214c:  17fffff6  b        #0x82124

----------------
IN: 
0x00082124:  f94007e0  ldr      x0, [sp, #8]
0x00082128:  39400000  ldrb     w0, [x0]
0x0008212c:  7100001f  cmp      w0, #0
0x00082130:  54000100  b.eq     #0x82150

----------------
IN: 
0x00082150:  b9401fe0  ldr      w0, [sp, #0x1c]
0x00082154:  910083ff  add      sp, sp, #0x20
0x00082158:  d65f03c0  ret      

----------------
IN: 
0x00082498:  2a0003e1  mov      w1, w0
0x0008249c:  f9400fe0  ldr      x0, [sp, #0x18]
0x000824a0:  b9000801  str      w1, [x0, #8]
0x000824a4:  f9400fe0  ldr      x0, [sp, #0x18]
0x000824a8:  b9400800  ldr      w0, [x0, #8]
0x000824ac:  a8c27bfd  ldp      x29, x30, [sp], #0x20
0x000824b0:  d65f03c0  ret      

----------------
IN: 
0x000823e4:  b9003fe0  str      w0, [sp, #0x3c]
0x000823e8:  f94013e0  ldr      x0, [sp, #0x20]
0x000823ec:  94000021  bl       #0x82470

----------------
IN: 
0x000823f0:  b9003be0  str      w0, [sp, #0x38]
0x000823f4:  b9403fe1  ldr      w1, [sp, #0x3c]
0x000823f8:  b9403be0  ldr      w0, [sp, #0x38]
0x000823fc:  0b000020  add      w0, w1, w0

----------------
IN: 
0x00082400:  2a0003e1  mov      w1, w0
0x00082404:  aa1303e0  mov      x0, x19
0x00082408:  97ffff62  bl       #0x82190

----------------
IN: 
0x0008240c:  f9400260  ldr      x0, [x19]
0x00082410:  f9001be0  str      x0, [sp, #0x30]
0x00082414:  f94017e0  ldr      x0, [sp, #0x28]
0x00082418:  f9400000  ldr      x0, [x0]
0x0008241c:  b9803fe1  ldrsw    x1, [sp, #0x3c]
0x00082420:  aa0103e2  mov      x2, x1
0x00082424:  aa0003e1  mov      x1, x0
0x00082428:  f9401be0  ldr      x0, [sp, #0x30]
0x0008242c:  97fffb90  bl       #0x8126c

----------------
IN: 
0x00082430:  b9803fe0  ldrsw    x0, [sp, #0x3c]
0x00082434:  f9401be1  ldr      x1, [sp, #0x30]
0x00082438:  8b000020  add      x0, x1, x0
0x0008243c:  f9001be0  str      x0, [sp, #0x30]
0x00082440:  f94013e0  ldr      x0, [sp, #0x20]
0x00082444:  f9400000  ldr      x0, [x0]
0x00082448:  b9803be1  ldrsw    x1, [sp, #0x38]
0x0008244c:  aa0103e2  mov      x2, x1
0x00082450:  aa0003e1  mov      x1, x0
0x00082454:  f9401be0  ldr      x0, [sp, #0x30]
0x00082458:  97fffb85  bl       #0x8126c

----------------
IN: 
0x0008245c:  d503201f  nop      
0x00082460:  aa1303e0  mov      x0, x19
0x00082464:  f9400bf3  ldr      x19, [sp, #0x10]
0x00082468:  a8c47bfd  ldp      x29, x30, [sp], #0x40
0x0008246c:  d65f03c0  ret      

----------------
IN: 
0x00081c58:  9111e3e0  add      x0, sp, #0x478
0x00081c5c:  911463e1  add      x1, sp, #0x518
0x00081c60:  f9400022  ldr      x2, [x1]
0x00081c64:  f9000002  str      x2, [x0]
0x00081c68:  f8405021  ldur     x1, [x1, #5]
0x00081c6c:  f8005001  stur     x1, [x0, #5]
0x00081c70:  911463e0  add      x0, sp, #0x518
0x00081c74:  9400013a  bl       #0x8215c

----------------
IN: 
0x00081c78:  9114e3e0  add      x0, sp, #0x538
0x00081c7c:  94000138  bl       #0x8215c

----------------
IN: 
0x00081c80:  9114a3e0  add      x0, sp, #0x528
0x00081c84:  94000136  bl       #0x8215c

----------------
IN: 
0x00081c88:  911223e0  add      x0, sp, #0x488
0x00081c8c:  94000563  bl       #0x83218

----------------
IN: 
0x00083218:  a9bc7bfd  stp      x29, x30, [sp, #-0x40]!
0x0008321c:  910003fd  mov      x29, sp
0x00083220:  f9000fe0  str      x0, [sp, #0x18]
0x00083224:  910083e0  add      x0, sp, #0x20
0x00083228:  52800062  mov      w2, #3
0x0008322c:  d281c201  mov      x1, #0xe10
0x00083230:  97ffff64  bl       #0x82fc0

----------------
IN: 
0x00083234:  f94013e0  ldr      x0, [sp, #0x20]
0x00083238:  f9001fe0  str      x0, [sp, #0x38]
0x0008323c:  9100a3e0  add      x0, sp, #0x28
0x00083240:  52800062  mov      w2, #3
0x00083244:  d2800781  mov      x1, #0x3c
0x00083248:  97ffff5e  bl       #0x82fc0

----------------
IN: 
0x0008324c:  f94017e0  ldr      x0, [sp, #0x28]
0x00083250:  f9001be0  str      x0, [sp, #0x30]
0x00083254:  f9400fe0  ldr      x0, [sp, #0x18]
0x00083258:  f9400000  ldr      x0, [x0]
0x0008325c:  f9401fe1  ldr      x1, [sp, #0x38]
0x00083260:  9ac10802  udiv     x2, x0, x1
0x00083264:  9b017c41  mul      x1, x2, x1
0x00083268:  cb010001  sub      x1, x0, x1
0x0008326c:  f9401be0  ldr      x0, [sp, #0x30]
0x00083270:  9ac00820  udiv     x0, x1, x0
0x00083274:  a8c47bfd  ldp      x29, x30, [sp], #0x40
0x00083278:  d65f03c0  ret      

----------------
IN: 
0x00081c90:  2a0003e2  mov      w2, w0
0x00081c94:  9111a3e0  add      x0, sp, #0x468
0x00081c98:  aa0003e8  mov      x8, x0
0x00081c9c:  52800021  mov      w1, #1
0x00081ca0:  2a0203e0  mov      w0, w2
0x00081ca4:  94000343  bl       #0x829b0

----------------
IN: 
0x00081ca8:  9111a3e0  add      x0, sp, #0x468
0x00081cac:  940001f1  bl       #0x82470

----------------
IN: 
0x00081cb0:  7100041f  cmp      w0, #1
0x00081cb4:  1a9fc7e0  cset     w0, le
0x00081cb8:  12001c00  and      w0, w0, #0xff
0x00081cbc:  7100001f  cmp      w0, #0
0x00081cc0:  54000340  b.eq     #0x81d28

----------------
IN: 
0x00081cc4:  911563e2  add      x2, sp, #0x558
0x00081cc8:  f0000040  adrp     x0, #0x8c000
0x00081ccc:  91018001  add      x1, x0, #0x60
0x00081cd0:  aa0203e0  mov      x0, x2
0x00081cd4:  9400018d  bl       #0x82308

----------------
IN: 
0x00081cd8:  9111a3e1  add      x1, sp, #0x468
0x00081cdc:  9115a3e0  add      x0, sp, #0x568
0x00081ce0:  94000143  bl       #0x821ec

----------------
IN: 
0x00081ce4:  9115a3e1  add      x1, sp, #0x568
0x00081ce8:  911563e0  add      x0, sp, #0x558
0x00081cec:  911523e2  add      x2, sp, #0x548
0x00081cf0:  aa0203e8  mov      x8, x2
0x00081cf4:  940001b4  bl       #0x823c4

----------------
IN: 
0x00081cf8:  9111a3e0  add      x0, sp, #0x468
0x00081cfc:  911523e1  add      x1, sp, #0x548
0x00081d00:  f9400022  ldr      x2, [x1]
0x00081d04:  f9000002  str      x2, [x0]
0x00081d08:  f8405021  ldur     x1, [x1, #5]
0x00081d0c:  f8005001  stur     x1, [x0, #5]
0x00081d10:  911523e0  add      x0, sp, #0x548
0x00081d14:  94000112  bl       #0x8215c

----------------
IN: 
0x00081d18:  9115a3e0  add      x0, sp, #0x568
0x00081d1c:  94000110  bl       #0x8215c

----------------
IN: 
0x00081d20:  911563e0  add      x0, sp, #0x558
0x00081d24:  9400010e  bl       #0x8215c

----------------
IN: 
0x00081d28:  911223e0  add      x0, sp, #0x488
0x00081d2c:  9400050f  bl       #0x83168

----------------
IN: 
0x00083168:  a9bc7bfd  stp      x29, x30, [sp, #-0x40]!
0x0008316c:  910003fd  mov      x29, sp
0x00083170:  f9000fe0  str      x0, [sp, #0x18]
0x00083174:  910083e0  add      x0, sp, #0x20
0x00083178:  52800062  mov      w2, #3
0x0008317c:  d2800781  mov      x1, #0x3c
0x00083180:  97ffff90  bl       #0x82fc0

----------------
IN: 
0x00083184:  f94013e0  ldr      x0, [sp, #0x20]
0x00083188:  f9001fe0  str      x0, [sp, #0x38]
0x0008318c:  9100a3e0  add      x0, sp, #0x28
0x00083190:  52800062  mov      w2, #3
0x00083194:  d2800021  mov      x1, #1
0x00083198:  97ffff8a  bl       #0x82fc0

----------------
IN: 
0x0008319c:  f94017e0  ldr      x0, [sp, #0x28]
0x000831a0:  f9001be0  str      x0, [sp, #0x30]
0x000831a4:  f9400fe0  ldr      x0, [sp, #0x18]
0x000831a8:  f9400000  ldr      x0, [x0]
0x000831ac:  f9401fe1  ldr      x1, [sp, #0x38]
0x000831b0:  9ac10802  udiv     x2, x0, x1
0x000831b4:  9b017c41  mul      x1, x2, x1
0x000831b8:  cb010001  sub      x1, x0, x1
0x000831bc:  f9401be0  ldr      x0, [sp, #0x30]
0x000831c0:  9ac00820  udiv     x0, x1, x0
0x000831c4:  a8c47bfd  ldp      x29, x30, [sp], #0x40
0x000831c8:  d65f03c0  ret      

----------------
IN: 
0x00081d30:  2a0003e2  mov      w2, w0
0x00081d34:  911163e0  add      x0, sp, #0x458
0x00081d38:  aa0003e8  mov      x8, x0
0x00081d3c:  52800021  mov      w1, #1
0x00081d40:  2a0203e0  mov      w0, w2
0x00081d44:  9400031b  bl       #0x829b0

----------------
IN: 
0x00081d48:  911163e0  add      x0, sp, #0x458
0x00081d4c:  940001c9  bl       #0x82470

----------------
IN: 
0x00081d50:  7100041f  cmp      w0, #1
0x00081d54:  1a9fc7e0  cset     w0, le
0x00081d58:  12001c00  and      w0, w0, #0xff
0x00081d5c:  7100001f  cmp      w0, #0
0x00081d60:  54000340  b.eq     #0x81dc8

----------------
IN: 
0x00081d64:  911623e2  add      x2, sp, #0x588
0x00081d68:  f0000040  adrp     x0, #0x8c000
0x00081d6c:  91018001  add      x1, x0, #0x60
0x00081d70:  aa0203e0  mov      x0, x2
0x00081d74:  94000165  bl       #0x82308

----------------
IN: 
0x00081d78:  911163e1  add      x1, sp, #0x458
0x00081d7c:  911663e0  add      x0, sp, #0x598
0x00081d80:  9400011b  bl       #0x821ec

----------------
IN: 
0x00081d84:  911663e1  add      x1, sp, #0x598
0x00081d88:  911623e0  add      x0, sp, #0x588
0x00081d8c:  9115e3e2  add      x2, sp, #0x578
0x00081d90:  aa0203e8  mov      x8, x2
0x00081d94:  9400018c  bl       #0x823c4

----------------
IN: 
0x00081d98:  911163e0  add      x0, sp, #0x458
0x00081d9c:  9115e3e1  add      x1, sp, #0x578
0x00081da0:  f9400022  ldr      x2, [x1]
0x00081da4:  f9000002  str      x2, [x0]
0x00081da8:  f8405021  ldur     x1, [x1, #5]
0x00081dac:  f8005001  stur     x1, [x0, #5]
0x00081db0:  9115e3e0  add      x0, sp, #0x578
0x00081db4:  940000ea  bl       #0x8215c

----------------
IN: 
0x00081db8:  911663e0  add      x0, sp, #0x598
0x00081dbc:  940000e8  bl       #0x8215c

----------------
IN: 
0x00081dc0:  911623e0  add      x0, sp, #0x588
0x00081dc4:  940000e6  bl       #0x8215c

----------------
IN: 
0x00081dc8:  911763e2  add      x2, sp, #0x5d8
0x00081dcc:  f0000040  adrp     x0, #0x8c000
0x00081dd0:  9101a001  add      x1, x0, #0x68
0x00081dd4:  aa0203e0  mov      x0, x2
0x00081dd8:  9400014c  bl       #0x82308

----------------
IN: 
0x00081ddc:  911763e1  add      x1, sp, #0x5d8
0x00081de0:  9111e3e0  add      x0, sp, #0x478
0x00081de4:  911723e2  add      x2, sp, #0x5c8
0x00081de8:  aa0203e8  mov      x8, x2
0x00081dec:  94000176  bl       #0x823c4

----------------
IN: 
0x00081df0:  9111a3e1  add      x1, sp, #0x468
0x00081df4:  9117a3e0  add      x0, sp, #0x5e8
0x00081df8:  940000fd  bl       #0x821ec

----------------
IN: 
0x00081dfc:  9117a3e1  add      x1, sp, #0x5e8
0x00081e00:  911723e0  add      x0, sp, #0x5c8
0x00081e04:  9116e3e2  add      x2, sp, #0x5b8
0x00081e08:  aa0203e8  mov      x8, x2
0x00081e0c:  9400016e  bl       #0x823c4

----------------
IN: 
0x00081e10:  9117e3e2  add      x2, sp, #0x5f8
0x00081e14:  f0000040  adrp     x0, #0x8c000
0x00081e18:  9101a001  add      x1, x0, #0x68
0x00081e1c:  aa0203e0  mov      x0, x2
0x00081e20:  9400013a  bl       #0x82308

----------------
IN: 
0x00081e24:  9117e3e1  add      x1, sp, #0x5f8
0x00081e28:  9116e3e0  add      x0, sp, #0x5b8
0x00081e2c:  9116a3e2  add      x2, sp, #0x5a8
0x00081e30:  aa0203e8  mov      x8, x2
0x00081e34:  94000164  bl       #0x823c4

----------------
IN: 
0x00081e38:  911163e1  add      x1, sp, #0x458
0x00081e3c:  911823e0  add      x0, sp, #0x608
0x00081e40:  940000eb  bl       #0x821ec

----------------
IN: 
0x00081e44:  911823e1  add      x1, sp, #0x608
0x00081e48:  9116a3e0  add      x0, sp, #0x5a8
0x00081e4c:  911123e2  add      x2, sp, #0x448
0x00081e50:  aa0203e8  mov      x8, x2
0x00081e54:  9400015c  bl       #0x823c4

----------------
IN: 
0x00081e58:  911823e0  add      x0, sp, #0x608
0x00081e5c:  940000c0  bl       #0x8215c

----------------
IN: 
0x00081e60:  9116a3e0  add      x0, sp, #0x5a8
0x00081e64:  940000be  bl       #0x8215c

----------------
IN: 
0x00081e68:  9117e3e0  add      x0, sp, #0x5f8
0x00081e6c:  940000bc  bl       #0x8215c

----------------
IN: 
0x00081e70:  9116e3e0  add      x0, sp, #0x5b8
0x00081e74:  940000ba  bl       #0x8215c

----------------
IN: 
0x00081e78:  9117a3e0  add      x0, sp, #0x5e8
0x00081e7c:  940000b8  bl       #0x8215c

----------------
IN: 
0x00081e80:  911723e0  add      x0, sp, #0x5c8
0x00081e84:  940000b6  bl       #0x8215c

----------------
IN: 
0x00081e88:  911763e0  add      x0, sp, #0x5d8
0x00081e8c:  940000b4  bl       #0x8215c

----------------
IN: 
0x00081e90:  910103e0  add      x0, sp, #0x40
0x00081e94:  aa0003e8  mov      x8, x0
0x00081e98:  94000ced  bl       #0x8524c

----------------
IN: 
0x0008524c:  a9bf7bfd  stp      x29, x30, [sp, #-0x10]!
0x00085250:  910003fd  mov      x29, sp
0x00085254:  aa0803e1  mov      x1, x8
0x00085258:  f0000080  adrp     x0, #0x98000
0x0008525c:  91254000  add      x0, x0, #0x950
0x00085260:  aa0103e3  mov      x3, x1
0x00085264:  aa0003e1  mov      x1, x0
0x00085268:  d2808100  mov      x0, #0x408
0x0008526c:  aa0003e2  mov      x2, x0
0x00085270:  aa0303e0  mov      x0, x3
0x00085274:  97ffeffe  bl       #0x8126c

----------------
IN: 
0x00085278:  a8c17bfd  ldp      x29, x30, [sp], #0x10
0x0008527c:  d65f03c0  ret      

----------------
IN: 
0x00081e9c:  911863e0  add      x0, sp, #0x618
0x00081ea0:  52800182  mov      w2, #0xc
0x00081ea4:  528000e1  mov      w1, #7
0x00081ea8:  940005d6  bl       #0x83600

----------------
IN: 
0x00083600:  d10043ff  sub      sp, sp, #0x10
0x00083604:  f90007e0  str      x0, [sp, #8]
0x00083608:  b90007e1  str      w1, [sp, #4]
0x0008360c:  b90003e2  str      w2, [sp]
0x00083610:  f94007e0  ldr      x0, [sp, #8]
0x00083614:  b94007e1  ldr      w1, [sp, #4]
0x00083618:  b9000001  str      w1, [x0]
0x0008361c:  f94007e0  ldr      x0, [sp, #8]
0x00083620:  b94003e1  ldr      w1, [sp]
0x00083624:  b9000401  str      w1, [x0, #4]
0x00083628:  d503201f  nop      
0x0008362c:  910043ff  add      sp, sp, #0x10
0x00083630:  d65f03c0  ret      

----------------
IN: 
0x00081eac:  911123e1  add      x1, sp, #0x448
0x00081eb0:  911883e0  add      x0, sp, #0x620
0x00081eb4:  940000ce  bl       #0x821ec

----------------
IN: 
0x00081eb8:  9118c3e0  add      x0, sp, #0x630
0x00081ebc:  52800003  mov      w3, #0
0x00081ec0:  52800002  mov      w2, #0
0x00081ec4:  52800001  mov      w1, #0
0x00081ec8:  94000613  bl       #0x83714

----------------
IN: 
0x00081ecc:  911883e1  add      x1, sp, #0x620
0x00081ed0:  910103e0  add      x0, sp, #0x40
0x00081ed4:  b94633e4  ldr      w4, [sp, #0x630]
0x00081ed8:  aa0103e3  mov      x3, x1
0x00081edc:  f9430fe2  ldr      x2, [sp, #0x618]
0x00081ee0:  aa0003e1  mov      x1, x0
0x00081ee4:  aa1303e0  mov      x0, x19
0x00081ee8:  940007ab  bl       #0x83d94

----------------
IN: 
0x00083d94:  a9b97bfd  stp      x29, x30, [sp, #-0x70]!
0x00083d98:  910003fd  mov      x29, sp
0x00083d9c:  f9001fe0  str      x0, [sp, #0x38]
0x00083da0:  f9001be1  str      x1, [sp, #0x30]
0x00083da4:  f90017e2  str      x2, [sp, #0x28]
0x00083da8:  f90013e3  str      x3, [sp, #0x20]
0x00083dac:  b9001be4  str      w4, [sp, #0x18]
0x00083db0:  b9402be0  ldr      w0, [sp, #0x28]
0x00083db4:  b9006fe0  str      w0, [sp, #0x6c]
0x00083db8:  b9402fe0  ldr      w0, [sp, #0x2c]
0x00083dbc:  b9006be0  str      w0, [sp, #0x68]
0x00083dc0:  f94013e0  ldr      x0, [sp, #0x20]
0x00083dc4:  97fff9ab  bl       #0x82470

----------------
IN: 
0x00083dc8:  b90067e0  str      w0, [sp, #0x64]
0x00083dcc:  f94013e0  ldr      x0, [sp, #0x20]
0x00083dd0:  f9400000  ldr      x0, [x0]
0x00083dd4:  f9002fe0  str      x0, [sp, #0x58]
0x00083dd8:  b94067e0  ldr      w0, [sp, #0x64]
0x00083ddc:  7100001f  cmp      w0, #0
0x00083de0:  540006ed  b.le     #0x83ebc

----------------
IN: 
0x00083de4:  f9402fe0  ldr      x0, [sp, #0x58]
0x00083de8:  39400000  ldrb     w0, [x0]
0x00083dec:  39015fe0  strb     w0, [sp, #0x57]
0x00083df0:  39415fe0  ldrb     w0, [sp, #0x57]
0x00083df4:  7100281f  cmp      w0, #0xa
0x00083df8:  54000121  b.ne     #0x83e1c

----------------
IN: 
0x00083e1c:  39415fe1  ldrb     w1, [sp, #0x57]
0x00083e20:  f9401be0  ldr      x0, [sp, #0x30]
0x00083e24:  97fffdad  bl       #0x834d8

----------------
IN: 
0x000834d8:  d10043ff  sub      sp, sp, #0x10
0x000834dc:  f90007e0  str      x0, [sp, #8]
0x000834e0:  39001fe1  strb     w1, [sp, #7]
0x000834e4:  39401fe1  ldrb     w1, [sp, #7]
0x000834e8:  f94007e0  ldr      x0, [sp, #8]
0x000834ec:  f9400000  ldr      x0, [x0]
0x000834f0:  b9401000  ldr      w0, [x0, #0x10]
0x000834f4:  6b00003f  cmp      w1, w0
0x000834f8:  54000162  b.hs     #0x83524

----------------
IN: 
0x000834fc:  39401fe0  ldrb     w0, [sp, #7]
0x00083500:  f94007e1  ldr      x1, [sp, #8]
0x00083504:  93407c00  sxtw     x0, w0
0x00083508:  d37df000  lsl      x0, x0, #3
0x0008350c:  8b000020  add      x0, x1, x0
0x00083510:  f9400400  ldr      x0, [x0, #8]
0x00083514:  f100001f  cmp      x0, #0
0x00083518:  54000060  b.eq     #0x83524

----------------
IN: 
0x0008351c:  52800020  mov      w0, #1
0x00083520:  14000002  b        #0x83528

----------------
IN: 
0x00083528:  910043ff  add      sp, sp, #0x10
0x0008352c:  d65f03c0  ret      

----------------
IN: 
0x00083e28:  12001c00  and      w0, w0, #0xff
0x00083e2c:  7100001f  cmp      w0, #0
0x00083e30:  54000180  b.eq     #0x83e60

----------------
IN: 
0x00083e34:  910103e0  add      x0, sp, #0x40
0x00083e38:  b9406be2  ldr      w2, [sp, #0x68]
0x00083e3c:  b9406fe1  ldr      w1, [sp, #0x6c]
0x00083e40:  97fffdf0  bl       #0x83600

----------------
IN: 
0x00083e44:  b9401be4  ldr      w4, [sp, #0x18]
0x00083e48:  39415fe3  ldrb     w3, [sp, #0x57]
0x00083e4c:  f94023e2  ldr      x2, [sp, #0x40]
0x00083e50:  f9401be1  ldr      x1, [sp, #0x30]
0x00083e54:  f9401fe0  ldr      x0, [sp, #0x38]
0x00083e58:  97ffff66  bl       #0x83bf0

----------------
IN: 
0x00083bf0:  a9ba7bfd  stp      x29, x30, [sp, #-0x60]!
0x00083bf4:  910003fd  mov      x29, sp
0x00083bf8:  f90017e0  str      x0, [sp, #0x28]
0x00083bfc:  f90013e1  str      x1, [sp, #0x20]

----------------
IN: 
0x00083c00:  f9000fe2  str      x2, [sp, #0x18]
0x00083c04:  39005fe3  strb     w3, [sp, #0x17]
0x00083c08:  b90013e4  str      w4, [sp, #0x10]
0x00083c0c:  f94017e0  ldr      x0, [sp, #0x28]
0x00083c10:  97ffff81  bl       #0x83a14

----------------
IN: 
0x00083c14:  aa0003e2  mov      x2, x0
0x00083c18:  b9401fe1  ldr      w1, [sp, #0x1c]
0x00083c1c:  f94017e0  ldr      x0, [sp, #0x28]
0x00083c20:  b9400800  ldr      w0, [x0, #8]
0x00083c24:  1b007c21  mul      w1, w1, w0
0x00083c28:  b9401be0  ldr      w0, [sp, #0x18]
0x00083c2c:  0b000020  add      w0, w1, w0
0x00083c30:  93407c00  sxtw     x0, w0
0x00083c34:  d37ef400  lsl      x0, x0, #2
0x00083c38:  8b000040  add      x0, x2, x0
0x00083c3c:  f9002fe0  str      x0, [sp, #0x58]
0x00083c40:  39405fe1  ldrb     w1, [sp, #0x17]
0x00083c44:  f94013e0  ldr      x0, [sp, #0x20]
0x00083c48:  97fffe3a  bl       #0x83530

----------------
IN: 
0x00083530:  d10043ff  sub      sp, sp, #0x10
0x00083534:  f90007e0  str      x0, [sp, #8]
0x00083538:  39001fe1  strb     w1, [sp, #7]
0x0008353c:  39401fe1  ldrb     w1, [sp, #7]
0x00083540:  f94007e0  ldr      x0, [sp, #8]
0x00083544:  f9400000  ldr      x0, [x0]
0x00083548:  b9401000  ldr      w0, [x0, #0x10]
0x0008354c:  6b00003f  cmp      w1, w0
0x00083550:  54000063  b.lo     #0x8355c

----------------
IN: 
0x0008355c:  39401fe0  ldrb     w0, [sp, #7]
0x00083560:  f94007e1  ldr      x1, [sp, #8]
0x00083564:  93407c00  sxtw     x0, w0
0x00083568:  d37df000  lsl      x0, x0, #3
0x0008356c:  8b000020  add      x0, x1, x0
0x00083570:  f9400400  ldr      x0, [x0, #8]
0x00083574:  910043ff  add      sp, sp, #0x10
0x00083578:  d65f03c0  ret      

----------------
IN: 
0x00083c4c:  f9002be0  str      x0, [sp, #0x50]
0x00083c50:  f9402be0  ldr      x0, [sp, #0x50]
0x00083c54:  39400000  ldrb     w0, [x0]
0x00083c58:  39013fe0  strb     w0, [sp, #0x4f]
0x00083c5c:  52800100  mov      w0, #8
0x00083c60:  b9004be0  str      w0, [sp, #0x48]
0x00083c64:  b90047ff  str      wzr, [sp, #0x44]
0x00083c68:  f94013e0  ldr      x0, [sp, #0x20]
0x00083c6c:  f9400000  ldr      x0, [x0]
0x00083c70:  b9401800  ldr      w0, [x0, #0x18]
0x00083c74:  b94047e1  ldr      w1, [sp, #0x44]
0x00083c78:  6b00003f  cmp      w1, w0
0x00083c7c:  54000862  b.hs     #0x83d88

----------------
IN: 
0x00083c80:  b90043ff  str      wzr, [sp, #0x40]
0x00083c84:  f94013e0  ldr      x0, [sp, #0x20]
0x00083c88:  f9400000  ldr      x0, [x0]
0x00083c8c:  b9401c00  ldr      w0, [x0, #0x1c]
0x00083c90:  b94043e1  ldr      w1, [sp, #0x40]
0x00083c94:  6b00003f  cmp      w1, w0
0x00083c98:  54000482  b.hs     #0x83d28

----------------
IN: 
0x00083c9c:  b9404be0  ldr      w0, [sp, #0x48]
0x00083ca0:  7100001f  cmp      w0, #0
0x00083ca4:  54000121  b.ne     #0x83cc8

----------------
IN: 
0x00083cc8:  b94043e0  ldr      w0, [sp, #0x40]
0x00083ccc:  2a2003e0  mvn      w0, w0
0x00083cd0:  12000800  and      w0, w0, #7
0x00083cd4:  52800021  mov      w1, #1
0x00083cd8:  1ac02020  lsl      w0, w1, w0
0x00083cdc:  b9003fe0  str      w0, [sp, #0x3c]
0x00083ce0:  39413fe1  ldrb     w1, [sp, #0x4f]
0x00083ce4:  b9403fe0  ldr      w0, [sp, #0x3c]
0x00083ce8:  0a000020  and      w0, w1, w0
0x00083cec:  7100001f  cmp      w0, #0
0x00083cf0:  54000080  b.eq     #0x83d00

----------------
IN: 
0x00083d00:  b9404be0  ldr      w0, [sp, #0x48]
0x00083d04:  51000400  sub      w0, w0, #1
0x00083d08:  b9004be0  str      w0, [sp, #0x48]
0x00083d0c:  f9402fe0  ldr      x0, [sp, #0x58]
0x00083d10:  91001000  add      x0, x0, #4
0x00083d14:  f9002fe0  str      x0, [sp, #0x58]
0x00083d18:  b94043e0  ldr      w0, [sp, #0x40]
0x00083d1c:  11000400  add      w0, w0, #1
0x00083d20:  b90043e0  str      w0, [sp, #0x40]
0x00083d24:  17ffffd8  b        #0x83c84

----------------
IN: 
0x00083c84:  f94013e0  ldr      x0, [sp, #0x20]
0x00083c88:  f9400000  ldr      x0, [x0]
0x00083c8c:  b9401c00  ldr      w0, [x0, #0x1c]
0x00083c90:  b94043e1  ldr      w1, [sp, #0x40]
0x00083c94:  6b00003f  cmp      w1, w0
0x00083c98:  54000482  b.hs     #0x83d28

----------------
IN: 
0x00083ca8:  f9402be0  ldr      x0, [sp, #0x50]
0x00083cac:  91000400  add      x0, x0, #1
0x00083cb0:  f9002be0  str      x0, [sp, #0x50]
0x00083cb4:  f9402be0  ldr      x0, [sp, #0x50]
0x00083cb8:  39400000  ldrb     w0, [x0]
0x00083cbc:  39013fe0  strb     w0, [sp, #0x4f]
0x00083cc0:  52800100  mov      w0, #8
0x00083cc4:  b9004be0  str      w0, [sp, #0x48]
0x00083cc8:  b94043e0  ldr      w0, [sp, #0x40]
0x00083ccc:  2a2003e0  mvn      w0, w0
0x00083cd0:  12000800  and      w0, w0, #7
0x00083cd4:  52800021  mov      w1, #1
0x00083cd8:  1ac02020  lsl      w0, w1, w0
0x00083cdc:  b9003fe0  str      w0, [sp, #0x3c]
0x00083ce0:  39413fe1  ldrb     w1, [sp, #0x4f]
0x00083ce4:  b9403fe0  ldr      w0, [sp, #0x3c]
0x00083ce8:  0a000020  and      w0, w1, w0
0x00083cec:  7100001f  cmp      w0, #0
0x00083cf0:  54000080  b.eq     #0x83d00

----------------
IN: 
0x00083d28:  f9402be0  ldr      x0, [sp, #0x50]
0x00083d2c:  91000400  add      x0, x0, #1
0x00083d30:  f9002be0  str      x0, [sp, #0x50]
0x00083d34:  f9402be0  ldr      x0, [sp, #0x50]
0x00083d38:  39400000  ldrb     w0, [x0]
0x00083d3c:  39013fe0  strb     w0, [sp, #0x4f]
0x00083d40:  52800100  mov      w0, #8
0x00083d44:  b9004be0  str      w0, [sp, #0x48]
0x00083d48:  f94017e0  ldr      x0, [sp, #0x28]
0x00083d4c:  b9400800  ldr      w0, [x0, #8]
0x00083d50:  2a0003e1  mov      w1, w0
0x00083d54:  f94013e0  ldr      x0, [sp, #0x20]
0x00083d58:  f9400000  ldr      x0, [x0]
0x00083d5c:  b9401c00  ldr      w0, [x0, #0x1c]
0x00083d60:  4b000020  sub      w0, w1, w0
0x00083d64:  2a0003e0  mov      w0, w0
0x00083d68:  d37ef400  lsl      x0, x0, #2
0x00083d6c:  f9402fe1  ldr      x1, [sp, #0x58]
0x00083d70:  8b000020  add      x0, x1, x0
0x00083d74:  f9002fe0  str      x0, [sp, #0x58]
0x00083d78:  b94047e0  ldr      w0, [sp, #0x44]
0x00083d7c:  11000400  add      w0, w0, #1
0x00083d80:  b90047e0  str      w0, [sp, #0x44]
0x00083d84:  17ffffb9  b        #0x83c68

----------------
IN: 
0x00083c68:  f94013e0  ldr      x0, [sp, #0x20]
0x00083c6c:  f9400000  ldr      x0, [x0]
0x00083c70:  b9401800  ldr      w0, [x0, #0x18]
0x00083c74:  b94047e1  ldr      w1, [sp, #0x44]
0x00083c78:  6b00003f  cmp      w1, w0
0x00083c7c:  54000862  b.hs     #0x83d88

----------------
IN: 
0x00083cf4:  b94013e1  ldr      w1, [sp, #0x10]
0x00083cf8:  f9402fe0  ldr      x0, [sp, #0x58]
0x00083cfc:  b9000001  str      w1, [x0]
0x00083d00:  b9404be0  ldr      w0, [sp, #0x48]
0x00083d04:  51000400  sub      w0, w0, #1
0x00083d08:  b9004be0  str      w0, [sp, #0x48]
0x00083d0c:  f9402fe0  ldr      x0, [sp, #0x58]
0x00083d10:  91001000  add      x0, x0, #4
0x00083d14:  f9002fe0  str      x0, [sp, #0x58]
0x00083d18:  b94043e0  ldr      w0, [sp, #0x40]
0x00083d1c:  11000400  add      w0, w0, #1
0x00083d20:  b90043e0  str      w0, [sp, #0x40]
0x00083d24:  17ffffd8  b        #0x83c84

----------------
IN: 
0x00083d88:  d503201f  nop      
0x00083d8c:  a8c67bfd  ldp      x29, x30, [sp], #0x60
0x00083d90:  d65f03c0  ret      

----------------
IN: 
0x00083e5c:  1400000b  b        #0x83e88

----------------
IN: 
0x00083e88:  f9401be0  ldr      x0, [sp, #0x30]
0x00083e8c:  f9400000  ldr      x0, [x0]
0x00083e90:  b9401c01  ldr      w1, [x0, #0x1c]
0x00083e94:  b9406fe0  ldr      w0, [sp, #0x6c]
0x00083e98:  0b000020  add      w0, w1, w0
0x00083e9c:  b9006fe0  str      w0, [sp, #0x6c]
0x00083ea0:  f9402fe0  ldr      x0, [sp, #0x58]
0x00083ea4:  91000400  add      x0, x0, #1
0x00083ea8:  f9002fe0  str      x0, [sp, #0x58]
0x00083eac:  b94067e0  ldr      w0, [sp, #0x64]
0x00083eb0:  51000400  sub      w0, w0, #1
0x00083eb4:  b90067e0  str      w0, [sp, #0x64]
0x00083eb8:  17ffffc8  b        #0x83dd8

----------------
IN: 
0x00083dd8:  b94067e0  ldr      w0, [sp, #0x64]
0x00083ddc:  7100001f  cmp      w0, #0
0x00083de0:  540006ed  b.le     #0x83ebc

----------------
IN: 
0x00083ebc:  d503201f  nop      
0x00083ec0:  a8c77bfd  ldp      x29, x30, [sp], #0x70
0x00083ec4:  d65f03c0  ret      

----------------
IN: 
0x00081eec:  911883e0  add      x0, sp, #0x620
0x00081ef0:  9400009b  bl       #0x8215c

----------------
IN: 
0x00081ef4:  911123e0  add      x0, sp, #0x448
0x00081ef8:  94000099  bl       #0x8215c

----------------
IN: 
0x00081efc:  911163e0  add      x0, sp, #0x458
0x00081f00:  94000097  bl       #0x8215c

----------------
IN: 
0x00081f04:  9111a3e0  add      x0, sp, #0x468
0x00081f08:  94000095  bl       #0x8215c

----------------
IN: 
0x00081f0c:  9111e3e0  add      x0, sp, #0x478
0x00081f10:  94000093  bl       #0x8215c

----------------
IN: 
0x00081f14:  d503201f  nop      
0x00081f18:  f9400bf3  ldr      x19, [sp, #0x10]
0x00081f1c:  a9407bfd  ldp      x29, x30, [sp]
0x00081f20:  911943ff  add      sp, sp, #0x650
0x00081f24:  d65f03c0  ret      

----------------
IN: 
0x00080284:  9110e3e0  add      x0, sp, #0x438
0x00080288:  94000dcc  bl       #0x839b8

----------------
IN: 
0x000839b8:  a9bd7bfd  stp      x29, x30, [sp, #-0x30]!
0x000839bc:  910003fd  mov      x29, sp
0x000839c0:  a90153f3  stp      x19, x20, [sp, #0x10]
0x000839c4:  f90017e0  str      x0, [sp, #0x28]
0x000839c8:  f94017e0  ldr      x0, [sp, #0x28]
0x000839cc:  f9400800  ldr      x0, [x0, #0x10]
0x000839d0:  f100001f  cmp      x0, #0
0x000839d4:  54000180  b.eq     #0x83a04

----------------
IN: 
0x000839d8:  f94017e0  ldr      x0, [sp, #0x28]
0x000839dc:  f9400013  ldr      x19, [x0]
0x000839e0:  f94017e0  ldr      x0, [sp, #0x28]
0x000839e4:  f9400814  ldr      x20, [x0, #0x10]
0x000839e8:  f94017e0  ldr      x0, [sp, #0x28]
0x000839ec:  94000017  bl       #0x83a48

----------------
IN: 
0x000839f0:  93407c00  sxtw     x0, w0
0x000839f4:  aa0003e2  mov      x2, x0
0x000839f8:  aa1403e1  mov      x1, x20
0x000839fc:  aa1303e0  mov      x0, x19
0x00083a00:  97fff61b  bl       #0x8126c

----------------
IN: 
0x000812a0:  f94013e0  ldr      x0, [sp, #0x20]
0x000812a4:  92400400  and      x0, x0, #3
0x000812a8:  f100001f  cmp      x0, #0
0x000812ac:  54000441  b.ne     #0x81334

----------------
IN: 
0x000812b0:  f94017e0  ldr      x0, [sp, #0x28]
0x000812b4:  92400400  and      x0, x0, #3
0x000812b8:  f100001f  cmp      x0, #0
0x000812bc:  540003c1  b.ne     #0x81334

----------------
IN: 
0x000812c0:  f9400fe0  ldr      x0, [sp, #0x18]
0x000812c4:  d342fc00  lsr      x0, x0, #2
0x000812c8:  f90027e0  str      x0, [sp, #0x48]
0x000812cc:  f94027e0  ldr      x0, [sp, #0x48]
0x000812d0:  d37ef400  lsl      x0, x0, #2
0x000812d4:  f9400fe1  ldr      x1, [sp, #0x18]
0x000812d8:  cb000020  sub      x0, x1, x0
0x000812dc:  f90023e0  str      x0, [sp, #0x40]
0x000812e0:  f94027e0  ldr      x0, [sp, #0x48]
0x000812e4:  531e7400  lsl      w0, w0, #2
0x000812e8:  2a0003e2  mov      w2, w0
0x000812ec:  f94017e1  ldr      x1, [sp, #0x28]
0x000812f0:  f94013e0  ldr      x0, [sp, #0x20]
0x000812f4:  94000c74  bl       #0x844c4

----------------
IN: 
0x000844c4:  a9bd7bfd  stp      x29, x30, [sp, #-0x30]!
0x000844c8:  910003fd  mov      x29, sp
0x000844cc:  f90017e0  str      x0, [sp, #0x28]
0x000844d0:  f90013e1  str      x1, [sp, #0x20]
0x000844d4:  b9001fe2  str      w2, [sp, #0x1c]
0x000844d8:  b9401fe3  ldr      w3, [sp, #0x1c]
0x000844dc:  f94013e2  ldr      x2, [sp, #0x20]
0x000844e0:  f94017e1  ldr      x1, [sp, #0x28]
0x000844e4:  52800000  mov      w0, #0
0x000844e8:  97fffece  bl       #0x84020

----------------
IN: 
0x00084020:  d11383ff  sub      sp, sp, #0x4e0
0x00084024:  a9007bfd  stp      x29, x30, [sp]
0x00084028:  910003fd  mov      x29, sp
0x0008402c:  f9000bf3  str      x19, [sp, #0x10]
0x00084030:  b9003fe0  str      w0, [sp, #0x3c]
0x00084034:  f9001be1  str      x1, [sp, #0x30]
0x00084038:  f90017e2  str      x2, [sp, #0x28]
0x0008403c:  b9003be3  str      w3, [sp, #0x38]
0x00084040:  911383e0  add      x0, sp, #0x4e0
0x00084044:  d1128000  sub      x0, x0, #0x4a0
0x00084048:  9103fc00  add      x0, x0, #0xff
0x0008404c:  d348fc00  lsr      x0, x0, #8
0x00084050:  d378dc13  lsl      x19, x0, #8
0x00084054:  aa1303e0  mov      x0, x19
0x00084058:  97ffffb4  bl       #0x83f28

----------------
IN: 
0x00083f28:  d10043ff  sub      sp, sp, #0x10
0x00083f2c:  f90007e0  str      x0, [sp, #8]
0x00083f30:  f94007e0  ldr      x0, [sp, #8]
0x00083f34:  52802201  mov      w1, #0x110
0x00083f38:  b9000001  str      w1, [x0]
0x00083f3c:  f94007e0  ldr      x0, [sp, #8]
0x00083f40:  b900041f  str      wzr, [x0, #4]
0x00083f44:  f94007e0  ldr      x0, [sp, #8]
0x00083f48:  b900081f  str      wzr, [x0, #8]
0x00083f4c:  f94007e0  ldr      x0, [sp, #8]
0x00083f50:  b9000c1f  str      wzr, [x0, #0xc]
0x00083f54:  f94007e0  ldr      x0, [sp, #8]
0x00083f58:  b900101f  str      wzr, [x0, #0x10]
0x00083f5c:  f94007e0  ldr      x0, [sp, #8]
0x00083f60:  b900141f  str      wzr, [x0, #0x14]
0x00083f64:  f94007e0  ldr      x0, [sp, #8]
0x00083f68:  b900181f  str      wzr, [x0, #0x18]
0x00083f6c:  f94007e0  ldr      x0, [sp, #8]
0x00083f70:  b9001c1f  str      wzr, [x0, #0x1c]
0x00083f74:  d503201f  nop      
0x00083f78:  910043ff  add      sp, sp, #0x10
0x00083f7c:  d65f03c0  ret      

----------------
IN: 
0x0008405c:  b9803fe0  ldrsw    x0, [sp, #0x3c]
0x00084060:  d378dc01  lsl      x1, x0, #8
0x00084064:  b0000080  adrp     x0, #0x95000
0x00084068:  91280000  add      x0, x0, #0xa00
0x0008406c:  8b000020  add      x0, x1, x0
0x00084070:  aa0003e2  mov      x2, x0
0x00084074:  aa1303e3  mov      x3, x19
0x00084078:  a9400460  ldp      x0, x1, [x3]
0x0008407c:  a9000440  stp      x0, x1, [x2]
0x00084080:  a9410460  ldp      x0, x1, [x3, #0x10]
0x00084084:  a9010440  stp      x0, x1, [x2, #0x10]
0x00084088:  91040262  add      x2, x19, #0x100
0x0008408c:  b0000080  adrp     x0, #0x95000
0x00084090:  91280001  add      x1, x0, #0xa00
0x00084094:  b9803fe0  ldrsw    x0, [sp, #0x3c]
0x00084098:  d378dc00  lsl      x0, x0, #8
0x0008409c:  8b000020  add      x0, x1, x0
0x000840a0:  aa0203e3  mov      x3, x2
0x000840a4:  aa0003e1  mov      x1, x0
0x000840a8:  d2802000  mov      x0, #0x100
0x000840ac:  aa0003e2  mov      x2, x0
0x000840b0:  aa0303e0  mov      x0, x3
0x000840b4:  97fff46e  bl       #0x8126c

----------------
IN: 
0x000840b8:  f9401be0  ldr      x0, [sp, #0x30]
0x000840bc:  2a0003e1  mov      w1, w0
0x000840c0:  91040260  add      x0, x19, #0x100
0x000840c4:  b9000401  str      w1, [x0, #4]
0x000840c8:  f94017e0  ldr      x0, [sp, #0x28]
0x000840cc:  2a0003e1  mov      w1, w0
0x000840d0:  91040260  add      x0, x19, #0x100
0x000840d4:  b9000801  str      w1, [x0, #8]
0x000840d8:  b9403be1  ldr      w1, [sp, #0x38]
0x000840dc:  91040260  add      x0, x19, #0x100
0x000840e0:  b9000c01  str      w1, [x0, #0xc]
0x000840e4:  b9403fe1  ldr      w1, [sp, #0x3c]
0x000840e8:  52800e00  mov      w0, #0x70
0x000840ec:  72a007e0  movk     w0, #0x3f, lsl #16
0x000840f0:  0b000020  add      w0, w1, w0
0x000840f4:  53185c00  lsl      w0, w0, #8
0x000840f8:  93407c00  sxtw     x0, w0
0x000840fc:  f9026fe0  str      x0, [sp, #0x4d8]
0x00084100:  f9426fe0  ldr      x0, [sp, #0x4d8]
0x00084104:  9400018d  bl       #0x84738

----------------
IN: 
0x00084738:  a9bd7bfd  stp      x29, x30, [sp, #-0x30]!
0x0008473c:  910003fd  mov      x29, sp
0x00084740:  f9000fe0  str      x0, [sp, #0x18]
0x00084744:  f9400fe0  ldr      x0, [sp, #0x18]
0x00084748:  b9400000  ldr      w0, [x0]
0x0008474c:  32010001  orr      w1, w0, #0x80000000
0x00084750:  f9400fe0  ldr      x0, [sp, #0x18]
0x00084754:  b9000001  str      w1, [x0]
0x00084758:  9100a3e0  add      x0, sp, #0x28
0x0008475c:  52800022  mov      w2, #1
0x00084760:  d28001e1  mov      x1, #0xf
0x00084764:  97fffa17  bl       #0x82fc0

----------------
IN: 
0x00084748:  b9400000  ldr      w0, [x0]

----------------
IN: 
0x0008474c:  32010001  orr      w1, w0, #0x80000000
0x00084750:  f9400fe0  ldr      x0, [sp, #0x18]
0x00084754:  b9000001  str      w1, [x0]
0x00084758:  9100a3e0  add      x0, sp, #0x28
0x0008475c:  52800022  mov      w2, #1
0x00084760:  d28001e1  mov      x1, #0xf
0x00084764:  97fffa17  bl       #0x82fc0

----------------
IN: 
0x00084754:  b9000001  str      w1, [x0]

----------------
IN: 
0x00084758:  9100a3e0  add      x0, sp, #0x28
0x0008475c:  52800022  mov      w2, #1
0x00084760:  d28001e1  mov      x1, #0xf
0x00084764:  97fffa17  bl       #0x82fc0

----------------
IN: 
0x00082fe8:  71000c1f  cmp      w0, #3
0x00082fec:  540006cc  b.gt     #0x830c4

----------------
IN: 
0x00082ff0:  7100081f  cmp      w0, #2
0x00082ff4:  54000420  b.eq     #0x83078

----------------
IN: 
0x00082ff8:  7100081f  cmp      w0, #2
0x00082ffc:  5400064c  b.gt     #0x830c4

----------------
IN: 
0x00083000:  7100001f  cmp      w0, #0
0x00083004:  54000080  b.eq     #0x83014

----------------
IN: 
0x00083008:  7100041f  cmp      w0, #1
0x0008300c:  540001e0  b.eq     #0x83048

----------------
IN: 
0x00083048:  b9403fe1  ldr      w1, [sp, #0x3c]
0x0008304c:  f94013e0  ldr      x0, [sp, #0x20]
0x00083050:  9b007c21  mul      x1, x1, x0
0x00083054:  d2869b60  mov      x0, #0x34db
0x00083058:  f2baf6c0  movk     x0, #0xd7b6, lsl #16
0x0008305c:  f2dbd040  movk     x0, #0xde82, lsl #32
0x00083060:  f2e86360  movk     x0, #0x431b, lsl #48
0x00083064:  9bc07c20  umulh    x0, x1, x0
0x00083068:  d352fc01  lsr      x1, x0, #0x12
0x0008306c:  f94017e0  ldr      x0, [sp, #0x28]
0x00083070:  f9000001  str      x1, [x0]
0x00083074:  14000014  b        #0x830c4

----------------
IN: 
0x000830c4:  d503201f  nop      
0x000830c8:  a8c47bfd  ldp      x29, x30, [sp], #0x40
0x000830cc:  d65f03c0  ret      

----------------
IN: 
0x00084768:  9100a3e0  add      x0, sp, #0x28
0x0008476c:  97fffb0b  bl       #0x83398

----------------
IN: 
0x00083398:  a9bd7bfd  stp      x29, x30, [sp, #-0x30]!
0x0008339c:  910003fd  mov      x29, sp
0x000833a0:  f9000fe0  str      x0, [sp, #0x18]
0x000833a4:  9400075c  bl       #0x85114

----------------
IN: 
0x000833a8:  f90017e0  str      x0, [sp, #0x28]
0x000833ac:  f9400fe0  ldr      x0, [sp, #0x18]
0x000833b0:  f9400000  ldr      x0, [x0]
0x000833b4:  f94017e1  ldr      x1, [sp, #0x28]
0x000833b8:  8b000020  add      x0, x1, x0
0x000833bc:  f90013e0  str      x0, [sp, #0x20]
0x000833c0:  f94017e1  ldr      x1, [sp, #0x28]
0x000833c4:  f94013e0  ldr      x0, [sp, #0x20]
0x000833c8:  eb00003f  cmp      x1, x0
0x000833cc:  54000082  b.hs     #0x833dc

----------------
IN: 
0x000833d0:  94000751  bl       #0x85114

----------------
IN: 
0x000833d4:  f90017e0  str      x0, [sp, #0x28]
0x000833d8:  17fffffa  b        #0x833c0

----------------
IN: 
0x000833c0:  f94017e1  ldr      x1, [sp, #0x28]
0x000833c4:  f94013e0  ldr      x0, [sp, #0x20]
0x000833c8:  eb00003f  cmp      x1, x0
0x000833cc:  54000082  b.hs     #0x833dc

----------------
IN: 
0x000833dc:  d503201f  nop      
0x000833e0:  a8c37bfd  ldp      x29, x30, [sp], #0x30
0x000833e4:  d65f03c0  ret      

----------------
IN: 
0x00084770:  d503201f  nop      
0x00084774:  a8c37bfd  ldp      x29, x30, [sp], #0x30
0x00084778:  d65f03c0  ret      

----------------
IN: 
0x00084108:  91040260  add      x0, x19, #0x100
0x0008410c:  aa0003e1  mov      x1, x0
0x00084110:  f9426fe0  ldr      x0, [sp, #0x4d8]
0x00084114:  94000175  bl       #0x846e8

----------------
IN: 
0x000846e8:  d10043ff  sub      sp, sp, #0x10
0x000846ec:  f90007e0  str      x0, [sp, #8]
0x000846f0:  f90003e1  str      x1, [sp]
0x000846f4:  f94003e0  ldr      x0, [sp]
0x000846f8:  2a0003e1  mov      w1, w0
0x000846fc:  f94007e0  ldr      x0, [sp, #8]
0x00084700:  b9000401  str      w1, [x0, #4]
0x00084704:  d503201f  nop      
0x00084708:  910043ff  add      sp, sp, #0x10
0x0008470c:  d65f03c0  ret      

----------------
IN: 
0x00084700:  b9000401  str      w1, [x0, #4]

----------------
IN: 
0x00084704:  d503201f  nop      
0x00084708:  910043ff  add      sp, sp, #0x10
0x0008470c:  d65f03c0  ret      

----------------
IN: 
0x00084118:  f9426fe0  ldr      x0, [sp, #0x4d8]
0x0008411c:  9400017d  bl       #0x84710

----------------
IN: 
0x00084710:  d10043ff  sub      sp, sp, #0x10
0x00084714:  f90007e0  str      x0, [sp, #8]
0x00084718:  f94007e0  ldr      x0, [sp, #8]
0x0008471c:  b9400000  ldr      w0, [x0]
0x00084720:  32000001  orr      w1, w0, #1
0x00084724:  f94007e0  ldr      x0, [sp, #8]
0x00084728:  b9000001  str      w1, [x0]
0x0008472c:  d503201f  nop      
0x00084730:  910043ff  add      sp, sp, #0x10
0x00084734:  d65f03c0  ret      

----------------
IN: 
0x0008471c:  b9400000  ldr      w0, [x0]

----------------
IN: 
0x00084720:  32000001  orr      w1, w0, #1
0x00084724:  f94007e0  ldr      x0, [sp, #8]
0x00084728:  b9000001  str      w1, [x0]
0x0008472c:  d503201f  nop      
0x00084730:  910043ff  add      sp, sp, #0x10
0x00084734:  d65f03c0  ret      

----------------
IN: 
0x00084728:  b9000001  str      w1, [x0]

----------------
IN: 
0x0008472c:  d503201f  nop      
0x00084730:  910043ff  add      sp, sp, #0x10
0x00084734:  d65f03c0  ret      

----------------
IN: 
0x00084120:  97fffc95  bl       #0x83374

----------------
IN: 
0x00084124:  f901a3e0  str      x0, [sp, #0x340]
0x00084128:  910d03e0  add      x0, sp, #0x340
0x0008412c:  d2800041  mov      x1, #2
0x00084130:  97fffc27  bl       #0x831cc

----------------
IN: 
0x000831cc:  a9bc7bfd  stp      x29, x30, [sp, #-0x40]!
0x000831d0:  910003fd  mov      x29, sp
0x000831d4:  f9000bf3  str      x19, [sp, #0x10]
0x000831d8:  f90017e0  str      x0, [sp, #0x28]
0x000831dc:  f90013e1  str      x1, [sp, #0x20]
0x000831e0:  f94017e0  ldr      x0, [sp, #0x28]
0x000831e4:  f9400013  ldr      x19, [x0]
0x000831e8:  9100e3e0  add      x0, sp, #0x38
0x000831ec:  52800062  mov      w2, #3
0x000831f0:  f94013e1  ldr      x1, [sp, #0x20]
0x000831f4:  97ffff73  bl       #0x82fc0

----------------
IN: 
0x000831f8:  f9401fe0  ldr      x0, [sp, #0x38]
0x000831fc:  8b000261  add      x1, x19, x0
0x00083200:  9100c3e0  add      x0, sp, #0x30
0x00083204:  97ffff66  bl       #0x82f9c

----------------
IN: 
0x00083208:  f9401be0  ldr      x0, [sp, #0x30]
0x0008320c:  f9400bf3  ldr      x19, [sp, #0x10]
0x00083210:  a8c47bfd  ldp      x29, x30, [sp], #0x40
0x00083214:  d65f03c0  ret      

----------------
IN: 
0x00084134:  f9019fe0  str      x0, [sp, #0x338]
0x00084138:  f9426fe0  ldr      x0, [sp, #0x4d8]
0x0008413c:  94000190  bl       #0x8477c

----------------
IN: 
0x0008477c:  d10043ff  sub      sp, sp, #0x10
0x00084780:  f90007e0  str      x0, [sp, #8]
0x00084784:  f94007e0  ldr      x0, [sp, #8]
0x00084788:  b9400000  ldr      w0, [x0]
0x0008478c:  121f0000  and      w0, w0, #2
0x00084790:  7100001f  cmp      w0, #0
0x00084794:  1a9f07e0  cset     w0, ne
0x00084798:  12001c00  and      w0, w0, #0xff
0x0008479c:  910043ff  add      sp, sp, #0x10
0x000847a0:  d65f03c0  ret      

----------------
IN: 
0x00084788:  b9400000  ldr      w0, [x0]

----------------
IN: 
0x0008478c:  121f0000  and      w0, w0, #2
0x00084790:  7100001f  cmp      w0, #0
0x00084794:  1a9f07e0  cset     w0, ne
0x00084798:  12001c00  and      w0, w0, #0xff
0x0008479c:  910043ff  add      sp, sp, #0x10
0x000847a0:  d65f03c0  ret      

----------------
IN: 
0x00084140:  12001c00  and      w0, w0, #0xff
0x00084144:  52000000  eor      w0, w0, #1
0x00084148:  12001c00  and      w0, w0, #0xff
0x0008414c:  7100001f  cmp      w0, #0
0x00084150:  54001b00  b.eq     #0x844b0

----------------
IN: 
0x000844b0:  d503201f  nop      
0x000844b4:  f9400bf3  ldr      x19, [sp, #0x10]
0x000844b8:  a9407bfd  ldp      x29, x30, [sp]
0x000844bc:  911383ff  add      sp, sp, #0x4e0
0x000844c0:  d65f03c0  ret      

----------------
IN: 
0x000844ec:  d503201f  nop      
0x000844f0:  a8c37bfd  ldp      x29, x30, [sp], #0x30
0x000844f4:  d65f03c0  ret      

----------------
IN: 
0x000812f8:  f9400fe0  ldr      x0, [sp, #0x18]
0x000812fc:  2a0003e1  mov      w1, w0
0x00081300:  f94023e0  ldr      x0, [sp, #0x40]
0x00081304:  4b000020  sub      w0, w1, w0
0x00081308:  b9003fe0  str      w0, [sp, #0x3c]
0x0008130c:  b9803fe0  ldrsw    x0, [sp, #0x3c]
0x00081310:  f9402fe1  ldr      x1, [sp, #0x58]
0x00081314:  8b000020  add      x0, x1, x0
0x00081318:  f9002fe0  str      x0, [sp, #0x58]
0x0008131c:  b9803fe0  ldrsw    x0, [sp, #0x3c]
0x00081320:  f9402be1  ldr      x1, [sp, #0x50]
0x00081324:  8b000020  add      x0, x1, x0
0x00081328:  f9002be0  str      x0, [sp, #0x50]
0x0008132c:  f94023e0  ldr      x0, [sp, #0x40]
0x00081330:  f9000fe0  str      x0, [sp, #0x18]
0x00081334:  f9400fe0  ldr      x0, [sp, #0x18]
0x00081338:  f100001f  cmp      x0, #0
0x0008133c:  540001e0  b.eq     #0x81378

----------------
IN: 
0x00083a04:  d503201f  nop      
0x00083a08:  a94153f3  ldp      x19, x20, [sp, #0x10]
0x00083a0c:  a8c37bfd  ldp      x29, x30, [sp], #0x30
0x00083a10:  d65f03c0  ret      

----------------
IN: 
0x0008028c:  17ffffda  b        #0x801f4

