
build/kernel8.elf:     file format elf64-littleaarch64


Disassembly of section .text:

0000000000080000 <_start>:
   80000:	d53800a1 	mrs	x1, mpidr_el1
   80004:	92400421 	and	x1, x1, #0x3
   80008:	b4000121 	cbz	x1, 8002c <_start+0x2c>
   8000c:	f100043f 	cmp	x1, #0x1
   80010:	54000200 	b.eq	80050 <main_core_2>  // b.none
   80014:	f100083f 	cmp	x1, #0x2
   80018:	54000240 	b.eq	80060 <main_core_3>  // b.none
   8001c:	f1000c3f 	cmp	x1, #0x3
   80020:	54000280 	b.eq	80070 <main_core_4>  // b.none
   80024:	d503205f 	wfe
   80028:	17ffffff 	b	80024 <_start+0x24>
   8002c:	580000a1 	ldr	x1, 80040 <_start+0x40>
   80030:	9100003f 	mov	sp, x1
   80034:	94000013 	bl	80080 <main>
   80038:	17fffffb 	b	80024 <_start+0x24>
   8003c:	00000000 	udf	#0
   80040:	00080000 	.inst	0x00080000 ; undefined
	...

0000000000080050 <main_core_2>:
   80050:	14000000 	b	80050 <main_core_2>
   80054:	d503201f 	nop
   80058:	d503201f 	nop
   8005c:	d503201f 	nop

0000000000080060 <main_core_3>:
   80060:	14000000 	b	80060 <main_core_3>
   80064:	d503201f 	nop
   80068:	d503201f 	nop
   8006c:	d503201f 	nop

0000000000080070 <main_core_4>:
   80070:	14000000 	b	80070 <main_core_4>
	...

0000000000080080 <main>:
   80080:	d12503ff 	sub	sp, sp, #0x940
   80084:	a9007bfd 	stp	x29, x30, [sp]
   80088:	910003fd 	mov	x29, sp
   8008c:	a90153f3 	stp	x19, x20, [sp, #16]
   80090:	d0000033 	adrp	x19, 86000 <_funcmap+0x333>
   80094:	913c8273 	add	x19, x19, #0xf20
   80098:	a9025bf5 	stp	x21, x22, [sp, #32]
   8009c:	9114e3f5 	add	x21, sp, #0x538
   800a0:	aa1503f6 	mov	x22, x21
   800a4:	a90363f7 	stp	x23, x24, [sp, #48]
   800a8:	9117e3f4 	add	x20, sp, #0x5f8
   800ac:	a9046bf9 	stp	x25, x26, [sp, #64]
   800b0:	a90573fb 	stp	x27, x28, [sp, #80]
   800b4:	94000163 	bl	80640 <_Z14initSystemInfov>
   800b8:	52803c02 	mov	w2, #0x1e0                 	// #480
   800bc:	911263e0 	add	x0, sp, #0x498
   800c0:	52805001 	mov	w1, #0x280                 	// #640
   800c4:	940009a3 	bl	82750 <_ZN11FramebufferC1Eii>
   800c8:	911043e0 	add	x0, sp, #0x410
   800cc:	a9488400 	ldp	x0, x1, [x0, #136]
   800d0:	940001f8 	bl	808b0 <_Z20setSystemFramebuffer11Framebuffer>
   800d4:	aa1503e0 	mov	x0, x21
   800d8:	f0000001 	adrp	x1, 83000 <_GLOBAL__sub_I__Z13setSystemFont8PSF2Font+0x40>
   800dc:	9100a021 	add	x1, x1, #0x28
   800e0:	9400080c 	bl	82110 <_ZN8PSF2FontC1EPc>
   800e4:	aa1503e1 	mov	x1, x21
   800e8:	d2808102 	mov	x2, #0x408                 	// #1032
   800ec:	aa1303e0 	mov	x0, x19
   800f0:	94000308 	bl	80d10 <memcpy>
   800f4:	aa1303e1 	mov	x1, x19
   800f8:	d2808102 	mov	x2, #0x408                 	// #1032
   800fc:	9101c3e0 	add	x0, sp, #0x70
   80100:	94000304 	bl	80d10 <memcpy>
   80104:	9101c3e0 	add	x0, sp, #0x70
   80108:	94000b96 	bl	82f60 <_Z13setSystemFont8PSF2Font>
   8010c:	911043e0 	add	x0, sp, #0x410
   80110:	a9488c02 	ldp	x2, x3, [x0, #136]
   80114:	9112a3e0 	add	x0, sp, #0x4a8
   80118:	aa0203e1 	mov	x1, x2
   8011c:	aa0303e2 	mov	x2, x3
   80120:	9400087c 	bl	82310 <_ZN8GraphicsC1E11Framebuffer>
   80124:	52800403 	mov	w3, #0x20                  	// #32
   80128:	aa1503e0 	mov	x0, x21
   8012c:	2a0303e1 	mov	w1, w3
   80130:	2a0303e2 	mov	w2, w3
   80134:	94000847 	bl	82250 <_ZN5ColorC1Eccc>
   80138:	b9453be1 	ldr	w1, [sp, #1336]
   8013c:	9112a3e0 	add	x0, sp, #0x4a8
   80140:	9400087c 	bl	82330 <_ZN8Graphics4FillE5Color>
   80144:	aa1603e0 	mov	x0, x22
   80148:	9100c2d6 	add	x22, x22, #0x30
   8014c:	940009c9 	bl	82870 <_ZN10GPIOHandleC1Ev>
   80150:	eb1402df 	cmp	x22, x20
   80154:	54ffff81 	b.ne	80144 <main+0xc4>  // b.any
   80158:	911423e0 	add	x0, sp, #0x508
   8015c:	528002c1 	mov	w1, #0x16                  	// #22
   80160:	940009c8 	bl	82880 <_ZN10GPIOHandleC1Ei>
   80164:	9115a3f8 	add	x24, sp, #0x568
   80168:	911043e0 	add	x0, sp, #0x410
   8016c:	911843e1 	add	x1, sp, #0x610
   80170:	911843e2 	add	x2, sp, #0x610
   80174:	911843e8 	add	x8, sp, #0x610
   80178:	911663f7 	add	x23, sp, #0x598
   8017c:	911723f6 	add	x22, sp, #0x5c8
   80180:	a9709424 	ldp	x4, x5, [x1, #-248]
   80184:	528002e1 	mov	w1, #0x17                  	// #23
   80188:	a9718c42 	ldp	x2, x3, [x2, #-232]
   8018c:	d000001a 	adrp	x26, 82000 <_ZN8TimeSpanC1Em8TimeUnit+0x50>
   80190:	913f435a 	add	x26, x26, #0xfd0
   80194:	d0000019 	adrp	x25, 82000 <_ZN8TimeSpanC1Em8TimeUnit+0x50>
   80198:	913f6339 	add	x25, x25, #0xfd8
   8019c:	d000001b 	adrp	x27, 82000 <_ZN8TimeSpanC1Em8TimeUnit+0x50>
   801a0:	913fc37b 	add	x27, x27, #0xff0
   801a4:	a94f9c06 	ldp	x6, x7, [x0, #248]
   801a8:	a9329d06 	stp	x6, x7, [x8, #-216]
   801ac:	911423e0 	add	x0, sp, #0x508
   801b0:	a90116a4 	stp	x4, x5, [x21, #16]
   801b4:	a9020ea2 	stp	x2, x3, [x21, #32]
   801b8:	940009b2 	bl	82880 <_ZN10GPIOHandleC1Ei>
   801bc:	911043e1 	add	x1, sp, #0x410
   801c0:	911843e6 	add	x6, sp, #0x610
   801c4:	911843e4 	add	x4, sp, #0x610
   801c8:	911423e0 	add	x0, sp, #0x508
   801cc:	a94f8c22 	ldp	x2, x3, [x1, #248]
   801d0:	a9358cc2 	stp	x2, x3, [x6, #-168]
   801d4:	52800301 	mov	w1, #0x18                  	// #24
   801d8:	a9709484 	ldp	x4, x5, [x4, #-248]
   801dc:	a9011704 	stp	x4, x5, [x24, #16]
   801e0:	a9718cc2 	ldp	x2, x3, [x6, #-232]
   801e4:	a9020f02 	stp	x2, x3, [x24, #32]
   801e8:	940009a6 	bl	82880 <_ZN10GPIOHandleC1Ei>
   801ec:	911043e1 	add	x1, sp, #0x410
   801f0:	911843e6 	add	x6, sp, #0x610
   801f4:	911843e4 	add	x4, sp, #0x610
   801f8:	911423e0 	add	x0, sp, #0x508
   801fc:	a94f8c22 	ldp	x2, x3, [x1, #248]
   80200:	a9388cc2 	stp	x2, x3, [x6, #-120]
   80204:	52800281 	mov	w1, #0x14                  	// #20
   80208:	a9709484 	ldp	x4, x5, [x4, #-248]
   8020c:	a90116e4 	stp	x4, x5, [x23, #16]
   80210:	a9718cc2 	ldp	x2, x3, [x6, #-232]
   80214:	a9020ee2 	stp	x2, x3, [x23, #32]
   80218:	9400099a 	bl	82880 <_ZN10GPIOHandleC1Ei>
   8021c:	911043e0 	add	x0, sp, #0x410
   80220:	911843e6 	add	x6, sp, #0x610
   80224:	911843e4 	add	x4, sp, #0x610
   80228:	528002a1 	mov	w1, #0x15                  	// #21
   8022c:	a94f8c02 	ldp	x2, x3, [x0, #248]
   80230:	a93b8cc2 	stp	x2, x3, [x6, #-72]
   80234:	911423e0 	add	x0, sp, #0x508
   80238:	a9709484 	ldp	x4, x5, [x4, #-248]
   8023c:	a90116c4 	stp	x4, x5, [x22, #16]
   80240:	a9718cc2 	ldp	x2, x3, [x6, #-232]
   80244:	a9020ec2 	stp	x2, x3, [x22, #32]
   80248:	9400098e 	bl	82880 <_ZN10GPIOHandleC1Ei>
   8024c:	911423e0 	add	x0, sp, #0x508
   80250:	94000a2c 	bl	82b00 <_ZN10GPIOHandle8SetInputEv>
   80254:	aa1503e0 	mov	x0, x21
   80258:	94000a32 	bl	82b20 <_ZN10GPIOHandle9SetOutputEv>
   8025c:	aa1803e0 	mov	x0, x24
   80260:	94000a30 	bl	82b20 <_ZN10GPIOHandle9SetOutputEv>
   80264:	aa1703e0 	mov	x0, x23
   80268:	94000a2e 	bl	82b20 <_ZN10GPIOHandle9SetOutputEv>
   8026c:	aa1603e0 	mov	x0, x22
   80270:	f0000018 	adrp	x24, 83000 <_GLOBAL__sub_I__Z13setSystemFont8PSF2Font+0x40>
   80274:	91006318 	add	x24, x24, #0x18
   80278:	94000a2a 	bl	82b20 <_ZN10GPIOHandle9SetOutputEv>
   8027c:	f000001c 	adrp	x28, 83000 <_GLOBAL__sub_I__Z13setSystemFont8PSF2Font+0x40>
   80280:	91000380 	add	x0, x28, #0x0
   80284:	f90037e0 	str	x0, [sp, #104]
   80288:	9400078a 	bl	820b0 <_ZN8TimeSpan14GetCurrentTimeEv>
   8028c:	aa1503fc 	mov	x28, x21
   80290:	aa0003f7 	mov	x23, x0
   80294:	911423e0 	add	x0, sp, #0x508
   80298:	94000a4e 	bl	82bd0 <_ZN10GPIOHandle8IsActiveEv>
   8029c:	12001c16 	and	w22, w0, #0xff
   802a0:	aa1c03e0 	mov	x0, x28
   802a4:	2a1603e1 	mov	w1, w22
   802a8:	9100c39c 	add	x28, x28, #0x30
   802ac:	94000a39 	bl	82b90 <_ZN10GPIOHandle5WriteEb>
   802b0:	eb14039f 	cmp	x28, x20
   802b4:	54ffff61 	b.ne	802a0 <main+0x220>  // b.any
   802b8:	52800a04 	mov	w4, #0x50                  	// #80
   802bc:	52800202 	mov	w2, #0x10                  	// #16
   802c0:	9113e3e0 	add	x0, sp, #0x4f8
   802c4:	2a0203e1 	mov	w1, w2
   802c8:	52806003 	mov	w3, #0x300                 	// #768
   802cc:	940007dd 	bl	82240 <_ZN9RectangleC1Eiiii>
   802d0:	52800403 	mov	w3, #0x20                  	// #32
   802d4:	9113a3e0 	add	x0, sp, #0x4e8
   802d8:	2a0303e2 	mov	w2, w3
   802dc:	2a0303e1 	mov	w1, w3
   802e0:	940007dc 	bl	82250 <_ZN5ColorC1Eccc>
   802e4:	911043e0 	add	x0, sp, #0x410
   802e8:	b944ebe3 	ldr	w3, [sp, #1256]
   802ec:	a94e9404 	ldp	x4, x5, [x0, #232]
   802f0:	9112a3e0 	add	x0, sp, #0x4a8
   802f4:	aa0503e2 	mov	x2, x5
   802f8:	aa0403e1 	mov	x1, x4
   802fc:	9400083d 	bl	823f0 <_ZN8Graphics13FillRectangleE9Rectangle5Color>
   80300:	9112e3e8 	add	x8, sp, #0x4b8
   80304:	aa1703e0 	mov	x0, x23
   80308:	52800802 	mov	w2, #0x40                  	// #64
   8030c:	52800021 	mov	w1, #0x1                   	// #1
   80310:	940006a0 	bl	81d90 <_ZN6String9ParseLongEm22StringConversionFormati>
   80314:	f9425fe0 	ldr	x0, [sp, #1208]
   80318:	911323e8 	add	x8, sp, #0x4c8
   8031c:	52800802 	mov	w2, #0x40                  	// #64
   80320:	52800041 	mov	w1, #0x2                   	// #2
   80324:	9400069b 	bl	81d90 <_ZN6String9ParseLongEm22StringConversionFormati>
   80328:	52800202 	mov	w2, #0x10                  	// #16
   8032c:	911243e0 	add	x0, sp, #0x490
   80330:	2a0203e1 	mov	w1, w2
   80334:	940007b3 	bl	82200 <_ZN5PointC1Eii>
   80338:	aa1a03e1 	mov	x1, x26
   8033c:	911363e0 	add	x0, sp, #0x4d8
   80340:	9400031c 	bl	80fb0 <_ZN6StringC1EPKc>
   80344:	9112e3e1 	add	x1, sp, #0x4b8
   80348:	9113a3e0 	add	x0, sp, #0x4e8
   8034c:	940002ed 	bl	80f00 <_ZN6StringC1ERKS_>
   80350:	9113e3e8 	add	x8, sp, #0x4f8
   80354:	9113a3e1 	add	x1, sp, #0x4e8
   80358:	911363e0 	add	x0, sp, #0x4d8
   8035c:	94000321 	bl	80fe0 <_ZN6StringplES_>
   80360:	12800003 	mov	w3, #0xffffffff            	// #-1
   80364:	911223e0 	add	x0, sp, #0x488
   80368:	2a0303e2 	mov	w2, w3
   8036c:	2a0303e1 	mov	w1, w3
   80370:	940007b8 	bl	82250 <_ZN5ColorC1Eccc>
   80374:	b9448be4 	ldr	w4, [sp, #1160]
   80378:	9113e3e3 	add	x3, sp, #0x4f8
   8037c:	f9424be2 	ldr	x2, [sp, #1168]
   80380:	aa1303e1 	mov	x1, x19
   80384:	9112a3e0 	add	x0, sp, #0x4a8
   80388:	940008aa 	bl	82630 <_ZN8Graphics10DrawStringEP8PSF2Font5Point6String5Color>
   8038c:	9113e3e0 	add	x0, sp, #0x4f8
   80390:	940002c0 	bl	80e90 <_ZN6StringD1Ev>
   80394:	9113a3e0 	add	x0, sp, #0x4e8
   80398:	940002be 	bl	80e90 <_ZN6StringD1Ev>
   8039c:	911363e0 	add	x0, sp, #0x4d8
   803a0:	940002bc 	bl	80e90 <_ZN6StringD1Ev>
   803a4:	52800482 	mov	w2, #0x24                  	// #36
   803a8:	911243e0 	add	x0, sp, #0x490
   803ac:	52800201 	mov	w1, #0x10                  	// #16
   803b0:	94000794 	bl	82200 <_ZN5PointC1Eii>
   803b4:	aa1903e1 	mov	x1, x25
   803b8:	911363e0 	add	x0, sp, #0x4d8
   803bc:	940002fd 	bl	80fb0 <_ZN6StringC1EPKc>
   803c0:	911323e1 	add	x1, sp, #0x4c8
   803c4:	9113a3e0 	add	x0, sp, #0x4e8
   803c8:	940002ce 	bl	80f00 <_ZN6StringC1ERKS_>
   803cc:	9113e3e8 	add	x8, sp, #0x4f8
   803d0:	9113a3e1 	add	x1, sp, #0x4e8
   803d4:	911363e0 	add	x0, sp, #0x4d8
   803d8:	94000302 	bl	80fe0 <_ZN6StringplES_>
   803dc:	12800003 	mov	w3, #0xffffffff            	// #-1
   803e0:	911223e0 	add	x0, sp, #0x488
   803e4:	2a0303e2 	mov	w2, w3
   803e8:	2a0303e1 	mov	w1, w3
   803ec:	94000799 	bl	82250 <_ZN5ColorC1Eccc>
   803f0:	b9448be4 	ldr	w4, [sp, #1160]
   803f4:	aa1303e1 	mov	x1, x19
   803f8:	f9424be2 	ldr	x2, [sp, #1168]
   803fc:	9113e3e3 	add	x3, sp, #0x4f8
   80400:	9112a3e0 	add	x0, sp, #0x4a8
   80404:	9400088b 	bl	82630 <_ZN8Graphics10DrawStringEP8PSF2Font5Point6String5Color>
   80408:	9113e3e0 	add	x0, sp, #0x4f8
   8040c:	940002a1 	bl	80e90 <_ZN6StringD1Ev>
   80410:	9113a3e0 	add	x0, sp, #0x4e8
   80414:	9400029f 	bl	80e90 <_ZN6StringD1Ev>
   80418:	911363e0 	add	x0, sp, #0x4d8
   8041c:	9400029d 	bl	80e90 <_ZN6StringD1Ev>
   80420:	9113a3e0 	add	x0, sp, #0x4e8
   80424:	52800702 	mov	w2, #0x38                  	// #56
   80428:	52800201 	mov	w1, #0x10                  	// #16
   8042c:	34000936 	cbz	w22, 80550 <main+0x4d0>
   80430:	94000774 	bl	82200 <_ZN5PointC1Eii>
   80434:	aa1b03e1 	mov	x1, x27
   80438:	9113e3e0 	add	x0, sp, #0x4f8
   8043c:	940002dd 	bl	80fb0 <_ZN6StringC1EPKc>
   80440:	12800003 	mov	w3, #0xffffffff            	// #-1
   80444:	911363e0 	add	x0, sp, #0x4d8
   80448:	2a0303e2 	mov	w2, w3
   8044c:	2a0303e1 	mov	w1, w3
   80450:	94000780 	bl	82250 <_ZN5ColorC1Eccc>
   80454:	b944dbe4 	ldr	w4, [sp, #1240]
   80458:	9113e3e3 	add	x3, sp, #0x4f8
   8045c:	f94277e2 	ldr	x2, [sp, #1256]
   80460:	aa1303e1 	mov	x1, x19
   80464:	9112a3e0 	add	x0, sp, #0x4a8
   80468:	94000872 	bl	82630 <_ZN8Graphics10DrawStringEP8PSF2Font5Point6String5Color>
   8046c:	9113e3e0 	add	x0, sp, #0x4f8
   80470:	94000288 	bl	80e90 <_ZN6StringD1Ev>
   80474:	911223e0 	add	x0, sp, #0x488
   80478:	52800042 	mov	w2, #0x2                   	// #2
   8047c:	d2801f41 	mov	x1, #0xfa                  	// #250
   80480:	940006cc 	bl	81fb0 <_ZN8TimeSpanC1Em8TimeUnit>
   80484:	f94247e0 	ldr	x0, [sp, #1160]
   80488:	9113e3e8 	add	x8, sp, #0x4f8
   8048c:	52800802 	mov	w2, #0x40                  	// #64
   80490:	52800021 	mov	w1, #0x1                   	// #1
   80494:	9400063f 	bl	81d90 <_ZN6String9ParseLongEm22StringConversionFormati>
   80498:	f9427fe0 	ldr	x0, [sp, #1272]
   8049c:	f9025fe0 	str	x0, [sp, #1208]
   804a0:	911043e0 	add	x0, sp, #0x410
   804a4:	911043e2 	add	x2, sp, #0x410
   804a8:	f84ed001 	ldur	x1, [x0, #237]
   804ac:	f80ad041 	stur	x1, [x2, #173]
   804b0:	9113e3e0 	add	x0, sp, #0x4f8
   804b4:	94000277 	bl	80e90 <_ZN6StringD1Ev>
   804b8:	52800982 	mov	w2, #0x4c                  	// #76
   804bc:	911243e0 	add	x0, sp, #0x490
   804c0:	52800201 	mov	w1, #0x10                  	// #16
   804c4:	9400074f 	bl	82200 <_ZN5PointC1Eii>
   804c8:	aa1803e1 	mov	x1, x24
   804cc:	911363e0 	add	x0, sp, #0x4d8
   804d0:	940002b8 	bl	80fb0 <_ZN6StringC1EPKc>
   804d4:	9112e3e1 	add	x1, sp, #0x4b8
   804d8:	9113a3e0 	add	x0, sp, #0x4e8
   804dc:	94000289 	bl	80f00 <_ZN6StringC1ERKS_>
   804e0:	9113e3e8 	add	x8, sp, #0x4f8
   804e4:	9113a3e1 	add	x1, sp, #0x4e8
   804e8:	911363e0 	add	x0, sp, #0x4d8
   804ec:	940002bd 	bl	80fe0 <_ZN6StringplES_>
   804f0:	12800003 	mov	w3, #0xffffffff            	// #-1
   804f4:	911203e0 	add	x0, sp, #0x480
   804f8:	2a0303e2 	mov	w2, w3
   804fc:	2a0303e1 	mov	w1, w3
   80500:	94000754 	bl	82250 <_ZN5ColorC1Eccc>
   80504:	b94483e4 	ldr	w4, [sp, #1152]
   80508:	9113e3e3 	add	x3, sp, #0x4f8
   8050c:	f9424be2 	ldr	x2, [sp, #1168]
   80510:	aa1303e1 	mov	x1, x19
   80514:	9112a3e0 	add	x0, sp, #0x4a8
   80518:	94000846 	bl	82630 <_ZN8Graphics10DrawStringEP8PSF2Font5Point6String5Color>
   8051c:	9113e3e0 	add	x0, sp, #0x4f8
   80520:	9400025c 	bl	80e90 <_ZN6StringD1Ev>
   80524:	9113a3e0 	add	x0, sp, #0x4e8
   80528:	9400025a 	bl	80e90 <_ZN6StringD1Ev>
   8052c:	911363e0 	add	x0, sp, #0x4d8
   80530:	94000258 	bl	80e90 <_ZN6StringD1Ev>
   80534:	911223e0 	add	x0, sp, #0x488
   80538:	940006e6 	bl	820d0 <_ZN8TimeSpan8SpinWaitEv>
   8053c:	911323e0 	add	x0, sp, #0x4c8
   80540:	94000254 	bl	80e90 <_ZN6StringD1Ev>
   80544:	9112e3e0 	add	x0, sp, #0x4b8
   80548:	94000252 	bl	80e90 <_ZN6StringD1Ev>
   8054c:	17ffff4f 	b	80288 <main+0x208>
   80550:	9400072c 	bl	82200 <_ZN5PointC1Eii>
   80554:	f94037e1 	ldr	x1, [sp, #104]
   80558:	9113e3e0 	add	x0, sp, #0x4f8
   8055c:	94000295 	bl	80fb0 <_ZN6StringC1EPKc>
   80560:	128006e3 	mov	w3, #0xffffffc8            	// #-56
   80564:	17ffffb8 	b	80444 <main+0x3c4>
   80568:	d503201f 	nop
   8056c:	d503201f 	nop

0000000000080570 <_GLOBAL__sub_I_main>:
   80570:	d0000020 	adrp	x0, 86000 <_funcmap+0x333>
   80574:	913c8000 	add	x0, x0, #0xf20
   80578:	14000702 	b	82180 <_ZN8PSF2FontC1Ev>
   8057c:	00000000 	udf	#0

0000000000080580 <_ZN14RPIMachineInfoC1Ev>:
   80580:	f0000042 	adrp	x2, 8b000 <_ZL4mbox+0x860>
   80584:	912ee041 	add	x1, x2, #0xbb8
   80588:	b0000023 	adrp	x3, 85000 <_ZL17_systemFontBuffer+0x1fd8>
   8058c:	f9465c64 	ldr	x4, [x3, #3256]
   80590:	52a40003 	mov	w3, #0x20000000            	// #536870912
   80594:	b9000003 	str	w3, [x0]
   80598:	d2a40003 	mov	x3, #0x20000000            	// #536870912
   8059c:	f905dc43 	str	x3, [x2, #3000]
   805a0:	a9009001 	stp	x1, x4, [x0, #8]
   805a4:	f9000c01 	str	x1, [x0, #24]
   805a8:	b900083f 	str	wzr, [x1, #8]
   805ac:	d65f03c0 	ret

00000000000805b0 <_ZN10StacktraceC1Ev>:
   805b0:	910003e1 	mov	x1, sp
   805b4:	f9400022 	ldr	x2, [x1]
   805b8:	f800401f 	stur	xzr, [x0, #4]
   805bc:	b9400821 	ldr	w1, [x1, #8]
   805c0:	f800c01f 	stur	xzr, [x0, #12]
   805c4:	51001021 	sub	w1, w1, #0x4
   805c8:	b9000001 	str	w1, [x0]
   805cc:	b900141f 	str	wzr, [x0, #20]
   805d0:	b4000302 	cbz	x2, 80630 <_ZN10StacktraceC1Ev+0x80>
   805d4:	b9400841 	ldr	w1, [x2, #8]
   805d8:	f9400043 	ldr	x3, [x2]
   805dc:	51001021 	sub	w1, w1, #0x4
   805e0:	b9000401 	str	w1, [x0, #4]
   805e4:	b4000263 	cbz	x3, 80630 <_ZN10StacktraceC1Ev+0x80>
   805e8:	b9400861 	ldr	w1, [x3, #8]
   805ec:	f9400062 	ldr	x2, [x3]
   805f0:	51001021 	sub	w1, w1, #0x4
   805f4:	b9000801 	str	w1, [x0, #8]
   805f8:	b40001c2 	cbz	x2, 80630 <_ZN10StacktraceC1Ev+0x80>
   805fc:	b9400841 	ldr	w1, [x2, #8]
   80600:	f9400043 	ldr	x3, [x2]
   80604:	51001021 	sub	w1, w1, #0x4
   80608:	b9000c01 	str	w1, [x0, #12]
   8060c:	b4000123 	cbz	x3, 80630 <_ZN10StacktraceC1Ev+0x80>
   80610:	b9400861 	ldr	w1, [x3, #8]
   80614:	f9400062 	ldr	x2, [x3]
   80618:	51001021 	sub	w1, w1, #0x4
   8061c:	b9001001 	str	w1, [x0, #16]
   80620:	b4000082 	cbz	x2, 80630 <_ZN10StacktraceC1Ev+0x80>
   80624:	b9400841 	ldr	w1, [x2, #8]
   80628:	51001021 	sub	w1, w1, #0x4
   8062c:	b9001401 	str	w1, [x0, #20]
   80630:	d65f03c0 	ret
   80634:	d503201f 	nop
   80638:	d503201f 	nop
   8063c:	d503201f 	nop

0000000000080640 <_Z14initSystemInfov>:
   80640:	f0000042 	adrp	x2, 8b000 <_ZL4mbox+0x860>
   80644:	912ee041 	add	x1, x2, #0xbb8
   80648:	90000044 	adrp	x4, 88000 <_ZL4mbox+0xcd0>
   8064c:	910d0080 	add	x0, x4, #0x340
   80650:	b0000023 	adrp	x3, 85000 <_ZL17_systemFontBuffer+0x1fd8>
   80654:	f9465c65 	ldr	x5, [x3, #3256]
   80658:	d2a40003 	mov	x3, #0x20000000            	// #536870912
   8065c:	b9034083 	str	w3, [x4, #832]
   80660:	f905dc43 	str	x3, [x2, #3000]
   80664:	b900083f 	str	wzr, [x1, #8]
   80668:	a9009401 	stp	x1, x5, [x0, #8]
   8066c:	f9000c01 	str	x1, [x0, #24]
   80670:	d65f03c0 	ret
   80674:	d503201f 	nop
   80678:	d503201f 	nop
   8067c:	d503201f 	nop

0000000000080680 <_Z13getSystemInfov>:
   80680:	90000040 	adrp	x0, 88000 <_ZL4mbox+0xcd0>
   80684:	910d0000 	add	x0, x0, #0x340
   80688:	a9400c02 	ldp	x2, x3, [x0]
   8068c:	a9000d02 	stp	x2, x3, [x8]
   80690:	a9410400 	ldp	x0, x1, [x0, #16]
   80694:	a9010500 	stp	x0, x1, [x8, #16]
   80698:	d65f03c0 	ret
   8069c:	d503201f 	nop

00000000000806a0 <_Z9getCoreIdv>:
   806a0:	d53800a0 	mrs	x0, mpidr_el1
   806a4:	12000400 	and	w0, w0, #0x3
   806a8:	d65f03c0 	ret
   806ac:	d503201f 	nop

00000000000806b0 <_ZN13FunctionLabelC1Ev>:
   806b0:	a9bd7bfd 	stp	x29, x30, [sp, #-48]!
   806b4:	910003fd 	mov	x29, sp
   806b8:	a90153f3 	stp	x19, x20, [sp, #16]
   806bc:	91002014 	add	x20, x0, #0x8
   806c0:	aa0003f3 	mov	x19, x0
   806c4:	aa1403e0 	mov	x0, x20
   806c8:	94000236 	bl	80fa0 <_ZN6StringC1Ev>
   806cc:	910083e0 	add	x0, sp, #0x20
   806d0:	94000234 	bl	80fa0 <_ZN6StringC1Ev>
   806d4:	f94013e0 	ldr	x0, [sp, #32]
   806d8:	f9000660 	str	x0, [x19, #8]
   806dc:	f84253e0 	ldur	x0, [sp, #37]
   806e0:	f800d260 	stur	x0, [x19, #13]
   806e4:	910083e0 	add	x0, sp, #0x20
   806e8:	940001ea 	bl	80e90 <_ZN6StringD1Ev>
   806ec:	b900027f 	str	wzr, [x19]
   806f0:	a94153f3 	ldp	x19, x20, [sp, #16]
   806f4:	a8c37bfd 	ldp	x29, x30, [sp], #48
   806f8:	d65f03c0 	ret
   806fc:	d503201f 	nop

0000000000080700 <_ZN13FunctionLabelC1Ej>:
   80700:	a9b97bfd 	stp	x29, x30, [sp, #-112]!
   80704:	910003fd 	mov	x29, sp
   80708:	a9046bf9 	stp	x25, x26, [sp, #64]
   8070c:	91002019 	add	x25, x0, #0x8
   80710:	a90363f7 	stp	x23, x24, [sp, #48]
   80714:	aa0003f7 	mov	x23, x0
   80718:	aa1903e0 	mov	x0, x25
   8071c:	a9025bf5 	stp	x21, x22, [sp, #32]
   80720:	2a0103f6 	mov	w22, w1
   80724:	9400021f 	bl	80fa0 <_ZN6StringC1Ev>
   80728:	94000a0a 	bl	82f50 <_Z14getFunctionMapv>
   8072c:	aa0003fa 	mov	x26, x0
   80730:	52800202 	mov	w2, #0x10                  	// #16
   80734:	910183e0 	add	x0, sp, #0x60
   80738:	aa1a03e1 	mov	x1, x26
   8073c:	94000225 	bl	80fd0 <_ZN6StringC1EPKci>
   80740:	52800041 	mov	w1, #0x2                   	// #2
   80744:	910183e0 	add	x0, sp, #0x60
   80748:	940002b2 	bl	81210 <_ZN6String8ToUInt64E22StringConversionFormat>
   8074c:	aa0003f5 	mov	x21, x0
   80750:	910183e0 	add	x0, sp, #0x60
   80754:	940001cf 	bl	80e90 <_ZN6StringD1Ev>
   80758:	39400340 	ldrb	w0, [x26]
   8075c:	aa1603f8 	mov	x24, x22
   80760:	7100c01f 	cmp	w0, #0x30
   80764:	540003c1 	b.ne	807dc <_ZN13FunctionLabelC1Ej+0xdc>  // b.any
   80768:	a90153f3 	stp	x19, x20, [sp, #16]
   8076c:	aa1a03f4 	mov	x20, x26
   80770:	52800202 	mov	w2, #0x10                  	// #16
   80774:	aa1403e1 	mov	x1, x20
   80778:	910143e0 	add	x0, sp, #0x50
   8077c:	94000215 	bl	80fd0 <_ZN6StringC1EPKci>
   80780:	52800041 	mov	w1, #0x2                   	// #2
   80784:	910143e0 	add	x0, sp, #0x50
   80788:	940002a2 	bl	81210 <_ZN6String8ToUInt64E22StringConversionFormat>
   8078c:	eb0002df 	cmp	x22, x0
   80790:	aa1503e1 	mov	x1, x21
   80794:	aa0003f5 	mov	x21, x0
   80798:	54000429 	b.ls	8081c <_ZN13FunctionLabelC1Ej+0x11c>  // b.plast
   8079c:	39400280 	ldrb	w0, [x20]
   807a0:	aa1403f3 	mov	x19, x20
   807a4:	7100281f 	cmp	w0, #0xa
   807a8:	540000a0 	b.eq	807bc <_ZN13FunctionLabelC1Ej+0xbc>  // b.none
   807ac:	d503201f 	nop
   807b0:	38401e62 	ldrb	w2, [x19, #1]!
   807b4:	7100285f 	cmp	w2, #0xa
   807b8:	54ffffc1 	b.ne	807b0 <_ZN13FunctionLabelC1Ej+0xb0>  // b.any
   807bc:	910143e0 	add	x0, sp, #0x50
   807c0:	940001b4 	bl	80e90 <_ZN6StringD1Ev>
   807c4:	39400660 	ldrb	w0, [x19, #1]
   807c8:	aa1403fa 	mov	x26, x20
   807cc:	91000674 	add	x20, x19, #0x1
   807d0:	7100c01f 	cmp	w0, #0x30
   807d4:	54fffce0 	b.eq	80770 <_ZN13FunctionLabelC1Ej+0x70>  // b.none
   807d8:	a94153f3 	ldp	x19, x20, [sp, #16]
   807dc:	910183e0 	add	x0, sp, #0x60
   807e0:	b0000021 	adrp	x1, 85000 <_ZL17_systemFontBuffer+0x1fd8>
   807e4:	9130a021 	add	x1, x1, #0xc28
   807e8:	940001f2 	bl	80fb0 <_ZN6StringC1EPKc>
   807ec:	f94033e0 	ldr	x0, [sp, #96]
   807f0:	f90006e0 	str	x0, [x23, #8]
   807f4:	f84653e0 	ldur	x0, [sp, #101]
   807f8:	f8005320 	stur	x0, [x25, #5]
   807fc:	910183e0 	add	x0, sp, #0x60
   80800:	940001a4 	bl	80e90 <_ZN6StringD1Ev>
   80804:	b90002f8 	str	w24, [x23]
   80808:	a9425bf5 	ldp	x21, x22, [sp, #32]
   8080c:	a94363f7 	ldp	x23, x24, [sp, #48]
   80810:	a9446bf9 	ldp	x25, x26, [sp, #64]
   80814:	a8c77bfd 	ldp	x29, x30, [sp], #112
   80818:	d65f03c0 	ret
   8081c:	b90002e1 	str	w1, [x23]
   80820:	91004b41 	add	x1, x26, #0x12
   80824:	39404b40 	ldrb	w0, [x26, #18]
   80828:	7100f81f 	cmp	w0, #0x3e
   8082c:	54000320 	b.eq	80890 <_ZN13FunctionLabelC1Ej+0x190>  // b.none
   80830:	52800024 	mov	w4, #0x1                   	// #1
   80834:	aa0103e0 	mov	x0, x1
   80838:	4b010084 	sub	w4, w4, w1
   8083c:	d503201f 	nop
   80840:	0b000082 	add	w2, w4, w0
   80844:	38401c03 	ldrb	w3, [x0, #1]!
   80848:	7100f87f 	cmp	w3, #0x3e
   8084c:	54ffffa1 	b.ne	80840 <_ZN13FunctionLabelC1Ej+0x140>  // b.any
   80850:	910183e0 	add	x0, sp, #0x60
   80854:	940001df 	bl	80fd0 <_ZN6StringC1EPKci>
   80858:	f94033e0 	ldr	x0, [sp, #96]
   8085c:	f90006e0 	str	x0, [x23, #8]
   80860:	f84653e0 	ldur	x0, [sp, #101]
   80864:	f8005320 	stur	x0, [x25, #5]
   80868:	910183e0 	add	x0, sp, #0x60
   8086c:	94000189 	bl	80e90 <_ZN6StringD1Ev>
   80870:	910143e0 	add	x0, sp, #0x50
   80874:	94000187 	bl	80e90 <_ZN6StringD1Ev>
   80878:	a94153f3 	ldp	x19, x20, [sp, #16]
   8087c:	a9425bf5 	ldp	x21, x22, [sp, #32]
   80880:	a94363f7 	ldp	x23, x24, [sp, #48]
   80884:	a9446bf9 	ldp	x25, x26, [sp, #64]
   80888:	a8c77bfd 	ldp	x29, x30, [sp], #112
   8088c:	d65f03c0 	ret
   80890:	52800002 	mov	w2, #0x0                   	// #0
   80894:	17ffffef 	b	80850 <_ZN13FunctionLabelC1Ej+0x150>
   80898:	d503201f 	nop
   8089c:	d503201f 	nop

00000000000808a0 <free>:
   808a0:	b81f801f 	stur	wzr, [x0, #-8]
   808a4:	d65f03c0 	ret
   808a8:	d503201f 	nop
   808ac:	d503201f 	nop

00000000000808b0 <_Z20setSystemFramebuffer11Framebuffer>:
   808b0:	90000042 	adrp	x2, 88000 <_ZL4mbox+0xcd0>
   808b4:	910d0042 	add	x2, x2, #0x340
   808b8:	a9020440 	stp	x0, x1, [x2, #32]
   808bc:	d65f03c0 	ret

00000000000808c0 <_Z20getSystemFramebufferv>:
   808c0:	90000040 	adrp	x0, 88000 <_ZL4mbox+0xcd0>
   808c4:	910d0000 	add	x0, x0, #0x340
   808c8:	a9420400 	ldp	x0, x1, [x0, #32]
   808cc:	d65f03c0 	ret

00000000000808d0 <_Z5crash6String>:
   808d0:	d11483ff 	sub	sp, sp, #0x520
   808d4:	90000042 	adrp	x2, 88000 <_ZL4mbox+0xcd0>
   808d8:	910d0042 	add	x2, x2, #0x340
   808dc:	a9007bfd 	stp	x29, x30, [sp]
   808e0:	910003fd 	mov	x29, sp
   808e4:	a9420841 	ldp	x1, x2, [x2, #32]
   808e8:	a90153f3 	stp	x19, x20, [sp, #16]
   808ec:	aa0003f3 	mov	x19, x0
   808f0:	910123e0 	add	x0, sp, #0x48
   808f4:	a9025bf5 	stp	x21, x22, [sp, #32]
   808f8:	a90363f7 	stp	x23, x24, [sp, #48]
   808fc:	94000685 	bl	82310 <_ZN8GraphicsC1E11Framebuffer>
   80900:	52800003 	mov	w3, #0x0                   	// #0
   80904:	52800002 	mov	w2, #0x0                   	// #0
   80908:	910463e0 	add	x0, sp, #0x118
   8090c:	52800001 	mov	w1, #0x0                   	// #0
   80910:	94000650 	bl	82250 <_ZN5ColorC1Eccc>
   80914:	b9411be1 	ldr	w1, [sp, #280]
   80918:	910123e0 	add	x0, sp, #0x48
   8091c:	94000685 	bl	82330 <_ZN8Graphics4FillE5Color>
   80920:	910463e8 	add	x8, sp, #0x118
   80924:	9400099b 	bl	82f90 <_Z13getSystemFontv>
   80928:	12800003 	mov	w3, #0xffffffff            	// #-1
   8092c:	910103e0 	add	x0, sp, #0x40
   80930:	2a0303e2 	mov	w2, w3
   80934:	2a0303e1 	mov	w1, w3
   80938:	94000646 	bl	82250 <_ZN5ColorC1Eccc>
   8093c:	52800202 	mov	w2, #0x10                  	// #16
   80940:	910323e0 	add	x0, sp, #0xc8
   80944:	2a0203e1 	mov	w1, w2
   80948:	9400062e 	bl	82200 <_ZN5PointC1Eii>
   8094c:	910363e0 	add	x0, sp, #0xd8
   80950:	b0000021 	adrp	x1, 85000 <_ZL17_systemFontBuffer+0x1fd8>
   80954:	9130c021 	add	x1, x1, #0xc30
   80958:	94000196 	bl	80fb0 <_ZN6StringC1EPKc>
   8095c:	aa1303e1 	mov	x1, x19
   80960:	9103a3e0 	add	x0, sp, #0xe8
   80964:	94000167 	bl	80f00 <_ZN6StringC1ERKS_>
   80968:	910403e8 	add	x8, sp, #0x100
   8096c:	9103a3e1 	add	x1, sp, #0xe8
   80970:	910363e0 	add	x0, sp, #0xd8
   80974:	9400019b 	bl	80fe0 <_ZN6StringplES_>
   80978:	b94043e4 	ldr	w4, [sp, #64]
   8097c:	910403e3 	add	x3, sp, #0x100
   80980:	f94067e2 	ldr	x2, [sp, #200]
   80984:	910463e1 	add	x1, sp, #0x118
   80988:	910123e0 	add	x0, sp, #0x48
   8098c:	94000729 	bl	82630 <_ZN8Graphics10DrawStringEP8PSF2Font5Point6String5Color>
   80990:	910403e0 	add	x0, sp, #0x100
   80994:	9400013f 	bl	80e90 <_ZN6StringD1Ev>
   80998:	9103a3e0 	add	x0, sp, #0xe8
   8099c:	9400013d 	bl	80e90 <_ZN6StringD1Ev>
   809a0:	910363e0 	add	x0, sp, #0xd8
   809a4:	9400013b 	bl	80e90 <_ZN6StringD1Ev>
   809a8:	d53800b3 	mrs	x19, mpidr_el1
   809ac:	b0000021 	adrp	x1, 85000 <_ZL17_systemFontBuffer+0x1fd8>
   809b0:	91310021 	add	x1, x1, #0xc40
   809b4:	9103a3e0 	add	x0, sp, #0xe8
   809b8:	9400017e 	bl	80fb0 <_ZN6StringC1EPKc>
   809bc:	910403e8 	add	x8, sp, #0x100
   809c0:	12000660 	and	w0, w19, #0x3
   809c4:	52800021 	mov	w1, #0x1                   	// #1
   809c8:	9400036e 	bl	81780 <_ZN6String8ParseIntEj22StringConversionFormat>
   809cc:	910163e8 	add	x8, sp, #0x58
   809d0:	910403e1 	add	x1, sp, #0x100
   809d4:	9103a3e0 	add	x0, sp, #0xe8
   809d8:	94000182 	bl	80fe0 <_ZN6StringplES_>
   809dc:	9103a3f5 	add	x21, sp, #0xe8
   809e0:	910403e0 	add	x0, sp, #0x100
   809e4:	9400012b 	bl	80e90 <_ZN6StringD1Ev>
   809e8:	b0000038 	adrp	x24, 85000 <_ZL17_systemFontBuffer+0x1fd8>
   809ec:	9131c318 	add	x24, x24, #0xc70
   809f0:	aa1503e0 	mov	x0, x21
   809f4:	94000127 	bl	80e90 <_ZN6StringD1Ev>
   809f8:	b0000037 	adrp	x23, 85000 <_ZL17_systemFontBuffer+0x1fd8>
   809fc:	9131e2f7 	add	x23, x23, #0xc78
   80a00:	52800482 	mov	w2, #0x24                  	// #36
   80a04:	aa1503e0 	mov	x0, x21
   80a08:	52800201 	mov	w1, #0x10                  	// #16
   80a0c:	940005fd 	bl	82200 <_ZN5PointC1Eii>
   80a10:	b0000036 	adrp	x22, 85000 <_ZL17_systemFontBuffer+0x1fd8>
   80a14:	913202d6 	add	x22, x22, #0xc80
   80a18:	910163e1 	add	x1, sp, #0x58
   80a1c:	910403e0 	add	x0, sp, #0x100
   80a20:	94000138 	bl	80f00 <_ZN6StringC1ERKS_>
   80a24:	b94043e4 	ldr	w4, [sp, #64]
   80a28:	910403e3 	add	x3, sp, #0x100
   80a2c:	f94077e2 	ldr	x2, [sp, #232]
   80a30:	910463e1 	add	x1, sp, #0x118
   80a34:	910123e0 	add	x0, sp, #0x48
   80a38:	52800714 	mov	w20, #0x38                  	// #56
   80a3c:	940006fd 	bl	82630 <_ZN8Graphics10DrawStringEP8PSF2Font5Point6String5Color>
   80a40:	910403e0 	add	x0, sp, #0x100
   80a44:	94000113 	bl	80e90 <_ZN6StringD1Ev>
   80a48:	52800702 	mov	w2, #0x38                  	// #56
   80a4c:	aa1503e0 	mov	x0, x21
   80a50:	52800201 	mov	w1, #0x10                  	// #16
   80a54:	940005eb 	bl	82200 <_ZN5PointC1Eii>
   80a58:	910403e0 	add	x0, sp, #0x100
   80a5c:	b0000021 	adrp	x1, 85000 <_ZL17_systemFontBuffer+0x1fd8>
   80a60:	91316021 	add	x1, x1, #0xc58
   80a64:	94000153 	bl	80fb0 <_ZN6StringC1EPKc>
   80a68:	b94043e4 	ldr	w4, [sp, #64]
   80a6c:	910403e3 	add	x3, sp, #0x100
   80a70:	f94077e2 	ldr	x2, [sp, #232]
   80a74:	910463e1 	add	x1, sp, #0x118
   80a78:	910123e0 	add	x0, sp, #0x48
   80a7c:	940006ed 	bl	82630 <_ZN8Graphics10DrawStringEP8PSF2Font5Point6String5Color>
   80a80:	910403e0 	add	x0, sp, #0x100
   80a84:	94000103 	bl	80e90 <_ZN6StringD1Ev>
   80a88:	b0000021 	adrp	x1, 85000 <_ZL17_systemFontBuffer+0x1fd8>
   80a8c:	9131a021 	add	x1, x1, #0xc68
   80a90:	9101a3e0 	add	x0, sp, #0x68
   80a94:	94000147 	bl	80fb0 <_ZN6StringC1EPKc>
   80a98:	aa1503e0 	mov	x0, x21
   80a9c:	97fffec5 	bl	805b0 <_ZN10StacktraceC1Ev>
   80aa0:	b94002b3 	ldr	w19, [x21]
   80aa4:	910403e0 	add	x0, sp, #0x100
   80aa8:	11005294 	add	w20, w20, #0x14
   80aac:	910012b5 	add	x21, x21, #0x4
   80ab0:	2a1303e1 	mov	w1, w19
   80ab4:	34000c33 	cbz	w19, 80c38 <_Z5crash6String+0x368>
   80ab8:	97ffff12 	bl	80700 <_ZN13FunctionLabelC1Ej>
   80abc:	910363e8 	add	x8, sp, #0xd8
   80ac0:	2a1303e0 	mov	w0, w19
   80ac4:	52800041 	mov	w1, #0x2                   	// #2
   80ac8:	9400032e 	bl	81780 <_ZN6String8ParseIntEj22StringConversionFormat>
   80acc:	9101e3e8 	add	x8, sp, #0x78
   80ad0:	910363e1 	add	x1, sp, #0xd8
   80ad4:	9101a3e0 	add	x0, sp, #0x68
   80ad8:	94000142 	bl	80fe0 <_ZN6StringplES_>
   80adc:	910363e0 	add	x0, sp, #0xd8
   80ae0:	940000ec 	bl	80e90 <_ZN6StringD1Ev>
   80ae4:	aa1803e1 	mov	x1, x24
   80ae8:	910263e0 	add	x0, sp, #0x98
   80aec:	94000131 	bl	80fb0 <_ZN6StringC1EPKc>
   80af0:	910423e1 	add	x1, sp, #0x108
   80af4:	9102a3e0 	add	x0, sp, #0xa8
   80af8:	94000102 	bl	80f00 <_ZN6StringC1ERKS_>
   80afc:	9102e3e8 	add	x8, sp, #0xb8
   80b00:	9102a3e1 	add	x1, sp, #0xa8
   80b04:	910263e0 	add	x0, sp, #0x98
   80b08:	94000136 	bl	80fe0 <_ZN6StringplES_>
   80b0c:	aa1703e1 	mov	x1, x23
   80b10:	910323e0 	add	x0, sp, #0xc8
   80b14:	94000127 	bl	80fb0 <_ZN6StringC1EPKc>
   80b18:	910363e8 	add	x8, sp, #0xd8
   80b1c:	910323e1 	add	x1, sp, #0xc8
   80b20:	9102e3e0 	add	x0, sp, #0xb8
   80b24:	9400012f 	bl	80fe0 <_ZN6StringplES_>
   80b28:	910223e8 	add	x8, sp, #0x88
   80b2c:	910363e1 	add	x1, sp, #0xd8
   80b30:	9101e3e0 	add	x0, sp, #0x78
   80b34:	9400012b 	bl	80fe0 <_ZN6StringplES_>
   80b38:	910363e0 	add	x0, sp, #0xd8
   80b3c:	940000d5 	bl	80e90 <_ZN6StringD1Ev>
   80b40:	910323e0 	add	x0, sp, #0xc8
   80b44:	940000d3 	bl	80e90 <_ZN6StringD1Ev>
   80b48:	9102e3e0 	add	x0, sp, #0xb8
   80b4c:	940000d1 	bl	80e90 <_ZN6StringD1Ev>
   80b50:	9102a3e0 	add	x0, sp, #0xa8
   80b54:	940000cf 	bl	80e90 <_ZN6StringD1Ev>
   80b58:	910263e0 	add	x0, sp, #0x98
   80b5c:	940000cd 	bl	80e90 <_ZN6StringD1Ev>
   80b60:	b94103e0 	ldr	w0, [sp, #256]
   80b64:	9102a3e8 	add	x8, sp, #0xa8
   80b68:	52800041 	mov	w1, #0x2                   	// #2
   80b6c:	4b000260 	sub	w0, w19, w0
   80b70:	94000304 	bl	81780 <_ZN6String8ParseIntEj22StringConversionFormat>
   80b74:	9102e3e8 	add	x8, sp, #0xb8
   80b78:	9102a3e0 	add	x0, sp, #0xa8
   80b7c:	52800081 	mov	w1, #0x4                   	// #4
   80b80:	94000180 	bl	81180 <_ZN6String9SubstringEi>
   80b84:	910323e8 	add	x8, sp, #0xc8
   80b88:	9102e3e1 	add	x1, sp, #0xb8
   80b8c:	910223e0 	add	x0, sp, #0x88
   80b90:	94000114 	bl	80fe0 <_ZN6StringplES_>
   80b94:	aa1603e1 	mov	x1, x22
   80b98:	910363e0 	add	x0, sp, #0xd8
   80b9c:	94000105 	bl	80fb0 <_ZN6StringC1EPKc>
   80ba0:	910263e8 	add	x8, sp, #0x98
   80ba4:	910363e1 	add	x1, sp, #0xd8
   80ba8:	910323e0 	add	x0, sp, #0xc8
   80bac:	9400010d 	bl	80fe0 <_ZN6StringplES_>
   80bb0:	910363e0 	add	x0, sp, #0xd8
   80bb4:	940000b7 	bl	80e90 <_ZN6StringD1Ev>
   80bb8:	910323e0 	add	x0, sp, #0xc8
   80bbc:	940000b5 	bl	80e90 <_ZN6StringD1Ev>
   80bc0:	9102e3e0 	add	x0, sp, #0xb8
   80bc4:	940000b3 	bl	80e90 <_ZN6StringD1Ev>
   80bc8:	9102a3e0 	add	x0, sp, #0xa8
   80bcc:	940000b1 	bl	80e90 <_ZN6StringD1Ev>
   80bd0:	2a1403e2 	mov	w2, w20
   80bd4:	910323e0 	add	x0, sp, #0xc8
   80bd8:	52800201 	mov	w1, #0x10                  	// #16
   80bdc:	94000589 	bl	82200 <_ZN5PointC1Eii>
   80be0:	910263e1 	add	x1, sp, #0x98
   80be4:	910363e0 	add	x0, sp, #0xd8
   80be8:	940000c6 	bl	80f00 <_ZN6StringC1ERKS_>
   80bec:	b94043e4 	ldr	w4, [sp, #64]
   80bf0:	910363e3 	add	x3, sp, #0xd8
   80bf4:	f94067e2 	ldr	x2, [sp, #200]
   80bf8:	910463e1 	add	x1, sp, #0x118
   80bfc:	910123e0 	add	x0, sp, #0x48
   80c00:	9400068c 	bl	82630 <_ZN8Graphics10DrawStringEP8PSF2Font5Point6String5Color>
   80c04:	910363e0 	add	x0, sp, #0xd8
   80c08:	940000a2 	bl	80e90 <_ZN6StringD1Ev>
   80c0c:	910263e0 	add	x0, sp, #0x98
   80c10:	940000a0 	bl	80e90 <_ZN6StringD1Ev>
   80c14:	910223e0 	add	x0, sp, #0x88
   80c18:	9400009e 	bl	80e90 <_ZN6StringD1Ev>
   80c1c:	9101e3e0 	add	x0, sp, #0x78
   80c20:	9400009c 	bl	80e90 <_ZN6StringD1Ev>
   80c24:	910423e0 	add	x0, sp, #0x108
   80c28:	9400009a 	bl	80e90 <_ZN6StringD1Ev>
   80c2c:	7102c29f 	cmp	w20, #0xb0
   80c30:	54fff381 	b.ne	80aa0 <_Z5crash6String+0x1d0>  // b.any
   80c34:	14000000 	b	80c34 <_Z5crash6String+0x364>
   80c38:	17ffffff 	b	80c34 <_Z5crash6String+0x364>
   80c3c:	d503201f 	nop

0000000000080c40 <malloc>:
   80c40:	90000042 	adrp	x2, 88000 <_ZL4mbox+0xcd0>
   80c44:	910d0042 	add	x2, x2, #0x340
   80c48:	11001801 	add	w1, w0, #0x6
   80c4c:	31000c00 	adds	w0, w0, #0x3
   80c50:	1a804021 	csel	w1, w1, w0, mi  // mi = first
   80c54:	121e7424 	and	w4, w1, #0xfffffffc
   80c58:	a9408c40 	ldp	x0, x3, [x2, #8]
   80c5c:	14000006 	b	80c74 <malloc+0x34>
   80c60:	93407c21 	sxtw	x1, w1
   80c64:	91003021 	add	x1, x1, #0xc
   80c68:	8b010000 	add	x0, x0, x1
   80c6c:	eb03001f 	cmp	x0, x3
   80c70:	54000262 	b.cs	80cbc <malloc+0x7c>  // b.hs, b.nlast
   80c74:	29400801 	ldp	w1, w2, [x0]
   80c78:	35ffff42 	cbnz	w2, 80c60 <malloc+0x20>
   80c7c:	6b01009f 	cmp	w4, w1
   80c80:	54ffff0c 	b.gt	80c60 <malloc+0x20>
   80c84:	b9400803 	ldr	w3, [x0, #8]
   80c88:	52800022 	mov	w2, #0x1                   	// #1
   80c8c:	b9000402 	str	w2, [x0, #4]
   80c90:	35000123 	cbnz	w3, 80cb4 <malloc+0x74>
   80c94:	93407c83 	sxtw	x3, w4
   80c98:	b9000802 	str	w2, [x0, #8]
   80c9c:	91003063 	add	x3, x3, #0xc
   80ca0:	b9000004 	str	w4, [x0]
   80ca4:	8b030002 	add	x2, x0, x3
   80ca8:	4b040021 	sub	w1, w1, w4
   80cac:	b8236801 	str	w1, [x0, x3]
   80cb0:	f800405f 	stur	xzr, [x2, #4]
   80cb4:	91003000 	add	x0, x0, #0xc
   80cb8:	d65f03c0 	ret
   80cbc:	a9be7bfd 	stp	x29, x30, [sp, #-32]!
   80cc0:	b0000021 	adrp	x1, 85000 <_ZL17_systemFontBuffer+0x1fd8>
   80cc4:	91322021 	add	x1, x1, #0xc88
   80cc8:	910003fd 	mov	x29, sp
   80ccc:	910043e0 	add	x0, sp, #0x10
   80cd0:	940000b8 	bl	80fb0 <_ZN6StringC1EPKc>
   80cd4:	910043e0 	add	x0, sp, #0x10
   80cd8:	97fffefe 	bl	808d0 <_Z5crash6String>
   80cdc:	d503201f 	nop

0000000000080ce0 <_Z5crashv>:
   80ce0:	a9be7bfd 	stp	x29, x30, [sp, #-32]!
   80ce4:	b0000021 	adrp	x1, 85000 <_ZL17_systemFontBuffer+0x1fd8>
   80ce8:	91328021 	add	x1, x1, #0xca0
   80cec:	910003fd 	mov	x29, sp
   80cf0:	910043e0 	add	x0, sp, #0x10
   80cf4:	940000af 	bl	80fb0 <_ZN6StringC1EPKc>
   80cf8:	910043e0 	add	x0, sp, #0x10
   80cfc:	97fffef5 	bl	808d0 <_Z5crash6String>

0000000000080d00 <_Z5magicj>:
   80d00:	5ac00800 	rev	w0, w0
   80d04:	d65f03c0 	ret
   80d08:	d503201f 	nop
   80d0c:	d503201f 	nop

0000000000080d10 <memcpy>:
   80d10:	b4000622 	cbz	x2, 80dd4 <memcpy+0xc4>
   80d14:	91000424 	add	x4, x1, #0x1
   80d18:	d1000445 	sub	x5, x2, #0x1
   80d1c:	cb040004 	sub	x4, x0, x4
   80d20:	aa010003 	orr	x3, x0, x1
   80d24:	f100189f 	cmp	x4, #0x6
   80d28:	92400863 	and	x3, x3, #0x7
   80d2c:	fa4988a0 	ccmp	x5, #0x9, #0x0, hi  // hi = pmore
   80d30:	fa408860 	ccmp	x3, #0x0, #0x0, hi  // hi = pmore
   80d34:	54000521 	b.ne	80dd8 <memcpy+0xc8>  // b.any
   80d38:	927df045 	and	x5, x2, #0xfffffffffffffff8
   80d3c:	d2800003 	mov	x3, #0x0                   	// #0
   80d40:	f8636824 	ldr	x4, [x1, x3]
   80d44:	f8236804 	str	x4, [x0, x3]
   80d48:	91002063 	add	x3, x3, #0x8
   80d4c:	eb05007f 	cmp	x3, x5
   80d50:	54ffff81 	b.ne	80d40 <memcpy+0x30>  // b.any
   80d54:	927df043 	and	x3, x2, #0xfffffffffffffff8
   80d58:	92400844 	and	x4, x2, #0x7
   80d5c:	eb03005f 	cmp	x2, x3
   80d60:	8b030025 	add	x5, x1, x3
   80d64:	8b030002 	add	x2, x0, x3
   80d68:	54000360 	b.eq	80dd4 <memcpy+0xc4>  // b.none
   80d6c:	38636821 	ldrb	w1, [x1, x3]
   80d70:	f100049f 	cmp	x4, #0x1
   80d74:	38236801 	strb	w1, [x0, x3]
   80d78:	540002e0 	b.eq	80dd4 <memcpy+0xc4>  // b.none
   80d7c:	394004a0 	ldrb	w0, [x5, #1]
   80d80:	f100089f 	cmp	x4, #0x2
   80d84:	39000440 	strb	w0, [x2, #1]
   80d88:	54000260 	b.eq	80dd4 <memcpy+0xc4>  // b.none
   80d8c:	394008a0 	ldrb	w0, [x5, #2]
   80d90:	f1000c9f 	cmp	x4, #0x3
   80d94:	39000840 	strb	w0, [x2, #2]
   80d98:	540001e0 	b.eq	80dd4 <memcpy+0xc4>  // b.none
   80d9c:	39400ca0 	ldrb	w0, [x5, #3]
   80da0:	f100109f 	cmp	x4, #0x4
   80da4:	39000c40 	strb	w0, [x2, #3]
   80da8:	54000160 	b.eq	80dd4 <memcpy+0xc4>  // b.none
   80dac:	394010a0 	ldrb	w0, [x5, #4]
   80db0:	f100149f 	cmp	x4, #0x5
   80db4:	39001040 	strb	w0, [x2, #4]
   80db8:	540000e0 	b.eq	80dd4 <memcpy+0xc4>  // b.none
   80dbc:	394014a0 	ldrb	w0, [x5, #5]
   80dc0:	f100189f 	cmp	x4, #0x6
   80dc4:	39001440 	strb	w0, [x2, #5]
   80dc8:	54000060 	b.eq	80dd4 <memcpy+0xc4>  // b.none
   80dcc:	394018a0 	ldrb	w0, [x5, #6]
   80dd0:	39001840 	strb	w0, [x2, #6]
   80dd4:	d65f03c0 	ret
   80dd8:	d2800003 	mov	x3, #0x0                   	// #0
   80ddc:	d503201f 	nop
   80de0:	38636824 	ldrb	w4, [x1, x3]
   80de4:	38236804 	strb	w4, [x0, x3]
   80de8:	91000463 	add	x3, x3, #0x1
   80dec:	eb03005f 	cmp	x2, x3
   80df0:	54ffff81 	b.ne	80de0 <memcpy+0xd0>  // b.any
   80df4:	d65f03c0 	ret
	...

0000000000080e00 <_GLOBAL__sub_I__ZN14RPIMachineInfoC2Ev>:
   80e00:	a9be7bfd 	stp	x29, x30, [sp, #-32]!
   80e04:	910003fd 	mov	x29, sp
   80e08:	a90153f3 	stp	x19, x20, [sp, #16]
   80e0c:	90000054 	adrp	x20, 88000 <_ZL4mbox+0xcd0>
   80e10:	910d0293 	add	x19, x20, #0x340
   80e14:	9100c260 	add	x0, x19, #0x30
   80e18:	940004da 	bl	82180 <_ZN8PSF2FontC1Ev>
   80e1c:	b0000020 	adrp	x0, 85000 <_ZL17_systemFontBuffer+0x1fd8>
   80e20:	f9465c02 	ldr	x2, [x0, #3256]
   80e24:	f0000040 	adrp	x0, 8b000 <_ZL4mbox+0x860>
   80e28:	912ee001 	add	x1, x0, #0xbb8
   80e2c:	52a40004 	mov	w4, #0x20000000            	// #536870912
   80e30:	d2a40003 	mov	x3, #0x20000000            	// #536870912
   80e34:	b9034284 	str	w4, [x20, #832]
   80e38:	f905dc03 	str	x3, [x0, #3000]
   80e3c:	91008260 	add	x0, x19, #0x20
   80e40:	f9000661 	str	x1, [x19, #8]
   80e44:	b900083f 	str	wzr, [x1, #8]
   80e48:	a9010662 	stp	x2, x1, [x19, #16]
   80e4c:	a94153f3 	ldp	x19, x20, [sp, #16]
   80e50:	a8c27bfd 	ldp	x29, x30, [sp], #32
   80e54:	1400063b 	b	82740 <_ZN11FramebufferC1Ev>
	...

0000000000080e60 <_Z13measureStringPc>:
   80e60:	aa0003e1 	mov	x1, x0
   80e64:	39400000 	ldrb	w0, [x0]
   80e68:	340000c0 	cbz	w0, 80e80 <_Z13measureStringPc+0x20>
   80e6c:	52800000 	mov	w0, #0x0                   	// #0
   80e70:	38401c22 	ldrb	w2, [x1, #1]!
   80e74:	11000400 	add	w0, w0, #0x1
   80e78:	35ffffc2 	cbnz	w2, 80e70 <_Z13measureStringPc+0x10>
   80e7c:	d65f03c0 	ret
   80e80:	52800000 	mov	w0, #0x0                   	// #0
   80e84:	d65f03c0 	ret
   80e88:	d503201f 	nop
   80e8c:	d503201f 	nop

0000000000080e90 <_ZN6StringD1Ev>:
   80e90:	39403001 	ldrb	w1, [x0, #12]
   80e94:	35000041 	cbnz	w1, 80e9c <_ZN6StringD1Ev+0xc>
   80e98:	d65f03c0 	ret
   80e9c:	f9400000 	ldr	x0, [x0]
   80ea0:	17fffe80 	b	808a0 <free>
   80ea4:	d503201f 	nop
   80ea8:	d503201f 	nop
   80eac:	d503201f 	nop

0000000000080eb0 <_ZN6StringC1Ei>:
   80eb0:	a9be7bfd 	stp	x29, x30, [sp, #-32]!
   80eb4:	12800002 	mov	w2, #0xffffffff            	// #-1
   80eb8:	910003fd 	mov	x29, sp
   80ebc:	a90153f3 	stp	x19, x20, [sp, #16]
   80ec0:	aa0003f3 	mov	x19, x0
   80ec4:	2a0103f4 	mov	w20, w1
   80ec8:	2a0103e0 	mov	w0, w1
   80ecc:	b9000a62 	str	w2, [x19, #8]
   80ed0:	3900327f 	strb	wzr, [x19, #12]
   80ed4:	97ffff5b 	bl	80c40 <malloc>
   80ed8:	f9000260 	str	x0, [x19]
   80edc:	52800021 	mov	w1, #0x1                   	// #1
   80ee0:	b9000a74 	str	w20, [x19, #8]
   80ee4:	39003261 	strb	w1, [x19, #12]
   80ee8:	a94153f3 	ldp	x19, x20, [sp, #16]
   80eec:	a8c27bfd 	ldp	x29, x30, [sp], #32
   80ef0:	d65f03c0 	ret
   80ef4:	d503201f 	nop
   80ef8:	d503201f 	nop
   80efc:	d503201f 	nop

0000000000080f00 <_ZN6StringC1ERKS_>:
   80f00:	a9bd7bfd 	stp	x29, x30, [sp, #-48]!
   80f04:	910003fd 	mov	x29, sp
   80f08:	a90153f3 	stp	x19, x20, [sp, #16]
   80f0c:	aa0003f4 	mov	x20, x0
   80f10:	b9400833 	ldr	w19, [x1, #8]
   80f14:	a9025bf5 	stp	x21, x22, [sp, #32]
   80f18:	12800000 	mov	w0, #0xffffffff            	// #-1
   80f1c:	aa0103f5 	mov	x21, x1
   80f20:	b9000a80 	str	w0, [x20, #8]
   80f24:	6b00027f 	cmp	w19, w0
   80f28:	3900329f 	strb	wzr, [x20, #12]
   80f2c:	93407e76 	sxtw	x22, w19
   80f30:	540001a0 	b.eq	80f64 <_ZN6StringC1ERKS_+0x64>  // b.none
   80f34:	2a1303e0 	mov	w0, w19
   80f38:	97ffff42 	bl	80c40 <malloc>
   80f3c:	aa1603e2 	mov	x2, x22
   80f40:	52800023 	mov	w3, #0x1                   	// #1
   80f44:	39003283 	strb	w3, [x20, #12]
   80f48:	f94002a1 	ldr	x1, [x21]
   80f4c:	a9425bf5 	ldp	x21, x22, [sp, #32]
   80f50:	f9000280 	str	x0, [x20]
   80f54:	b9000a93 	str	w19, [x20, #8]
   80f58:	a94153f3 	ldp	x19, x20, [sp, #16]
   80f5c:	a8c37bfd 	ldp	x29, x30, [sp], #48
   80f60:	17ffff6c 	b	80d10 <memcpy>
   80f64:	f9400020 	ldr	x0, [x1]
   80f68:	39400001 	ldrb	w1, [x0]
   80f6c:	34000101 	cbz	w1, 80f8c <_ZN6StringC1ERKS_+0x8c>
   80f70:	52800013 	mov	w19, #0x0                   	// #0
   80f74:	d503201f 	nop
   80f78:	38401c02 	ldrb	w2, [x0, #1]!
   80f7c:	11000673 	add	w19, w19, #0x1
   80f80:	35ffffc2 	cbnz	w2, 80f78 <_ZN6StringC1ERKS_+0x78>
   80f84:	93407e76 	sxtw	x22, w19
   80f88:	17ffffeb 	b	80f34 <_ZN6StringC1ERKS_+0x34>
   80f8c:	d2800016 	mov	x22, #0x0                   	// #0
   80f90:	52800013 	mov	w19, #0x0                   	// #0
   80f94:	17ffffe8 	b	80f34 <_ZN6StringC1ERKS_+0x34>
   80f98:	d503201f 	nop
   80f9c:	d503201f 	nop

0000000000080fa0 <_ZN6StringC1Ev>:
   80fa0:	f900001f 	str	xzr, [x0]
   80fa4:	b900081f 	str	wzr, [x0, #8]
   80fa8:	3900301f 	strb	wzr, [x0, #12]
   80fac:	d65f03c0 	ret

0000000000080fb0 <_ZN6StringC1EPKc>:
   80fb0:	12800002 	mov	w2, #0xffffffff            	// #-1
   80fb4:	f9000001 	str	x1, [x0]
   80fb8:	b9000802 	str	w2, [x0, #8]
   80fbc:	3900301f 	strb	wzr, [x0, #12]
   80fc0:	d65f03c0 	ret
   80fc4:	d503201f 	nop
   80fc8:	d503201f 	nop
   80fcc:	d503201f 	nop

0000000000080fd0 <_ZN6StringC1EPKci>:
   80fd0:	f9000001 	str	x1, [x0]
   80fd4:	b9000802 	str	w2, [x0, #8]
   80fd8:	3900301f 	strb	wzr, [x0, #12]
   80fdc:	d65f03c0 	ret

0000000000080fe0 <_ZN6StringplES_>:
   80fe0:	a9bb7bfd 	stp	x29, x30, [sp, #-80]!
   80fe4:	910003fd 	mov	x29, sp
   80fe8:	a90153f3 	stp	x19, x20, [sp, #16]
   80fec:	aa0803f4 	mov	x20, x8
   80ff0:	b9400813 	ldr	w19, [x0, #8]
   80ff4:	a9025bf5 	stp	x21, x22, [sp, #32]
   80ff8:	aa0003f6 	mov	x22, x0
   80ffc:	aa0103f5 	mov	x21, x1
   81000:	a90363f7 	stp	x23, x24, [sp, #48]
   81004:	3100067f 	cmn	w19, #0x1
   81008:	f90023f9 	str	x25, [sp, #64]
   8100c:	540003e0 	b.eq	81088 <_ZN6StringplES_+0xa8>  // b.none
   81010:	b9400aa2 	ldr	w2, [x21, #8]
   81014:	93407e78 	sxtw	x24, w19
   81018:	3100045f 	cmn	w2, #0x1
   8101c:	540004e0 	b.eq	810b8 <_ZN6StringplES_+0xd8>  // b.none
   81020:	0b020273 	add	w19, w19, w2
   81024:	93407c57 	sxtw	x23, w2
   81028:	12800000 	mov	w0, #0xffffffff            	// #-1
   8102c:	b9000a80 	str	w0, [x20, #8]
   81030:	3900329f 	strb	wzr, [x20, #12]
   81034:	2a1303e0 	mov	w0, w19
   81038:	97ffff02 	bl	80c40 <malloc>
   8103c:	f9000280 	str	x0, [x20]
   81040:	52800022 	mov	w2, #0x1                   	// #1
   81044:	b9000a93 	str	w19, [x20, #8]
   81048:	f94002c1 	ldr	x1, [x22]
   8104c:	39003282 	strb	w2, [x20, #12]
   81050:	aa0003f9 	mov	x25, x0
   81054:	aa1803e2 	mov	x2, x24
   81058:	97ffff2e 	bl	80d10 <memcpy>
   8105c:	f94002a1 	ldr	x1, [x21]
   81060:	8b180320 	add	x0, x25, x24
   81064:	aa1703e2 	mov	x2, x23
   81068:	97ffff2a 	bl	80d10 <memcpy>
   8106c:	aa1403e0 	mov	x0, x20
   81070:	a94153f3 	ldp	x19, x20, [sp, #16]
   81074:	a9425bf5 	ldp	x21, x22, [sp, #32]
   81078:	a94363f7 	ldp	x23, x24, [sp, #48]
   8107c:	f94023f9 	ldr	x25, [sp, #64]
   81080:	a8c57bfd 	ldp	x29, x30, [sp], #80
   81084:	d65f03c0 	ret
   81088:	f9400002 	ldr	x2, [x0]
   8108c:	39400040 	ldrb	w0, [x2]
   81090:	340002a0 	cbz	w0, 810e4 <_ZN6StringplES_+0x104>
   81094:	52800013 	mov	w19, #0x0                   	// #0
   81098:	38401c40 	ldrb	w0, [x2, #1]!
   8109c:	11000673 	add	w19, w19, #0x1
   810a0:	35ffffc0 	cbnz	w0, 81098 <_ZN6StringplES_+0xb8>
   810a4:	93407e78 	sxtw	x24, w19
   810a8:	b9000ad3 	str	w19, [x22, #8]
   810ac:	b9400aa2 	ldr	w2, [x21, #8]
   810b0:	3100045f 	cmn	w2, #0x1
   810b4:	54fffb61 	b.ne	81020 <_ZN6StringplES_+0x40>  // b.any
   810b8:	f94002a2 	ldr	x2, [x21]
   810bc:	39400040 	ldrb	w0, [x2]
   810c0:	340001a0 	cbz	w0, 810f4 <_ZN6StringplES_+0x114>
   810c4:	52800003 	mov	w3, #0x0                   	// #0
   810c8:	38401c40 	ldrb	w0, [x2, #1]!
   810cc:	11000463 	add	w3, w3, #0x1
   810d0:	35ffffc0 	cbnz	w0, 810c8 <_ZN6StringplES_+0xe8>
   810d4:	0b030273 	add	w19, w19, w3
   810d8:	93407c77 	sxtw	x23, w3
   810dc:	b9000aa3 	str	w3, [x21, #8]
   810e0:	17ffffd2 	b	81028 <_ZN6StringplES_+0x48>
   810e4:	52800013 	mov	w19, #0x0                   	// #0
   810e8:	d2800018 	mov	x24, #0x0                   	// #0
   810ec:	b9000ad3 	str	w19, [x22, #8]
   810f0:	17ffffef 	b	810ac <_ZN6StringplES_+0xcc>
   810f4:	52800003 	mov	w3, #0x0                   	// #0
   810f8:	d2800017 	mov	x23, #0x0                   	// #0
   810fc:	b9000aa3 	str	w3, [x21, #8]
   81100:	17ffffca 	b	81028 <_ZN6StringplES_+0x48>
   81104:	d503201f 	nop
   81108:	d503201f 	nop
   8110c:	d503201f 	nop

0000000000081110 <_ZN6String9GetLengthEv>:
   81110:	aa0003e3 	mov	x3, x0
   81114:	b9400800 	ldr	w0, [x0, #8]
   81118:	3100041f 	cmn	w0, #0x1
   8111c:	54000040 	b.eq	81124 <_ZN6String9GetLengthEv+0x14>  // b.none
   81120:	d65f03c0 	ret
   81124:	f9400061 	ldr	x1, [x3]
   81128:	39400020 	ldrb	w0, [x1]
   8112c:	34000100 	cbz	w0, 8114c <_ZN6String9GetLengthEv+0x3c>
   81130:	52800000 	mov	w0, #0x0                   	// #0
   81134:	d503201f 	nop
   81138:	38401c22 	ldrb	w2, [x1, #1]!
   8113c:	11000400 	add	w0, w0, #0x1
   81140:	35ffffc2 	cbnz	w2, 81138 <_ZN6String9GetLengthEv+0x28>
   81144:	b9000860 	str	w0, [x3, #8]
   81148:	d65f03c0 	ret
   8114c:	52800000 	mov	w0, #0x0                   	// #0
   81150:	b9000860 	str	w0, [x3, #8]
   81154:	17fffffd 	b	81148 <_ZN6String9GetLengthEv+0x38>
   81158:	d503201f 	nop
   8115c:	d503201f 	nop

0000000000081160 <_ZN6String6RemoveEi>:
   81160:	aa0003e2 	mov	x2, x0
   81164:	aa0803e0 	mov	x0, x8
   81168:	f9400042 	ldr	x2, [x2]
   8116c:	f9000102 	str	x2, [x8]
   81170:	b9000901 	str	w1, [x8, #8]
   81174:	3900311f 	strb	wzr, [x8, #12]
   81178:	d65f03c0 	ret
   8117c:	d503201f 	nop

0000000000081180 <_ZN6String9SubstringEi>:
   81180:	aa0003e5 	mov	x5, x0
   81184:	aa0803e0 	mov	x0, x8
   81188:	f94000a3 	ldr	x3, [x5]
   8118c:	b94008a2 	ldr	w2, [x5, #8]
   81190:	8b21c066 	add	x6, x3, w1, sxtw
   81194:	3100045f 	cmn	w2, #0x1
   81198:	540000c0 	b.eq	811b0 <_ZN6String9SubstringEi+0x30>  // b.none
   8119c:	4b010042 	sub	w2, w2, w1
   811a0:	f9000006 	str	x6, [x0]
   811a4:	b9000802 	str	w2, [x0, #8]
   811a8:	3900301f 	strb	wzr, [x0, #12]
   811ac:	d65f03c0 	ret
   811b0:	39400062 	ldrb	w2, [x3]
   811b4:	34000182 	cbz	w2, 811e4 <_ZN6String9SubstringEi+0x64>
   811b8:	52800002 	mov	w2, #0x0                   	// #0
   811bc:	d503201f 	nop
   811c0:	38401c64 	ldrb	w4, [x3, #1]!
   811c4:	11000442 	add	w2, w2, #0x1
   811c8:	35ffffc4 	cbnz	w4, 811c0 <_ZN6String9SubstringEi+0x40>
   811cc:	b90008a2 	str	w2, [x5, #8]
   811d0:	4b010042 	sub	w2, w2, w1
   811d4:	f9000006 	str	x6, [x0]
   811d8:	b9000802 	str	w2, [x0, #8]
   811dc:	3900301f 	strb	wzr, [x0, #12]
   811e0:	d65f03c0 	ret
   811e4:	52800002 	mov	w2, #0x0                   	// #0
   811e8:	b90008a2 	str	w2, [x5, #8]
   811ec:	17fffff9 	b	811d0 <_ZN6String9SubstringEi+0x50>

00000000000811f0 <_ZN6String9SubstringEii>:
   811f0:	aa0003e3 	mov	x3, x0
   811f4:	aa0803e0 	mov	x0, x8
   811f8:	f9400063 	ldr	x3, [x3]
   811fc:	b9000902 	str	w2, [x8, #8]
   81200:	3900311f 	strb	wzr, [x8, #12]
   81204:	8b21c061 	add	x1, x3, w1, sxtw
   81208:	f9000101 	str	x1, [x8]
   8120c:	d65f03c0 	ret

0000000000081210 <_ZN6String8ToUInt64E22StringConversionFormat>:
   81210:	b9400802 	ldr	w2, [x0, #8]
   81214:	aa0003e5 	mov	x5, x0
   81218:	2a0103e6 	mov	w6, w1
   8121c:	3100045f 	cmn	w2, #0x1
   81220:	540005a0 	b.eq	812d4 <_ZN6String8ToUInt64E22StringConversionFormat+0xc4>  // b.none
   81224:	7100043f 	cmp	w1, #0x1
   81228:	540002e0 	b.eq	81284 <_ZN6String8ToUInt64E22StringConversionFormat+0x74>  // b.none
   8122c:	7100083f 	cmp	w1, #0x2
   81230:	54000a60 	b.eq	8137c <_ZN6String8ToUInt64E22StringConversionFormat+0x16c>  // b.none
   81234:	d2800000 	mov	x0, #0x0                   	// #0
   81238:	35000246 	cbnz	w6, 81280 <_ZN6String8ToUInt64E22StringConversionFormat+0x70>
   8123c:	7100005f 	cmp	w2, #0x0
   81240:	5400020d 	b.le	81280 <_ZN6String8ToUInt64E22StringConversionFormat+0x70>
   81244:	f94000a3 	ldr	x3, [x5]
   81248:	51000442 	sub	w2, w2, #0x1
   8124c:	91000461 	add	x1, x3, #0x1
   81250:	8b020022 	add	x2, x1, x2
   81254:	14000004 	b	81264 <_ZN6String8ToUInt64E22StringConversionFormat+0x54>
   81258:	8b000420 	add	x0, x1, x0, lsl #1
   8125c:	eb02007f 	cmp	x3, x2
   81260:	54000100 	b.eq	81280 <_ZN6String8ToUInt64E22StringConversionFormat+0x70>  // b.none
   81264:	39400061 	ldrb	w1, [x3]
   81268:	91000463 	add	x3, x3, #0x1
   8126c:	5100c021 	sub	w1, w1, #0x30
   81270:	12001c24 	and	w4, w1, #0xff
   81274:	7100049f 	cmp	w4, #0x1
   81278:	93407c21 	sxtw	x1, w1
   8127c:	54fffee9 	b.ls	81258 <_ZN6String8ToUInt64E22StringConversionFormat+0x48>  // b.plast
   81280:	d65f03c0 	ret
   81284:	7100005f 	cmp	w2, #0x0
   81288:	5400088d 	b.le	81398 <_ZN6String8ToUInt64E22StringConversionFormat+0x188>
   8128c:	f9400001 	ldr	x1, [x0]
   81290:	51000442 	sub	w2, w2, #0x1
   81294:	91000423 	add	x3, x1, #0x1
   81298:	d2800000 	mov	x0, #0x0                   	// #0
   8129c:	8b030043 	add	x3, x2, x3
   812a0:	14000004 	b	812b0 <_ZN6String8ToUInt64E22StringConversionFormat+0xa0>
   812a4:	8b050440 	add	x0, x2, x5, lsl #1
   812a8:	eb01007f 	cmp	x3, x1
   812ac:	54fffea0 	b.eq	81280 <_ZN6String8ToUInt64E22StringConversionFormat+0x70>  // b.none
   812b0:	39400022 	ldrb	w2, [x1]
   812b4:	8b000805 	add	x5, x0, x0, lsl #2
   812b8:	91000421 	add	x1, x1, #0x1
   812bc:	5100c042 	sub	w2, w2, #0x30
   812c0:	12001c44 	and	w4, w2, #0xff
   812c4:	7100249f 	cmp	w4, #0x9
   812c8:	93407c42 	sxtw	x2, w2
   812cc:	54fffec9 	b.ls	812a4 <_ZN6String8ToUInt64E22StringConversionFormat+0x94>  // b.plast
   812d0:	d65f03c0 	ret
   812d4:	f9400001 	ldr	x1, [x0]
   812d8:	aa0103e3 	mov	x3, x1
   812dc:	39400020 	ldrb	w0, [x1]
   812e0:	34000560 	cbz	w0, 8138c <_ZN6String8ToUInt64E22StringConversionFormat+0x17c>
   812e4:	52800002 	mov	w2, #0x0                   	// #0
   812e8:	38401c64 	ldrb	w4, [x3, #1]!
   812ec:	11000442 	add	w2, w2, #0x1
   812f0:	35ffffc4 	cbnz	w4, 812e8 <_ZN6String8ToUInt64E22StringConversionFormat+0xd8>
   812f4:	b90008a2 	str	w2, [x5, #8]
   812f8:	710004df 	cmp	w6, #0x1
   812fc:	54fffca0 	b.eq	81290 <_ZN6String8ToUInt64E22StringConversionFormat+0x80>  // b.none
   81300:	710008df 	cmp	w6, #0x2
   81304:	54fff981 	b.ne	81234 <_ZN6String8ToUInt64E22StringConversionFormat+0x24>  // b.any
   81308:	51000442 	sub	w2, w2, #0x1
   8130c:	91000426 	add	x6, x1, #0x1
   81310:	8b0200c6 	add	x6, x6, x2
   81314:	d2800000 	mov	x0, #0x0                   	// #0
   81318:	1400000f 	b	81354 <_ZN6String8ToUInt64E22StringConversionFormat+0x144>
   8131c:	51015c45 	sub	w5, w2, #0x57
   81320:	5100dc43 	sub	w3, w2, #0x37
   81324:	51018442 	sub	w2, w2, #0x61
   81328:	7100149f 	cmp	w4, #0x5
   8132c:	93407ca5 	sxtw	x5, w5
   81330:	93407c63 	sxtw	x3, w3
   81334:	12001c42 	and	w2, w2, #0xff
   81338:	540001e9 	b.ls	81374 <_ZN6String8ToUInt64E22StringConversionFormat+0x164>  // b.plast
   8133c:	7100145f 	cmp	w2, #0x5
   81340:	54fffa08 	b.hi	81280 <_ZN6String8ToUInt64E22StringConversionFormat+0x70>  // b.pmore
   81344:	8b0010a0 	add	x0, x5, x0, lsl #4
   81348:	91000421 	add	x1, x1, #0x1
   8134c:	eb06003f 	cmp	x1, x6
   81350:	54fff980 	b.eq	81280 <_ZN6String8ToUInt64E22StringConversionFormat+0x70>  // b.none
   81354:	39400022 	ldrb	w2, [x1]
   81358:	5100c043 	sub	w3, w2, #0x30
   8135c:	51010444 	sub	w4, w2, #0x41
   81360:	12001c65 	and	w5, w3, #0xff
   81364:	12001c84 	and	w4, w4, #0xff
   81368:	93407c63 	sxtw	x3, w3
   8136c:	710024bf 	cmp	w5, #0x9
   81370:	54fffd68 	b.hi	8131c <_ZN6String8ToUInt64E22StringConversionFormat+0x10c>  // b.pmore
   81374:	8b001060 	add	x0, x3, x0, lsl #4
   81378:	17fffff4 	b	81348 <_ZN6String8ToUInt64E22StringConversionFormat+0x138>
   8137c:	7100005f 	cmp	w2, #0x0
   81380:	540000cd 	b.le	81398 <_ZN6String8ToUInt64E22StringConversionFormat+0x188>
   81384:	f9400001 	ldr	x1, [x0]
   81388:	17ffffe0 	b	81308 <_ZN6String8ToUInt64E22StringConversionFormat+0xf8>
   8138c:	d2800000 	mov	x0, #0x0                   	// #0
   81390:	b90008bf 	str	wzr, [x5, #8]
   81394:	d65f03c0 	ret
   81398:	d2800000 	mov	x0, #0x0                   	// #0
   8139c:	d65f03c0 	ret

00000000000813a0 <_Z14ParseIntBinaryji>:
   813a0:	a9bd7bfd 	stp	x29, x30, [sp, #-48]!
   813a4:	12800002 	mov	w2, #0xffffffff            	// #-1
   813a8:	910003fd 	mov	x29, sp
   813ac:	a90153f3 	stp	x19, x20, [sp, #16]
   813b0:	aa0803f3 	mov	x19, x8
   813b4:	2a0103f4 	mov	w20, w1
   813b8:	f90013f5 	str	x21, [sp, #32]
   813bc:	2a0003f5 	mov	w21, w0
   813c0:	b9000902 	str	w2, [x8, #8]
   813c4:	2a0103e0 	mov	w0, w1
   813c8:	3900311f 	strb	wzr, [x8, #12]
   813cc:	97fffe1d 	bl	80c40 <malloc>
   813d0:	f9000260 	str	x0, [x19]
   813d4:	52800021 	mov	w1, #0x1                   	// #1
   813d8:	b9000a74 	str	w20, [x19, #8]
   813dc:	39003261 	strb	w1, [x19, #12]
   813e0:	7100029f 	cmp	w20, #0x0
   813e4:	5400020d 	b.le	81424 <_Z14ParseIntBinaryji+0x84>
   813e8:	51000686 	sub	w6, w20, #0x1
   813ec:	d2800002 	mov	x2, #0x0                   	// #0
   813f0:	52800025 	mov	w5, #0x1                   	// #1
   813f4:	52800604 	mov	w4, #0x30                  	// #48
   813f8:	52800621 	mov	w1, #0x31                  	// #49
   813fc:	14000002 	b	81404 <_Z14ParseIntBinaryji+0x64>
   81400:	f9400260 	ldr	x0, [x19]
   81404:	4b0200c3 	sub	w3, w6, w2
   81408:	1ac320a3 	lsl	w3, w5, w3
   8140c:	6a15007f 	tst	w3, w21
   81410:	1a841023 	csel	w3, w1, w4, ne  // ne = any
   81414:	38226803 	strb	w3, [x0, x2]
   81418:	91000442 	add	x2, x2, #0x1
   8141c:	6b02029f 	cmp	w20, w2
   81420:	54ffff0c 	b.gt	81400 <_Z14ParseIntBinaryji+0x60>
   81424:	aa1303e0 	mov	x0, x19
   81428:	a94153f3 	ldp	x19, x20, [sp, #16]
   8142c:	f94013f5 	ldr	x21, [sp, #32]
   81430:	a8c37bfd 	ldp	x29, x30, [sp], #48
   81434:	d65f03c0 	ret
   81438:	d503201f 	nop
   8143c:	d503201f 	nop

0000000000081440 <_Z11ParseIntHexji>:
   81440:	a9bd7bfd 	stp	x29, x30, [sp, #-48]!
   81444:	7100003f 	cmp	w1, #0x0
   81448:	910003fd 	mov	x29, sp
   8144c:	a90153f3 	stp	x19, x20, [sp, #16]
   81450:	11000c34 	add	w20, w1, #0x3
   81454:	1a81b294 	csel	w20, w20, w1, lt  // lt = tstop
   81458:	a9025bf5 	stp	x21, x22, [sp, #32]
   8145c:	2a0103f3 	mov	w19, w1
   81460:	aa0803f6 	mov	x22, x8
   81464:	12800001 	mov	w1, #0xffffffff            	// #-1
   81468:	b9000901 	str	w1, [x8, #8]
   8146c:	3900311f 	strb	wzr, [x8, #12]
   81470:	13027e94 	asr	w20, w20, #2
   81474:	2a0003f5 	mov	w21, w0
   81478:	2a1403e0 	mov	w0, w20
   8147c:	97fffdf1 	bl	80c40 <malloc>
   81480:	f90002c0 	str	x0, [x22]
   81484:	52800021 	mov	w1, #0x1                   	// #1
   81488:	b9000ad4 	str	w20, [x22, #8]
   8148c:	390032c1 	strb	w1, [x22, #12]
   81490:	71000e7f 	cmp	w19, #0x3
   81494:	5400028d 	b.le	814e4 <_Z11ParseIntHexji+0xa4>
   81498:	51001263 	sub	w3, w19, #0x4
   8149c:	d2800004 	mov	x4, #0x0                   	// #0
   814a0:	528001e6 	mov	w6, #0xf                   	// #15
   814a4:	d503201f 	nop
   814a8:	1ac320c2 	lsl	w2, w6, w3
   814ac:	0a150042 	and	w2, w2, w21
   814b0:	1ac32442 	lsr	w2, w2, w3
   814b4:	12001c41 	and	w1, w2, #0xff
   814b8:	1100c025 	add	w5, w1, #0x30
   814bc:	1100dc21 	add	w1, w1, #0x37
   814c0:	7100245f 	cmp	w2, #0x9
   814c4:	12001c21 	and	w1, w1, #0xff
   814c8:	12001ca2 	and	w2, w5, #0xff
   814cc:	51001063 	sub	w3, w3, #0x4
   814d0:	1a828021 	csel	w1, w1, w2, hi  // hi = pmore
   814d4:	38246801 	strb	w1, [x0, x4]
   814d8:	91000484 	add	x4, x4, #0x1
   814dc:	6b04029f 	cmp	w20, w4
   814e0:	54fffe4c 	b.gt	814a8 <_Z11ParseIntHexji+0x68>
   814e4:	aa1603e0 	mov	x0, x22
   814e8:	a94153f3 	ldp	x19, x20, [sp, #16]
   814ec:	a9425bf5 	ldp	x21, x22, [sp, #32]
   814f0:	a8c37bfd 	ldp	x29, x30, [sp], #48
   814f4:	d65f03c0 	ret
   814f8:	d503201f 	nop
   814fc:	d503201f 	nop

0000000000081500 <_ZN6String8ParseIntEi22StringConversionFormat>:
   81500:	a9bc7bfd 	stp	x29, x30, [sp, #-64]!
   81504:	910003fd 	mov	x29, sp
   81508:	a90153f3 	stp	x19, x20, [sp, #16]
   8150c:	aa0803f3 	mov	x19, x8
   81510:	2a0003f4 	mov	w20, w0
   81514:	34000f01 	cbz	w1, 816f4 <_ZN6String8ParseIntEi22StringConversionFormat+0x1f4>
   81518:	7100083f 	cmp	w1, #0x2
   8151c:	54000700 	b.eq	815fc <_ZN6String8ParseIntEi22StringConversionFormat+0xfc>  // b.none
   81520:	a9025bf5 	stp	x21, x22, [sp, #32]
   81524:	a90363f7 	stp	x23, x24, [sp, #48]
   81528:	93407c18 	sxtw	x24, w0
   8152c:	37f81214 	tbnz	w20, #31, 8176c <_ZN6String8ParseIntEi22StringConversionFormat+0x26c>
   81530:	aa1803f4 	mov	x20, x24
   81534:	aa1803e0 	mov	x0, x24
   81538:	52800015 	mov	w21, #0x0                   	// #0
   8153c:	b202e7e2 	mov	x2, #0xcccccccccccccccc    	// #-3689348814741910324
   81540:	f29999a2 	movk	x2, #0xcccd
   81544:	d503201f 	nop
   81548:	9bc27c01 	umulh	x1, x0, x2
   8154c:	f100241f 	cmp	x0, #0x9
   81550:	110006b5 	add	w21, w21, #0x1
   81554:	d343fc20 	lsr	x0, x1, #3
   81558:	54ffff8c 	b.gt	81548 <_ZN6String8ParseIntEi22StringConversionFormat+0x48>
   8155c:	2a1503e0 	mov	w0, w21
   81560:	93407eb6 	sxtw	x22, w21
   81564:	97fffdb7 	bl	80c40 <malloc>
   81568:	aa0003f7 	mov	x23, x0
   8156c:	d10006c5 	sub	x5, x22, #0x1
   81570:	b203e7e6 	mov	x6, #0x6666666666666666    	// #7378697629483820646
   81574:	8b050005 	add	x5, x0, x5
   81578:	f28ccce6 	movk	x6, #0x6667
   8157c:	d503201f 	nop
   81580:	9b467e83 	smulh	x3, x20, x6
   81584:	f100269f 	cmp	x20, #0x9
   81588:	9342fc63 	asr	x3, x3, #2
   8158c:	cb94fc63 	sub	x3, x3, x20, asr #63
   81590:	8b030864 	add	x4, x3, x3, lsl #2
   81594:	cb040684 	sub	x4, x20, x4, lsl #1
   81598:	aa0303f4 	mov	x20, x3
   8159c:	1100c083 	add	w3, w4, #0x30
   815a0:	381ff4a3 	strb	w3, [x5], #-1
   815a4:	54fffeec 	b.gt	81580 <_ZN6String8ParseIntEi22StringConversionFormat+0x80>
   815a8:	b7f80dd8 	tbnz	x24, #63, 81760 <_ZN6String8ParseIntEi22StringConversionFormat+0x260>
   815ac:	12800000 	mov	w0, #0xffffffff            	// #-1
   815b0:	b9000a60 	str	w0, [x19, #8]
   815b4:	3900327f 	strb	wzr, [x19, #12]
   815b8:	2a1503e0 	mov	w0, w21
   815bc:	97fffda1 	bl	80c40 <malloc>
   815c0:	f9000260 	str	x0, [x19]
   815c4:	aa1603e2 	mov	x2, x22
   815c8:	aa1703e1 	mov	x1, x23
   815cc:	52800023 	mov	w3, #0x1                   	// #1
   815d0:	b9000a75 	str	w21, [x19, #8]
   815d4:	39003263 	strb	w3, [x19, #12]
   815d8:	97fffdce 	bl	80d10 <memcpy>
   815dc:	aa1703e0 	mov	x0, x23
   815e0:	97fffcb0 	bl	808a0 <free>
   815e4:	aa1303e0 	mov	x0, x19
   815e8:	a94153f3 	ldp	x19, x20, [sp, #16]
   815ec:	a9425bf5 	ldp	x21, x22, [sp, #32]
   815f0:	a94363f7 	ldp	x23, x24, [sp, #48]
   815f4:	a8c47bfd 	ldp	x29, x30, [sp], #64
   815f8:	d65f03c0 	ret
   815fc:	12800000 	mov	w0, #0xffffffff            	// #-1
   81600:	b9000900 	str	w0, [x8, #8]
   81604:	3900311f 	strb	wzr, [x8, #12]
   81608:	52800100 	mov	w0, #0x8                   	// #8
   8160c:	97fffd8d 	bl	80c40 <malloc>
   81610:	f9000260 	str	x0, [x19]
   81614:	531c7e81 	lsr	w1, w20, #28
   81618:	d3586e82 	ubfx	x2, x20, #24, #4
   8161c:	7100283f 	cmp	w1, #0xa
   81620:	1100dc26 	add	w6, w1, #0x37
   81624:	1100c021 	add	w1, w1, #0x30
   81628:	1100dc43 	add	w3, w2, #0x37
   8162c:	1a863026 	csel	w6, w1, w6, cc  // cc = lo, ul, last
   81630:	1100c047 	add	w7, w2, #0x30
   81634:	d3545e81 	ubfx	x1, x20, #20, #4
   81638:	7100285f 	cmp	w2, #0xa
   8163c:	1a8330e7 	csel	w7, w7, w3, cc  // cc = lo, ul, last
   81640:	1100dc22 	add	w2, w1, #0x37
   81644:	7100283f 	cmp	w1, #0xa
   81648:	1100c025 	add	w5, w1, #0x30
   8164c:	d3504e81 	ubfx	x1, x20, #16, #4
   81650:	1a8230a5 	csel	w5, w5, w2, cc  // cc = lo, ul, last
   81654:	1100c024 	add	w4, w1, #0x30
   81658:	1100dc22 	add	w2, w1, #0x37
   8165c:	7100283f 	cmp	w1, #0xa
   81660:	d34c3e81 	ubfx	x1, x20, #12, #4
   81664:	1a823084 	csel	w4, w4, w2, cc  // cc = lo, ul, last
   81668:	1100dc23 	add	w3, w1, #0x37
   8166c:	7100283f 	cmp	w1, #0xa
   81670:	1100c022 	add	w2, w1, #0x30
   81674:	d3482e81 	ubfx	x1, x20, #8, #4
   81678:	1a833043 	csel	w3, w2, w3, cc  // cc = lo, ul, last
   8167c:	1100dc28 	add	w8, w1, #0x37
   81680:	7100283f 	cmp	w1, #0xa
   81684:	1100c022 	add	w2, w1, #0x30
   81688:	d3441e81 	ubfx	x1, x20, #4, #4
   8168c:	1a883042 	csel	w2, w2, w8, cc  // cc = lo, ul, last
   81690:	12000e8b 	and	w11, w20, #0xf
   81694:	1100dc29 	add	w9, w1, #0x37
   81698:	7100283f 	cmp	w1, #0xa
   8169c:	1100c021 	add	w1, w1, #0x30
   816a0:	1100dd74 	add	w20, w11, #0x37
   816a4:	1a893021 	csel	w1, w1, w9, cc  // cc = lo, ul, last
   816a8:	5280010a 	mov	w10, #0x8                   	// #8
   816ac:	1100c169 	add	w9, w11, #0x30
   816b0:	7100257f 	cmp	w11, #0x9
   816b4:	52800028 	mov	w8, #0x1                   	// #1
   816b8:	b9000a6a 	str	w10, [x19, #8]
   816bc:	39003268 	strb	w8, [x19, #12]
   816c0:	1a898294 	csel	w20, w20, w9, hi  // hi = pmore
   816c4:	39000006 	strb	w6, [x0]
   816c8:	39000407 	strb	w7, [x0, #1]
   816cc:	39000805 	strb	w5, [x0, #2]
   816d0:	39000c04 	strb	w4, [x0, #3]
   816d4:	39001003 	strb	w3, [x0, #4]
   816d8:	39001402 	strb	w2, [x0, #5]
   816dc:	39001801 	strb	w1, [x0, #6]
   816e0:	39001c14 	strb	w20, [x0, #7]
   816e4:	aa1303e0 	mov	x0, x19
   816e8:	a94153f3 	ldp	x19, x20, [sp, #16]
   816ec:	a8c47bfd 	ldp	x29, x30, [sp], #64
   816f0:	d65f03c0 	ret
   816f4:	12800000 	mov	w0, #0xffffffff            	// #-1
   816f8:	b9000900 	str	w0, [x8, #8]
   816fc:	3900311f 	strb	wzr, [x8, #12]
   81700:	52800400 	mov	w0, #0x20                  	// #32
   81704:	97fffd4f 	bl	80c40 <malloc>
   81708:	f9000260 	str	x0, [x19]
   8170c:	52800406 	mov	w6, #0x20                  	// #32
   81710:	52800022 	mov	w2, #0x1                   	// #1
   81714:	d2800001 	mov	x1, #0x0                   	// #0
   81718:	52b00005 	mov	w5, #0x80000000            	// #-2147483648
   8171c:	52800604 	mov	w4, #0x30                  	// #48
   81720:	52800623 	mov	w3, #0x31                  	// #49
   81724:	b9000a66 	str	w6, [x19, #8]
   81728:	39003262 	strb	w2, [x19, #12]
   8172c:	14000002 	b	81734 <_ZN6String8ParseIntEi22StringConversionFormat+0x234>
   81730:	f9400260 	ldr	x0, [x19]
   81734:	1ac124a2 	lsr	w2, w5, w1
   81738:	6a14005f 	tst	w2, w20
   8173c:	1a841062 	csel	w2, w3, w4, ne  // ne = any
   81740:	38216802 	strb	w2, [x0, x1]
   81744:	91000421 	add	x1, x1, #0x1
   81748:	f100803f 	cmp	x1, #0x20
   8174c:	54ffff21 	b.ne	81730 <_ZN6String8ParseIntEi22StringConversionFormat+0x230>  // b.any
   81750:	aa1303e0 	mov	x0, x19
   81754:	a94153f3 	ldp	x19, x20, [sp, #16]
   81758:	a8c47bfd 	ldp	x29, x30, [sp], #64
   8175c:	d65f03c0 	ret
   81760:	528005a0 	mov	w0, #0x2d                  	// #45
   81764:	390000a0 	strb	w0, [x5]
   81768:	17ffff91 	b	815ac <_ZN6String8ParseIntEi22StringConversionFormat+0xac>
   8176c:	cb1803e0 	neg	x0, x24
   81770:	52800035 	mov	w21, #0x1                   	// #1
   81774:	93407c14 	sxtw	x20, w0
   81778:	17ffff71 	b	8153c <_ZN6String8ParseIntEi22StringConversionFormat+0x3c>
   8177c:	d503201f 	nop

0000000000081780 <_ZN6String8ParseIntEj22StringConversionFormat>:
   81780:	a9bc7bfd 	stp	x29, x30, [sp, #-64]!
   81784:	910003fd 	mov	x29, sp
   81788:	a90153f3 	stp	x19, x20, [sp, #16]
   8178c:	2a0003f3 	mov	w19, w0
   81790:	a9025bf5 	stp	x21, x22, [sp, #32]
   81794:	aa0803f5 	mov	x21, x8
   81798:	34000661 	cbz	w1, 81864 <_ZN6String8ParseIntEj22StringConversionFormat+0xe4>
   8179c:	b202e7e2 	mov	x2, #0xcccccccccccccccc    	// #-3689348814741910324
   817a0:	7100083f 	cmp	w1, #0x2
   817a4:	52800014 	mov	w20, #0x0                   	// #0
   817a8:	aa1303e1 	mov	x1, x19
   817ac:	f29999a2 	movk	x2, #0xcccd
   817b0:	54000940 	b.eq	818d8 <_ZN6String8ParseIntEj22StringConversionFormat+0x158>  // b.none
   817b4:	f9001bf7 	str	x23, [sp, #48]
   817b8:	9bc27c20 	umulh	x0, x1, x2
   817bc:	f100243f 	cmp	x1, #0x9
   817c0:	11000694 	add	w20, w20, #0x1
   817c4:	d343fc01 	lsr	x1, x0, #3
   817c8:	54ffff88 	b.hi	817b8 <_ZN6String8ParseIntEj22StringConversionFormat+0x38>  // b.pmore
   817cc:	2a1403e0 	mov	w0, w20
   817d0:	93407e96 	sxtw	x22, w20
   817d4:	97fffd1b 	bl	80c40 <malloc>
   817d8:	aa0003f7 	mov	x23, x0
   817dc:	d10006c5 	sub	x5, x22, #0x1
   817e0:	b202e7e6 	mov	x6, #0xcccccccccccccccc    	// #-3689348814741910324
   817e4:	8b050005 	add	x5, x0, x5
   817e8:	f29999a6 	movk	x6, #0xcccd
   817ec:	d503201f 	nop
   817f0:	9bc67e64 	umulh	x4, x19, x6
   817f4:	f100267f 	cmp	x19, #0x9
   817f8:	d343fc84 	lsr	x4, x4, #3
   817fc:	8b040883 	add	x3, x4, x4, lsl #2
   81800:	cb030663 	sub	x3, x19, x3, lsl #1
   81804:	aa0403f3 	mov	x19, x4
   81808:	1100c063 	add	w3, w3, #0x30
   8180c:	381ff4a3 	strb	w3, [x5], #-1
   81810:	54ffff08 	b.hi	817f0 <_ZN6String8ParseIntEj22StringConversionFormat+0x70>  // b.pmore
   81814:	12800000 	mov	w0, #0xffffffff            	// #-1
   81818:	b9000aa0 	str	w0, [x21, #8]
   8181c:	390032bf 	strb	wzr, [x21, #12]
   81820:	2a1403e0 	mov	w0, w20
   81824:	97fffd07 	bl	80c40 <malloc>
   81828:	f90002a0 	str	x0, [x21]
   8182c:	aa1603e2 	mov	x2, x22
   81830:	aa1703e1 	mov	x1, x23
   81834:	52800023 	mov	w3, #0x1                   	// #1
   81838:	b9000ab4 	str	w20, [x21, #8]
   8183c:	390032a3 	strb	w3, [x21, #12]
   81840:	97fffd34 	bl	80d10 <memcpy>
   81844:	aa1703e0 	mov	x0, x23
   81848:	97fffc16 	bl	808a0 <free>
   8184c:	aa1503e0 	mov	x0, x21
   81850:	a94153f3 	ldp	x19, x20, [sp, #16]
   81854:	a9425bf5 	ldp	x21, x22, [sp, #32]
   81858:	f9401bf7 	ldr	x23, [sp, #48]
   8185c:	a8c47bfd 	ldp	x29, x30, [sp], #64
   81860:	d65f03c0 	ret
   81864:	12800000 	mov	w0, #0xffffffff            	// #-1
   81868:	b9000900 	str	w0, [x8, #8]
   8186c:	3900311f 	strb	wzr, [x8, #12]
   81870:	52800400 	mov	w0, #0x20                  	// #32
   81874:	97fffcf3 	bl	80c40 <malloc>
   81878:	f90002a0 	str	x0, [x21]
   8187c:	52800406 	mov	w6, #0x20                  	// #32
   81880:	52800022 	mov	w2, #0x1                   	// #1
   81884:	d2800001 	mov	x1, #0x0                   	// #0
   81888:	52b00005 	mov	w5, #0x80000000            	// #-2147483648
   8188c:	52800604 	mov	w4, #0x30                  	// #48
   81890:	52800623 	mov	w3, #0x31                  	// #49
   81894:	b9000aa6 	str	w6, [x21, #8]
   81898:	390032a2 	strb	w2, [x21, #12]
   8189c:	14000002 	b	818a4 <_ZN6String8ParseIntEj22StringConversionFormat+0x124>
   818a0:	f94002a0 	ldr	x0, [x21]
   818a4:	1ac124a2 	lsr	w2, w5, w1
   818a8:	93407c42 	sxtw	x2, w2
   818ac:	ea13005f 	tst	x2, x19
   818b0:	1a841062 	csel	w2, w3, w4, ne  // ne = any
   818b4:	38216802 	strb	w2, [x0, x1]
   818b8:	91000421 	add	x1, x1, #0x1
   818bc:	f100803f 	cmp	x1, #0x20
   818c0:	54ffff01 	b.ne	818a0 <_ZN6String8ParseIntEj22StringConversionFormat+0x120>  // b.any
   818c4:	aa1503e0 	mov	x0, x21
   818c8:	a94153f3 	ldp	x19, x20, [sp, #16]
   818cc:	a9425bf5 	ldp	x21, x22, [sp, #32]
   818d0:	a8c47bfd 	ldp	x29, x30, [sp], #64
   818d4:	d65f03c0 	ret
   818d8:	12800000 	mov	w0, #0xffffffff            	// #-1
   818dc:	b9000900 	str	w0, [x8, #8]
   818e0:	3900311f 	strb	wzr, [x8, #12]
   818e4:	52800100 	mov	w0, #0x8                   	// #8
   818e8:	aa1303f6 	mov	x22, x19
   818ec:	97fffcd5 	bl	80c40 <malloc>
   818f0:	f90002a0 	str	x0, [x21]
   818f4:	d35cfe63 	lsr	x3, x19, #28
   818f8:	d3586e62 	ubfx	x2, x19, #24, #4
   818fc:	12001c61 	and	w1, w3, #0xff
   81900:	f100287f 	cmp	x3, #0xa
   81904:	1100c026 	add	w6, w1, #0x30
   81908:	1100dc23 	add	w3, w1, #0x37
   8190c:	12001c61 	and	w1, w3, #0xff
   81910:	12001cc6 	and	w6, w6, #0xff
   81914:	1a8130c6 	csel	w6, w6, w1, cc  // cc = lo, ul, last
   81918:	1100dc48 	add	w8, w2, #0x37
   8191c:	d3545e61 	ubfx	x1, x19, #20, #4
   81920:	f100285f 	cmp	x2, #0xa
   81924:	1100c042 	add	w2, w2, #0x30
   81928:	1100c027 	add	w7, w1, #0x30
   8192c:	1a883048 	csel	w8, w2, w8, cc  // cc = lo, ul, last
   81930:	1100dc22 	add	w2, w1, #0x37
   81934:	f100283f 	cmp	x1, #0xa
   81938:	d3504e61 	ubfx	x1, x19, #16, #4
   8193c:	1a8230e7 	csel	w7, w7, w2, cc  // cc = lo, ul, last
   81940:	1100c025 	add	w5, w1, #0x30
   81944:	1100dc22 	add	w2, w1, #0x37
   81948:	f100283f 	cmp	x1, #0xa
   8194c:	d34c3e61 	ubfx	x1, x19, #12, #4
   81950:	1a8230a5 	csel	w5, w5, w2, cc  // cc = lo, ul, last
   81954:	1100dc24 	add	w4, w1, #0x37
   81958:	f100283f 	cmp	x1, #0xa
   8195c:	1100c022 	add	w2, w1, #0x30
   81960:	d3482e61 	ubfx	x1, x19, #8, #4
   81964:	1a843044 	csel	w4, w2, w4, cc  // cc = lo, ul, last
   81968:	d3441e73 	ubfx	x19, x19, #4, #4
   8196c:	f100283f 	cmp	x1, #0xa
   81970:	1100dc23 	add	w3, w1, #0x37
   81974:	1100c021 	add	w1, w1, #0x30
   81978:	12000ecb 	and	w11, w22, #0xf
   8197c:	1a833023 	csel	w3, w1, w3, cc  // cc = lo, ul, last
   81980:	1100de62 	add	w2, w19, #0x37
   81984:	f1002a7f 	cmp	x19, #0xa
   81988:	1100c273 	add	w19, w19, #0x30
   8198c:	1a823262 	csel	w2, w19, w2, cc  // cc = lo, ul, last
   81990:	1100dd76 	add	w22, w11, #0x37
   81994:	1100c161 	add	w1, w11, #0x30
   81998:	7100257f 	cmp	w11, #0x9
   8199c:	5280010a 	mov	w10, #0x8                   	// #8
   819a0:	52800029 	mov	w9, #0x1                   	// #1
   819a4:	b9000aaa 	str	w10, [x21, #8]
   819a8:	1a8182c1 	csel	w1, w22, w1, hi  // hi = pmore
   819ac:	390032a9 	strb	w9, [x21, #12]
   819b0:	39000006 	strb	w6, [x0]
   819b4:	39000408 	strb	w8, [x0, #1]
   819b8:	39000807 	strb	w7, [x0, #2]
   819bc:	39000c05 	strb	w5, [x0, #3]
   819c0:	39001004 	strb	w4, [x0, #4]
   819c4:	39001403 	strb	w3, [x0, #5]
   819c8:	39001802 	strb	w2, [x0, #6]
   819cc:	39001c01 	strb	w1, [x0, #7]
   819d0:	aa1503e0 	mov	x0, x21
   819d4:	a94153f3 	ldp	x19, x20, [sp, #16]
   819d8:	a9425bf5 	ldp	x21, x22, [sp, #32]
   819dc:	a8c47bfd 	ldp	x29, x30, [sp], #64
   819e0:	d65f03c0 	ret
   819e4:	d503201f 	nop
   819e8:	d503201f 	nop
   819ec:	d503201f 	nop

00000000000819f0 <_Z15ParseLongBinarymi>:
   819f0:	a9bd7bfd 	stp	x29, x30, [sp, #-48]!
   819f4:	12800002 	mov	w2, #0xffffffff            	// #-1
   819f8:	910003fd 	mov	x29, sp
   819fc:	a90153f3 	stp	x19, x20, [sp, #16]
   81a00:	aa0803f3 	mov	x19, x8
   81a04:	2a0103f4 	mov	w20, w1
   81a08:	f90013f5 	str	x21, [sp, #32]
   81a0c:	aa0003f5 	mov	x21, x0
   81a10:	b9000902 	str	w2, [x8, #8]
   81a14:	2a0103e0 	mov	w0, w1
   81a18:	3900311f 	strb	wzr, [x8, #12]
   81a1c:	97fffc89 	bl	80c40 <malloc>
   81a20:	f9000260 	str	x0, [x19]
   81a24:	52800021 	mov	w1, #0x1                   	// #1
   81a28:	b9000a74 	str	w20, [x19, #8]
   81a2c:	39003261 	strb	w1, [x19, #12]
   81a30:	7100029f 	cmp	w20, #0x0
   81a34:	5400022d 	b.le	81a78 <_Z15ParseLongBinarymi+0x88>
   81a38:	51000686 	sub	w6, w20, #0x1
   81a3c:	d2800003 	mov	x3, #0x0                   	// #0
   81a40:	52800025 	mov	w5, #0x1                   	// #1
   81a44:	52800604 	mov	w4, #0x30                  	// #48
   81a48:	52800621 	mov	w1, #0x31                  	// #49
   81a4c:	14000002 	b	81a54 <_Z15ParseLongBinarymi+0x64>
   81a50:	f9400260 	ldr	x0, [x19]
   81a54:	4b0300c2 	sub	w2, w6, w3
   81a58:	1ac220a2 	lsl	w2, w5, w2
   81a5c:	93407c42 	sxtw	x2, w2
   81a60:	ea15005f 	tst	x2, x21
   81a64:	1a841022 	csel	w2, w1, w4, ne  // ne = any
   81a68:	38236802 	strb	w2, [x0, x3]
   81a6c:	91000463 	add	x3, x3, #0x1
   81a70:	6b03029f 	cmp	w20, w3
   81a74:	54fffeec 	b.gt	81a50 <_Z15ParseLongBinarymi+0x60>
   81a78:	aa1303e0 	mov	x0, x19
   81a7c:	a94153f3 	ldp	x19, x20, [sp, #16]
   81a80:	f94013f5 	ldr	x21, [sp, #32]
   81a84:	a8c37bfd 	ldp	x29, x30, [sp], #48
   81a88:	d65f03c0 	ret
   81a8c:	d503201f 	nop

0000000000081a90 <_Z12ParseLongHexmi>:
   81a90:	a9bd7bfd 	stp	x29, x30, [sp, #-48]!
   81a94:	7100003f 	cmp	w1, #0x0
   81a98:	910003fd 	mov	x29, sp
   81a9c:	a90153f3 	stp	x19, x20, [sp, #16]
   81aa0:	11000c34 	add	w20, w1, #0x3
   81aa4:	1a81b294 	csel	w20, w20, w1, lt  // lt = tstop
   81aa8:	a9025bf5 	stp	x21, x22, [sp, #32]
   81aac:	2a0103f3 	mov	w19, w1
   81ab0:	aa0803f6 	mov	x22, x8
   81ab4:	12800001 	mov	w1, #0xffffffff            	// #-1
   81ab8:	b9000901 	str	w1, [x8, #8]
   81abc:	3900311f 	strb	wzr, [x8, #12]
   81ac0:	13027e94 	asr	w20, w20, #2
   81ac4:	aa0003f5 	mov	x21, x0
   81ac8:	2a1403e0 	mov	w0, w20
   81acc:	97fffc5d 	bl	80c40 <malloc>
   81ad0:	f90002c0 	str	x0, [x22]
   81ad4:	52800021 	mov	w1, #0x1                   	// #1
   81ad8:	b9000ad4 	str	w20, [x22, #8]
   81adc:	390032c1 	strb	w1, [x22, #12]
   81ae0:	71000e7f 	cmp	w19, #0x3
   81ae4:	540002ad 	b.le	81b38 <_Z12ParseLongHexmi+0xa8>
   81ae8:	51001263 	sub	w3, w19, #0x4
   81aec:	d2800004 	mov	x4, #0x0                   	// #0
   81af0:	528001e6 	mov	w6, #0xf                   	// #15
   81af4:	d503201f 	nop
   81af8:	1ac320c2 	lsl	w2, w6, w3
   81afc:	93407c42 	sxtw	x2, w2
   81b00:	8a150042 	and	x2, x2, x21
   81b04:	9ac32442 	lsr	x2, x2, x3
   81b08:	12001c41 	and	w1, w2, #0xff
   81b0c:	1100c025 	add	w5, w1, #0x30
   81b10:	1100dc21 	add	w1, w1, #0x37
   81b14:	7100245f 	cmp	w2, #0x9
   81b18:	12001c21 	and	w1, w1, #0xff
   81b1c:	12001ca2 	and	w2, w5, #0xff
   81b20:	51001063 	sub	w3, w3, #0x4
   81b24:	1a828021 	csel	w1, w1, w2, hi  // hi = pmore
   81b28:	38246801 	strb	w1, [x0, x4]
   81b2c:	91000484 	add	x4, x4, #0x1
   81b30:	6b04029f 	cmp	w20, w4
   81b34:	54fffe2c 	b.gt	81af8 <_Z12ParseLongHexmi+0x68>
   81b38:	aa1603e0 	mov	x0, x22
   81b3c:	a94153f3 	ldp	x19, x20, [sp, #16]
   81b40:	a9425bf5 	ldp	x21, x22, [sp, #32]
   81b44:	a8c37bfd 	ldp	x29, x30, [sp], #48
   81b48:	d65f03c0 	ret
   81b4c:	d503201f 	nop

0000000000081b50 <_ZN6String9ParseLongEl22StringConversionFormati>:
   81b50:	a9bc7bfd 	stp	x29, x30, [sp, #-64]!
   81b54:	910003fd 	mov	x29, sp
   81b58:	a90153f3 	stp	x19, x20, [sp, #16]
   81b5c:	2a0203f3 	mov	w19, w2
   81b60:	a9025bf5 	stp	x21, x22, [sp, #32]
   81b64:	aa0803f6 	mov	x22, x8
   81b68:	a90363f7 	stp	x23, x24, [sp, #48]
   81b6c:	aa0003f7 	mov	x23, x0
   81b70:	340007a1 	cbz	w1, 81c64 <_ZN6String9ParseLongEl22StringConversionFormati+0x114>
   81b74:	7100083f 	cmp	w1, #0x2
   81b78:	54000b80 	b.eq	81ce8 <_ZN6String9ParseLongEl22StringConversionFormati+0x198>  // b.none
   81b7c:	aa0003e1 	mov	x1, x0
   81b80:	52800014 	mov	w20, #0x0                   	// #0
   81b84:	b7f806a0 	tbnz	x0, #63, 81c58 <_ZN6String9ParseLongEl22StringConversionFormati+0x108>
   81b88:	b202e7e2 	mov	x2, #0xcccccccccccccccc    	// #-3689348814741910324
   81b8c:	2a0103f3 	mov	w19, w1
   81b90:	f29999a2 	movk	x2, #0xcccd
   81b94:	d503201f 	nop
   81b98:	9bc27c20 	umulh	x0, x1, x2
   81b9c:	f100243f 	cmp	x1, #0x9
   81ba0:	11000694 	add	w20, w20, #0x1
   81ba4:	d343fc01 	lsr	x1, x0, #3
   81ba8:	54ffff8c 	b.gt	81b98 <_ZN6String9ParseLongEl22StringConversionFormati+0x48>
   81bac:	2a1403e0 	mov	w0, w20
   81bb0:	93407e95 	sxtw	x21, w20
   81bb4:	97fffc23 	bl	80c40 <malloc>
   81bb8:	aa0003f8 	mov	x24, x0
   81bbc:	d10006a6 	sub	x6, x21, #0x1
   81bc0:	b203e7e7 	mov	x7, #0x6666666666666666    	// #7378697629483820646
   81bc4:	93407e65 	sxtw	x5, w19
   81bc8:	8b060006 	add	x6, x0, x6
   81bcc:	f28ccce7 	movk	x7, #0x6667
   81bd0:	9b477ca3 	smulh	x3, x5, x7
   81bd4:	f10024bf 	cmp	x5, #0x9
   81bd8:	9342fc63 	asr	x3, x3, #2
   81bdc:	cb85fc63 	sub	x3, x3, x5, asr #63
   81be0:	8b030864 	add	x4, x3, x3, lsl #2
   81be4:	cb0404a4 	sub	x4, x5, x4, lsl #1
   81be8:	aa0303e5 	mov	x5, x3
   81bec:	1100c083 	add	w3, w4, #0x30
   81bf0:	381ff4c3 	strb	w3, [x6], #-1
   81bf4:	54fffeec 	b.gt	81bd0 <_ZN6String9ParseLongEl22StringConversionFormati+0x80>
   81bf8:	b7f802b7 	tbnz	x23, #63, 81c4c <_ZN6String9ParseLongEl22StringConversionFormati+0xfc>
   81bfc:	12800000 	mov	w0, #0xffffffff            	// #-1
   81c00:	b9000ac0 	str	w0, [x22, #8]
   81c04:	390032df 	strb	wzr, [x22, #12]
   81c08:	2a1403e0 	mov	w0, w20
   81c0c:	97fffc0d 	bl	80c40 <malloc>
   81c10:	f90002c0 	str	x0, [x22]
   81c14:	52800023 	mov	w3, #0x1                   	// #1
   81c18:	aa1503e2 	mov	x2, x21
   81c1c:	aa1803e1 	mov	x1, x24
   81c20:	b9000ad4 	str	w20, [x22, #8]
   81c24:	390032c3 	strb	w3, [x22, #12]
   81c28:	97fffc3a 	bl	80d10 <memcpy>
   81c2c:	aa1803e0 	mov	x0, x24
   81c30:	97fffb1c 	bl	808a0 <free>
   81c34:	aa1603e0 	mov	x0, x22
   81c38:	a94153f3 	ldp	x19, x20, [sp, #16]
   81c3c:	a9425bf5 	ldp	x21, x22, [sp, #32]
   81c40:	a94363f7 	ldp	x23, x24, [sp, #48]
   81c44:	a8c47bfd 	ldp	x29, x30, [sp], #64
   81c48:	d65f03c0 	ret
   81c4c:	528005a0 	mov	w0, #0x2d                  	// #45
   81c50:	390000c0 	strb	w0, [x6]
   81c54:	17ffffea 	b	81bfc <_ZN6String9ParseLongEl22StringConversionFormati+0xac>
   81c58:	cb0003e1 	neg	x1, x0
   81c5c:	52800034 	mov	w20, #0x1                   	// #1
   81c60:	17ffffca 	b	81b88 <_ZN6String9ParseLongEl22StringConversionFormati+0x38>
   81c64:	12800000 	mov	w0, #0xffffffff            	// #-1
   81c68:	b9000900 	str	w0, [x8, #8]
   81c6c:	3900311f 	strb	wzr, [x8, #12]
   81c70:	2a0203e0 	mov	w0, w2
   81c74:	97fffbf3 	bl	80c40 <malloc>
   81c78:	f90002c0 	str	x0, [x22]
   81c7c:	52800021 	mov	w1, #0x1                   	// #1
   81c80:	b9000ad3 	str	w19, [x22, #8]
   81c84:	390032c1 	strb	w1, [x22, #12]
   81c88:	7100027f 	cmp	w19, #0x0
   81c8c:	54fffd4d 	b.le	81c34 <_ZN6String9ParseLongEl22StringConversionFormati+0xe4>
   81c90:	51000666 	sub	w6, w19, #0x1
   81c94:	d2800003 	mov	x3, #0x0                   	// #0
   81c98:	52800025 	mov	w5, #0x1                   	// #1
   81c9c:	52800604 	mov	w4, #0x30                  	// #48
   81ca0:	52800622 	mov	w2, #0x31                  	// #49
   81ca4:	14000002 	b	81cac <_ZN6String9ParseLongEl22StringConversionFormati+0x15c>
   81ca8:	f94002c0 	ldr	x0, [x22]
   81cac:	4b0300c1 	sub	w1, w6, w3
   81cb0:	1ac120a1 	lsl	w1, w5, w1
   81cb4:	93407c21 	sxtw	x1, w1
   81cb8:	ea17003f 	tst	x1, x23
   81cbc:	1a841041 	csel	w1, w2, w4, ne  // ne = any
   81cc0:	38236801 	strb	w1, [x0, x3]
   81cc4:	91000463 	add	x3, x3, #0x1
   81cc8:	6b03027f 	cmp	w19, w3
   81ccc:	54fffeec 	b.gt	81ca8 <_ZN6String9ParseLongEl22StringConversionFormati+0x158>
   81cd0:	aa1603e0 	mov	x0, x22
   81cd4:	a94153f3 	ldp	x19, x20, [sp, #16]
   81cd8:	a9425bf5 	ldp	x21, x22, [sp, #32]
   81cdc:	a94363f7 	ldp	x23, x24, [sp, #48]
   81ce0:	a8c47bfd 	ldp	x29, x30, [sp], #64
   81ce4:	d65f03c0 	ret
   81ce8:	7100005f 	cmp	w2, #0x0
   81cec:	11000c54 	add	w20, w2, #0x3
   81cf0:	1a82b294 	csel	w20, w20, w2, lt  // lt = tstop
   81cf4:	12800000 	mov	w0, #0xffffffff            	// #-1
   81cf8:	b9000900 	str	w0, [x8, #8]
   81cfc:	3900311f 	strb	wzr, [x8, #12]
   81d00:	13027e94 	asr	w20, w20, #2
   81d04:	2a1403e0 	mov	w0, w20
   81d08:	97fffbce 	bl	80c40 <malloc>
   81d0c:	f90002c0 	str	x0, [x22]
   81d10:	52800021 	mov	w1, #0x1                   	// #1
   81d14:	b9000ad4 	str	w20, [x22, #8]
   81d18:	390032c1 	strb	w1, [x22, #12]
   81d1c:	71000e7f 	cmp	w19, #0x3
   81d20:	54fff8ad 	b.le	81c34 <_ZN6String9ParseLongEl22StringConversionFormati+0xe4>
   81d24:	51001273 	sub	w19, w19, #0x4
   81d28:	d2800003 	mov	x3, #0x0                   	// #0
   81d2c:	528001e5 	mov	w5, #0xf                   	// #15
   81d30:	1ad320a2 	lsl	w2, w5, w19
   81d34:	93407c42 	sxtw	x2, w2
   81d38:	8a170042 	and	x2, x2, x23
   81d3c:	9ad32442 	lsr	x2, x2, x19
   81d40:	12001c41 	and	w1, w2, #0xff
   81d44:	1100c024 	add	w4, w1, #0x30
   81d48:	1100dc21 	add	w1, w1, #0x37
   81d4c:	7100245f 	cmp	w2, #0x9
   81d50:	12001c21 	and	w1, w1, #0xff
   81d54:	12001c82 	and	w2, w4, #0xff
   81d58:	51001273 	sub	w19, w19, #0x4
   81d5c:	1a828021 	csel	w1, w1, w2, hi  // hi = pmore
   81d60:	38236801 	strb	w1, [x0, x3]
   81d64:	91000463 	add	x3, x3, #0x1
   81d68:	6b03029f 	cmp	w20, w3
   81d6c:	54fffe2c 	b.gt	81d30 <_ZN6String9ParseLongEl22StringConversionFormati+0x1e0>
   81d70:	aa1603e0 	mov	x0, x22
   81d74:	a94153f3 	ldp	x19, x20, [sp, #16]
   81d78:	a9425bf5 	ldp	x21, x22, [sp, #32]
   81d7c:	a94363f7 	ldp	x23, x24, [sp, #48]
   81d80:	a8c47bfd 	ldp	x29, x30, [sp], #64
   81d84:	d65f03c0 	ret
   81d88:	d503201f 	nop
   81d8c:	d503201f 	nop

0000000000081d90 <_ZN6String9ParseLongEm22StringConversionFormati>:
   81d90:	a9bc7bfd 	stp	x29, x30, [sp, #-64]!
   81d94:	910003fd 	mov	x29, sp
   81d98:	a90153f3 	stp	x19, x20, [sp, #16]
   81d9c:	aa0003f3 	mov	x19, x0
   81da0:	a9025bf5 	stp	x21, x22, [sp, #32]
   81da4:	aa0803f6 	mov	x22, x8
   81da8:	2a0203f5 	mov	w21, w2
   81dac:	34000681 	cbz	w1, 81e7c <_ZN6String9ParseLongEm22StringConversionFormati+0xec>
   81db0:	b202e7e2 	mov	x2, #0xcccccccccccccccc    	// #-3689348814741910324
   81db4:	7100083f 	cmp	w1, #0x2
   81db8:	52800014 	mov	w20, #0x0                   	// #0
   81dbc:	aa0003e1 	mov	x1, x0
   81dc0:	f29999a2 	movk	x2, #0xcccd
   81dc4:	540009c0 	b.eq	81efc <_ZN6String9ParseLongEm22StringConversionFormati+0x16c>  // b.none
   81dc8:	f9001bf7 	str	x23, [sp, #48]
   81dcc:	d503201f 	nop
   81dd0:	9bc27c20 	umulh	x0, x1, x2
   81dd4:	f100243f 	cmp	x1, #0x9
   81dd8:	11000694 	add	w20, w20, #0x1
   81ddc:	d343fc01 	lsr	x1, x0, #3
   81de0:	54ffff88 	b.hi	81dd0 <_ZN6String9ParseLongEm22StringConversionFormati+0x40>  // b.pmore
   81de4:	2a1403e0 	mov	w0, w20
   81de8:	93407e95 	sxtw	x21, w20
   81dec:	97fffb95 	bl	80c40 <malloc>
   81df0:	aa0003f7 	mov	x23, x0
   81df4:	d10006a5 	sub	x5, x21, #0x1
   81df8:	b202e7e6 	mov	x6, #0xcccccccccccccccc    	// #-3689348814741910324
   81dfc:	8b050005 	add	x5, x0, x5
   81e00:	f29999a6 	movk	x6, #0xcccd
   81e04:	d503201f 	nop
   81e08:	9bc67e64 	umulh	x4, x19, x6
   81e0c:	f100267f 	cmp	x19, #0x9
   81e10:	d343fc84 	lsr	x4, x4, #3
   81e14:	8b040883 	add	x3, x4, x4, lsl #2
   81e18:	cb030663 	sub	x3, x19, x3, lsl #1
   81e1c:	aa0403f3 	mov	x19, x4
   81e20:	1100c063 	add	w3, w3, #0x30
   81e24:	381ff4a3 	strb	w3, [x5], #-1
   81e28:	54ffff08 	b.hi	81e08 <_ZN6String9ParseLongEm22StringConversionFormati+0x78>  // b.pmore
   81e2c:	12800000 	mov	w0, #0xffffffff            	// #-1
   81e30:	b9000ac0 	str	w0, [x22, #8]
   81e34:	390032df 	strb	wzr, [x22, #12]
   81e38:	2a1403e0 	mov	w0, w20
   81e3c:	97fffb81 	bl	80c40 <malloc>
   81e40:	f90002c0 	str	x0, [x22]
   81e44:	aa1703e1 	mov	x1, x23
   81e48:	52800023 	mov	w3, #0x1                   	// #1
   81e4c:	aa1503e2 	mov	x2, x21
   81e50:	b9000ad4 	str	w20, [x22, #8]
   81e54:	390032c3 	strb	w3, [x22, #12]
   81e58:	97fffbae 	bl	80d10 <memcpy>
   81e5c:	aa1703e0 	mov	x0, x23
   81e60:	97fffa90 	bl	808a0 <free>
   81e64:	f9401bf7 	ldr	x23, [sp, #48]
   81e68:	aa1603e0 	mov	x0, x22
   81e6c:	a94153f3 	ldp	x19, x20, [sp, #16]
   81e70:	a9425bf5 	ldp	x21, x22, [sp, #32]
   81e74:	a8c47bfd 	ldp	x29, x30, [sp], #64
   81e78:	d65f03c0 	ret
   81e7c:	12800000 	mov	w0, #0xffffffff            	// #-1
   81e80:	b9000900 	str	w0, [x8, #8]
   81e84:	3900311f 	strb	wzr, [x8, #12]
   81e88:	2a0203e0 	mov	w0, w2
   81e8c:	97fffb6d 	bl	80c40 <malloc>
   81e90:	f90002c0 	str	x0, [x22]
   81e94:	52800021 	mov	w1, #0x1                   	// #1
   81e98:	b9000ad5 	str	w21, [x22, #8]
   81e9c:	390032c1 	strb	w1, [x22, #12]
   81ea0:	710002bf 	cmp	w21, #0x0
   81ea4:	510006a6 	sub	w6, w21, #0x1
   81ea8:	d2800003 	mov	x3, #0x0                   	// #0
   81eac:	52800025 	mov	w5, #0x1                   	// #1
   81eb0:	52800604 	mov	w4, #0x30                  	// #48
   81eb4:	52800622 	mov	w2, #0x31                  	// #49
   81eb8:	5400006c 	b.gt	81ec4 <_ZN6String9ParseLongEm22StringConversionFormati+0x134>
   81ebc:	17ffffeb 	b	81e68 <_ZN6String9ParseLongEm22StringConversionFormati+0xd8>
   81ec0:	f94002c0 	ldr	x0, [x22]
   81ec4:	4b0300c1 	sub	w1, w6, w3
   81ec8:	1ac120a1 	lsl	w1, w5, w1
   81ecc:	93407c21 	sxtw	x1, w1
   81ed0:	ea13003f 	tst	x1, x19
   81ed4:	1a841041 	csel	w1, w2, w4, ne  // ne = any
   81ed8:	38236801 	strb	w1, [x0, x3]
   81edc:	91000463 	add	x3, x3, #0x1
   81ee0:	6b0302bf 	cmp	w21, w3
   81ee4:	54fffeec 	b.gt	81ec0 <_ZN6String9ParseLongEm22StringConversionFormati+0x130>
   81ee8:	aa1603e0 	mov	x0, x22
   81eec:	a94153f3 	ldp	x19, x20, [sp, #16]
   81ef0:	a9425bf5 	ldp	x21, x22, [sp, #32]
   81ef4:	a8c47bfd 	ldp	x29, x30, [sp], #64
   81ef8:	d65f03c0 	ret
   81efc:	710002bf 	cmp	w21, #0x0
   81f00:	11000eb4 	add	w20, w21, #0x3
   81f04:	1a95b294 	csel	w20, w20, w21, lt  // lt = tstop
   81f08:	12800000 	mov	w0, #0xffffffff            	// #-1
   81f0c:	b9000900 	str	w0, [x8, #8]
   81f10:	3900311f 	strb	wzr, [x8, #12]
   81f14:	13027e94 	asr	w20, w20, #2
   81f18:	2a1403e0 	mov	w0, w20
   81f1c:	97fffb49 	bl	80c40 <malloc>
   81f20:	f90002c0 	str	x0, [x22]
   81f24:	52800021 	mov	w1, #0x1                   	// #1
   81f28:	b9000ad4 	str	w20, [x22, #8]
   81f2c:	390032c1 	strb	w1, [x22, #12]
   81f30:	71000ebf 	cmp	w21, #0x3
   81f34:	54fff9ad 	b.le	81e68 <_ZN6String9ParseLongEm22StringConversionFormati+0xd8>
   81f38:	510012b5 	sub	w21, w21, #0x4
   81f3c:	d2800003 	mov	x3, #0x0                   	// #0
   81f40:	528001e5 	mov	w5, #0xf                   	// #15
   81f44:	d503201f 	nop
   81f48:	1ad520a2 	lsl	w2, w5, w21
   81f4c:	93407c42 	sxtw	x2, w2
   81f50:	8a130042 	and	x2, x2, x19
   81f54:	9ad52442 	lsr	x2, x2, x21
   81f58:	12001c41 	and	w1, w2, #0xff
   81f5c:	1100c024 	add	w4, w1, #0x30
   81f60:	1100dc21 	add	w1, w1, #0x37
   81f64:	7100245f 	cmp	w2, #0x9
   81f68:	12001c21 	and	w1, w1, #0xff
   81f6c:	12001c82 	and	w2, w4, #0xff
   81f70:	510012b5 	sub	w21, w21, #0x4
   81f74:	1a828021 	csel	w1, w1, w2, hi  // hi = pmore
   81f78:	38236801 	strb	w1, [x0, x3]
   81f7c:	91000463 	add	x3, x3, #0x1
   81f80:	6b03029f 	cmp	w20, w3
   81f84:	54fffe2c 	b.gt	81f48 <_ZN6String9ParseLongEm22StringConversionFormati+0x1b8>
   81f88:	aa1603e0 	mov	x0, x22
   81f8c:	a94153f3 	ldp	x19, x20, [sp, #16]
   81f90:	a9425bf5 	ldp	x21, x22, [sp, #32]
   81f94:	a8c47bfd 	ldp	x29, x30, [sp], #64
   81f98:	d65f03c0 	ret
   81f9c:	00000000 	udf	#0

0000000000081fa0 <_ZN8TimeSpanC1Em>:
   81fa0:	f9000001 	str	x1, [x0]
   81fa4:	d65f03c0 	ret
   81fa8:	d503201f 	nop
   81fac:	d503201f 	nop

0000000000081fb0 <_ZN8TimeSpanC1Em8TimeUnit>:
   81fb0:	a9bd7bfd 	stp	x29, x30, [sp, #-48]!
   81fb4:	910003fd 	mov	x29, sp
   81fb8:	a90153f3 	stp	x19, x20, [sp, #16]
   81fbc:	2a0203f4 	mov	w20, w2
   81fc0:	aa0003f3 	mov	x19, x0
   81fc4:	f90013f5 	str	x21, [sp, #32]
   81fc8:	aa0103f5 	mov	x21, x1
   81fcc:	940003cd 	bl	82f00 <_ZN11SystemTimer23GetSystemTimerFrequencyEv>
   81fd0:	71000a9f 	cmp	w20, #0x2
   81fd4:	54000320 	b.eq	82038 <_ZN8TimeSpanC1Em8TimeUnit+0x88>  // b.none
   81fd8:	540001e8 	b.hi	82014 <_ZN8TimeSpanC1Em8TimeUnit+0x64>  // b.pmore
   81fdc:	340004b4 	cbz	w20, 82070 <_ZN8TimeSpanC1Em8TimeUnit+0xc0>
   81fe0:	2a0003e0 	mov	w0, w0
   81fe4:	d2869b61 	mov	x1, #0x34db                	// #13531
   81fe8:	f2baf6c1 	movk	x1, #0xd7b6, lsl #16
   81fec:	f2dbd041 	movk	x1, #0xde82, lsl #32
   81ff0:	f2e86361 	movk	x1, #0x431b, lsl #48
   81ff4:	9b157c00 	mul	x0, x0, x21
   81ff8:	9bc17c00 	umulh	x0, x0, x1
   81ffc:	d352fc00 	lsr	x0, x0, #18
   82000:	f9000260 	str	x0, [x19]
   82004:	a94153f3 	ldp	x19, x20, [sp, #16]
   82008:	f94013f5 	ldr	x21, [sp, #32]
   8200c:	a8c37bfd 	ldp	x29, x30, [sp], #48
   82010:	d65f03c0 	ret
   82014:	71000e9f 	cmp	w20, #0x3
   82018:	54ffff61 	b.ne	82004 <_ZN8TimeSpanC1Em8TimeUnit+0x54>  // b.any
   8201c:	2a0003e2 	mov	w2, w0
   82020:	9b157c41 	mul	x1, x2, x21
   82024:	f9000261 	str	x1, [x19]
   82028:	a94153f3 	ldp	x19, x20, [sp, #16]
   8202c:	f94013f5 	ldr	x21, [sp, #32]
   82030:	a8c37bfd 	ldp	x29, x30, [sp], #48
   82034:	d65f03c0 	ret
   82038:	2a0003e2 	mov	w2, w0
   8203c:	d29ef9e0 	mov	x0, #0xf7cf                	// #63439
   82040:	f2bc6a60 	movk	x0, #0xe353, lsl #16
   82044:	f2d374a0 	movk	x0, #0x9ba5, lsl #32
   82048:	f2e41880 	movk	x0, #0x20c4, lsl #48
   8204c:	9b157c41 	mul	x1, x2, x21
   82050:	f94013f5 	ldr	x21, [sp, #32]
   82054:	d343fc21 	lsr	x1, x1, #3
   82058:	9bc07c21 	umulh	x1, x1, x0
   8205c:	d344fc21 	lsr	x1, x1, #4
   82060:	f9000261 	str	x1, [x19]
   82064:	a94153f3 	ldp	x19, x20, [sp, #16]
   82068:	a8c37bfd 	ldp	x29, x30, [sp], #48
   8206c:	d65f03c0 	ret
   82070:	2a0003e2 	mov	w2, w0
   82074:	d28b4a61 	mov	x1, #0x5a53                	// #23123
   82078:	f2b41361 	movk	x1, #0xa09b, lsl #16
   8207c:	f2d705e1 	movk	x1, #0xb82f, lsl #32
   82080:	f2e00881 	movk	x1, #0x44, lsl #48
   82084:	9b157c40 	mul	x0, x2, x21
   82088:	f94013f5 	ldr	x21, [sp, #32]
   8208c:	d349fc00 	lsr	x0, x0, #9
   82090:	9bc17c00 	umulh	x0, x0, x1
   82094:	d34bfc00 	lsr	x0, x0, #11
   82098:	f9000260 	str	x0, [x19]
   8209c:	a94153f3 	ldp	x19, x20, [sp, #16]
   820a0:	a8c37bfd 	ldp	x29, x30, [sp], #48
   820a4:	d65f03c0 	ret
   820a8:	d503201f 	nop
   820ac:	d503201f 	nop

00000000000820b0 <_ZN8TimeSpan14GetCurrentTimeEv>:
   820b0:	a9bf7bfd 	stp	x29, x30, [sp, #-16]!
   820b4:	910003fd 	mov	x29, sp
   820b8:	94000396 	bl	82f10 <_ZN11SystemTimer13GetSystemTimeEv>
   820bc:	a8c17bfd 	ldp	x29, x30, [sp], #16
   820c0:	d65f03c0 	ret
   820c4:	d503201f 	nop
   820c8:	d503201f 	nop
   820cc:	d503201f 	nop

00000000000820d0 <_ZN8TimeSpan8SpinWaitEv>:
   820d0:	a9be7bfd 	stp	x29, x30, [sp, #-32]!
   820d4:	910003fd 	mov	x29, sp
   820d8:	f9000bf3 	str	x19, [sp, #16]
   820dc:	aa0003f3 	mov	x19, x0
   820e0:	9400038c 	bl	82f10 <_ZN11SystemTimer13GetSystemTimeEv>
   820e4:	f9400273 	ldr	x19, [x19]
   820e8:	8b130013 	add	x19, x0, x19
   820ec:	eb13001f 	cmp	x0, x19
   820f0:	540000a2 	b.cs	82104 <_ZN8TimeSpan8SpinWaitEv+0x34>  // b.hs, b.nlast
   820f4:	d503201f 	nop
   820f8:	94000386 	bl	82f10 <_ZN11SystemTimer13GetSystemTimeEv>
   820fc:	eb00027f 	cmp	x19, x0
   82100:	54ffffc8 	b.hi	820f8 <_ZN8TimeSpan8SpinWaitEv+0x28>  // b.pmore
   82104:	f9400bf3 	ldr	x19, [sp, #16]
   82108:	a8c27bfd 	ldp	x29, x30, [sp], #32
   8210c:	d65f03c0 	ret

0000000000082110 <_ZN8PSF2FontC1EPc>:
   82110:	a9be7bfd 	stp	x29, x30, [sp, #-32]!
   82114:	910003fd 	mov	x29, sp
   82118:	a90153f3 	stp	x19, x20, [sp, #16]
   8211c:	aa0003f4 	mov	x20, x0
   82120:	b9400020 	ldr	w0, [x1]
   82124:	aa0103f3 	mov	x19, x1
   82128:	97fffaf6 	bl	80d00 <_Z5magicj>
   8212c:	b9000260 	str	w0, [x19]
   82130:	aa1403e3 	mov	x3, x20
   82134:	b9401264 	ldr	w4, [x19, #16]
   82138:	d2800002 	mov	x2, #0x0                   	// #0
   8213c:	f8008473 	str	x19, [x3], #8
   82140:	1400000a 	b	82168 <_ZN8PSF2FontC1EPc+0x58>
   82144:	b9401660 	ldr	w0, [x19, #20]
   82148:	b9400a61 	ldr	w1, [x19, #8]
   8214c:	1b027c00 	mul	w0, w0, w2
   82150:	8b010000 	add	x0, x0, x1
   82154:	8b000260 	add	x0, x19, x0
   82158:	f8227860 	str	x0, [x3, x2, lsl #3]
   8215c:	91000442 	add	x2, x2, #0x1
   82160:	f102005f 	cmp	x2, #0x80
   82164:	54000060 	b.eq	82170 <_ZN8PSF2FontC1EPc+0x60>  // b.none
   82168:	6b02009f 	cmp	w4, w2
   8216c:	54fffecc 	b.gt	82144 <_ZN8PSF2FontC1EPc+0x34>
   82170:	a94153f3 	ldp	x19, x20, [sp, #16]
   82174:	a8c27bfd 	ldp	x29, x30, [sp], #32
   82178:	d65f03c0 	ret
   8217c:	d503201f 	nop

0000000000082180 <_ZN8PSF2FontC1Ev>:
   82180:	d65f03c0 	ret
   82184:	d503201f 	nop
   82188:	d503201f 	nop
   8218c:	d503201f 	nop

0000000000082190 <_ZN8PSF2Font17HasCharacterGlyphEc>:
   82190:	f9400002 	ldr	x2, [x0]
   82194:	12001c21 	and	w1, w1, #0xff
   82198:	b9401042 	ldr	w2, [x2, #16]
   8219c:	6b02003f 	cmp	w1, w2
   821a0:	540000c2 	b.cs	821b8 <_ZN8PSF2Font17HasCharacterGlyphEc+0x28>  // b.hs, b.nlast
   821a4:	8b210c00 	add	x0, x0, w1, uxtb #3
   821a8:	f9400400 	ldr	x0, [x0, #8]
   821ac:	f100001f 	cmp	x0, #0x0
   821b0:	1a9f07e0 	cset	w0, ne  // ne = any
   821b4:	d65f03c0 	ret
   821b8:	52800000 	mov	w0, #0x0                   	// #0
   821bc:	d65f03c0 	ret

00000000000821c0 <_ZN8PSF2Font8GetGlyphEc>:
   821c0:	f9400002 	ldr	x2, [x0]
   821c4:	12001c21 	and	w1, w1, #0xff
   821c8:	b9401042 	ldr	w2, [x2, #16]
   821cc:	6b02003f 	cmp	w1, w2
   821d0:	54000082 	b.cs	821e0 <_ZN8PSF2Font8GetGlyphEc+0x20>  // b.hs, b.nlast
   821d4:	8b210c00 	add	x0, x0, w1, uxtb #3
   821d8:	f9400400 	ldr	x0, [x0, #8]
   821dc:	d65f03c0 	ret
   821e0:	d2800000 	mov	x0, #0x0                   	// #0
   821e4:	d65f03c0 	ret
	...

00000000000821f0 <_ZN5PointC1Ev>:
   821f0:	f900001f 	str	xzr, [x0]
   821f4:	d65f03c0 	ret
   821f8:	d503201f 	nop
   821fc:	d503201f 	nop

0000000000082200 <_ZN5PointC1Eii>:
   82200:	29000801 	stp	w1, w2, [x0]
   82204:	d65f03c0 	ret
   82208:	d503201f 	nop
   8220c:	d503201f 	nop

0000000000082210 <_ZN4SizeC1Ev>:
   82210:	f900001f 	str	xzr, [x0]
   82214:	d65f03c0 	ret
   82218:	d503201f 	nop
   8221c:	d503201f 	nop

0000000000082220 <_ZN4SizeC1Eii>:
   82220:	29000801 	stp	w1, w2, [x0]
   82224:	d65f03c0 	ret
   82228:	d503201f 	nop
   8222c:	d503201f 	nop

0000000000082230 <_ZN9RectangleC1Ev>:
   82230:	a9007c1f 	stp	xzr, xzr, [x0]
   82234:	d65f03c0 	ret
   82238:	d503201f 	nop
   8223c:	d503201f 	nop

0000000000082240 <_ZN9RectangleC1Eiiii>:
   82240:	29000801 	stp	w1, w2, [x0]
   82244:	29011003 	stp	w3, w4, [x0, #8]
   82248:	d65f03c0 	ret
   8224c:	d503201f 	nop

0000000000082250 <_ZN5ColorC1Eccc>:
   82250:	12001c21 	and	w1, w1, #0xff
   82254:	53181c42 	ubfiz	w2, w2, #8, #8
   82258:	53101c63 	ubfiz	w3, w3, #16, #8
   8225c:	2a010042 	orr	w2, w2, w1
   82260:	2a030042 	orr	w2, w2, w3
   82264:	b9000002 	str	w2, [x0]
   82268:	d65f03c0 	ret
   8226c:	d503201f 	nop

0000000000082270 <_ZN5ColorC1Ecccc>:
   82270:	12001c21 	and	w1, w1, #0xff
   82274:	53101c63 	ubfiz	w3, w3, #16, #8
   82278:	53181c42 	ubfiz	w2, w2, #8, #8
   8227c:	2a046064 	orr	w4, w3, w4, lsl #24
   82280:	2a010043 	orr	w3, w2, w1
   82284:	2a030083 	orr	w3, w4, w3
   82288:	b9000003 	str	w3, [x0]
   8228c:	d65f03c0 	ret

0000000000082290 <_ZN5Color4getREv>:
   82290:	39400400 	ldrb	w0, [x0, #1]
   82294:	d65f03c0 	ret
   82298:	d503201f 	nop
   8229c:	d503201f 	nop

00000000000822a0 <_ZN5Color4setREc>:
   822a0:	39000401 	strb	w1, [x0, #1]
   822a4:	d65f03c0 	ret
   822a8:	d503201f 	nop
   822ac:	d503201f 	nop

00000000000822b0 <_ZN5Color4getGEv>:
   822b0:	39400800 	ldrb	w0, [x0, #2]
   822b4:	d65f03c0 	ret
   822b8:	d503201f 	nop
   822bc:	d503201f 	nop

00000000000822c0 <_ZN5Color4setGEc>:
   822c0:	39000801 	strb	w1, [x0, #2]
   822c4:	d65f03c0 	ret
   822c8:	d503201f 	nop
   822cc:	d503201f 	nop

00000000000822d0 <_ZN5Color4getBEv>:
   822d0:	39400c00 	ldrb	w0, [x0, #3]
   822d4:	d65f03c0 	ret
   822d8:	d503201f 	nop
   822dc:	d503201f 	nop

00000000000822e0 <_ZN5Color4setBEc>:
   822e0:	39000c01 	strb	w1, [x0, #3]
   822e4:	d65f03c0 	ret
   822e8:	d503201f 	nop
   822ec:	d503201f 	nop

00000000000822f0 <_ZN5Color4getAEv>:
   822f0:	39400000 	ldrb	w0, [x0]
   822f4:	d65f03c0 	ret
   822f8:	d503201f 	nop
   822fc:	d503201f 	nop

0000000000082300 <_ZN5Color4setAEc>:
   82300:	39000001 	strb	w1, [x0]
   82304:	d65f03c0 	ret
   82308:	d503201f 	nop
   8230c:	d503201f 	nop

0000000000082310 <_ZN8GraphicsC1E11Framebuffer>:
   82310:	a9000801 	stp	x1, x2, [x0]
   82314:	d65f03c0 	ret
   82318:	d503201f 	nop
   8231c:	d503201f 	nop

0000000000082320 <_ZN8Graphics13GetBufferSizeEv>:
   82320:	29410001 	ldp	w1, w0, [x0, #8]
   82324:	1b007c20 	mul	w0, w1, w0
   82328:	531e7400 	lsl	w0, w0, #2
   8232c:	d65f03c0 	ret

0000000000082330 <_ZN8Graphics4FillE5Color>:
   82330:	29410c02 	ldp	w2, w3, [x0, #8]
   82334:	f9400000 	ldr	x0, [x0]
   82338:	1b037c42 	mul	w2, w2, w3
   8233c:	531e7442 	lsl	w2, w2, #2
   82340:	7100005f 	cmp	w2, #0x0
   82344:	51000445 	sub	w5, w2, #0x1
   82348:	5400052d 	b.le	823ec <_ZN8Graphics4FillE5Color+0xbc>
   8234c:	710014bf 	cmp	w5, #0x5
   82350:	53020804 	ubfx	w4, w0, #2, #1
   82354:	540002c9 	b.ls	823ac <_ZN8Graphics4FillE5Color+0x7c>  // b.plast
   82358:	aa0003e8 	mov	x8, x0
   8235c:	34000064 	cbz	w4, 82368 <_ZN8Graphics4FillE5Color+0x38>
   82360:	51000845 	sub	w5, w2, #0x2
   82364:	b8004501 	str	w1, [x8], #4
   82368:	4b040042 	sub	w2, w2, w4
   8236c:	d2800003 	mov	x3, #0x0                   	// #0
   82370:	d37e0086 	ubfiz	x6, x4, #2, #1
   82374:	b3407c23 	bfxil	x3, x1, #0, #32
   82378:	53017c44 	lsr	w4, w2, #1
   8237c:	8b060000 	add	x0, x0, x6
   82380:	b3607c23 	bfi	x3, x1, #32, #32
   82384:	8b244c04 	add	x4, x0, w4, uxtw #3
   82388:	f8008403 	str	x3, [x0], #8
   8238c:	eb04001f 	cmp	x0, x4
   82390:	54ffffc1 	b.ne	82388 <_ZN8Graphics4FillE5Color+0x58>  // b.any
   82394:	927f7840 	and	x0, x2, #0xfffffffe
   82398:	121f7843 	and	w3, w2, #0xfffffffe
   8239c:	4b0300a5 	sub	w5, w5, w3
   823a0:	6b03005f 	cmp	w2, w3
   823a4:	8b000900 	add	x0, x8, x0, lsl #2
   823a8:	54000220 	b.eq	823ec <_ZN8Graphics4FillE5Color+0xbc>  // b.none
   823ac:	b9000001 	str	w1, [x0]
   823b0:	710000bf 	cmp	w5, #0x0
   823b4:	540001cd 	b.le	823ec <_ZN8Graphics4FillE5Color+0xbc>
   823b8:	b9000401 	str	w1, [x0, #4]
   823bc:	710004bf 	cmp	w5, #0x1
   823c0:	5400016d 	b.le	823ec <_ZN8Graphics4FillE5Color+0xbc>
   823c4:	b9000801 	str	w1, [x0, #8]
   823c8:	710008bf 	cmp	w5, #0x2
   823cc:	5400010d 	b.le	823ec <_ZN8Graphics4FillE5Color+0xbc>
   823d0:	b9000c01 	str	w1, [x0, #12]
   823d4:	71000cbf 	cmp	w5, #0x3
   823d8:	540000ad 	b.le	823ec <_ZN8Graphics4FillE5Color+0xbc>
   823dc:	b9001001 	str	w1, [x0, #16]
   823e0:	710010bf 	cmp	w5, #0x4
   823e4:	5400004d 	b.le	823ec <_ZN8Graphics4FillE5Color+0xbc>
   823e8:	b9001401 	str	w1, [x0, #20]
   823ec:	d65f03c0 	ret

00000000000823f0 <_ZN8Graphics13FillRectangleE9Rectangle5Color>:
   823f0:	b9400805 	ldr	w5, [x0, #8]
   823f4:	d360fc24 	lsr	x4, x1, #32
   823f8:	f9400006 	ldr	x6, [x0]
   823fc:	9360fc4d 	asr	x13, x2, #32
   82400:	2a0203e9 	mov	w9, w2
   82404:	710001bf 	cmp	w13, #0x0
   82408:	1b050484 	madd	w4, w4, w5, w1
   8240c:	8b24c8c6 	add	x6, x6, w4, sxtw #2
   82410:	540007ad 	b.le	82504 <_ZN8Graphics13FillRectangleE9Rectangle5Color+0x114>
   82414:	7100005f 	cmp	w2, #0x0
   82418:	5400076d 	b.le	82504 <_ZN8Graphics13FillRectangleE9Rectangle5Color+0x114>
   8241c:	2a0203ef 	mov	w15, w2
   82420:	5100044e 	sub	w14, w2, #0x1
   82424:	2a0203ec 	mov	w12, w2
   82428:	5280000a 	mov	w10, #0x0                   	// #0
   8242c:	d503201f 	nop
   82430:	710015df 	cmp	w14, #0x5
   82434:	530208c1 	ubfx	w1, w6, #2, #1
   82438:	54000689 	b.ls	82508 <_ZN8Graphics13FillRectangleE9Rectangle5Color+0x118>  // b.plast
   8243c:	aa0603eb 	mov	x11, x6
   82440:	52800005 	mov	w5, #0x0                   	// #0
   82444:	34000061 	cbz	w1, 82450 <_ZN8Graphics13FillRectangleE9Rectangle5Color+0x60>
   82448:	52800025 	mov	w5, #0x1                   	// #1
   8244c:	b8004563 	str	w3, [x11], #4
   82450:	4b0101e7 	sub	w7, w15, w1
   82454:	d2800002 	mov	x2, #0x0                   	// #0
   82458:	d37e0021 	ubfiz	x1, x1, #2, #1
   8245c:	b3407c62 	bfxil	x2, x3, #0, #32
   82460:	53017ce4 	lsr	w4, w7, #1
   82464:	8b0100c1 	add	x1, x6, x1
   82468:	b3607c62 	bfi	x2, x3, #32, #32
   8246c:	8b244c24 	add	x4, x1, w4, uxtw #3
   82470:	f8008422 	str	x2, [x1], #8
   82474:	eb01009f 	cmp	x4, x1
   82478:	54ffffc1 	b.ne	82470 <_ZN8Graphics13FillRectangleE9Rectangle5Color+0x80>  // b.any
   8247c:	927f78e2 	and	x2, x7, #0xfffffffe
   82480:	121f78e4 	and	w4, w7, #0xfffffffe
   82484:	0b050081 	add	w1, w4, w5
   82488:	6b0400ff 	cmp	w7, w4
   8248c:	8b020962 	add	x2, x11, x2, lsl #2
   82490:	540002c0 	b.eq	824e8 <_ZN8Graphics13FillRectangleE9Rectangle5Color+0xf8>  // b.none
   82494:	b9000043 	str	w3, [x2]
   82498:	11000424 	add	w4, w1, #0x1
   8249c:	6b04013f 	cmp	w9, w4
   824a0:	5400024d 	b.le	824e8 <_ZN8Graphics13FillRectangleE9Rectangle5Color+0xf8>
   824a4:	b9000443 	str	w3, [x2, #4]
   824a8:	11000824 	add	w4, w1, #0x2
   824ac:	6b04013f 	cmp	w9, w4
   824b0:	540001cd 	b.le	824e8 <_ZN8Graphics13FillRectangleE9Rectangle5Color+0xf8>
   824b4:	b9000843 	str	w3, [x2, #8]
   824b8:	11000c24 	add	w4, w1, #0x3
   824bc:	6b04013f 	cmp	w9, w4
   824c0:	5400014d 	b.le	824e8 <_ZN8Graphics13FillRectangleE9Rectangle5Color+0xf8>
   824c4:	b9000c43 	str	w3, [x2, #12]
   824c8:	11001024 	add	w4, w1, #0x4
   824cc:	6b04013f 	cmp	w9, w4
   824d0:	540000cd 	b.le	824e8 <_ZN8Graphics13FillRectangleE9Rectangle5Color+0xf8>
   824d4:	b9001043 	str	w3, [x2, #16]
   824d8:	11001421 	add	w1, w1, #0x5
   824dc:	6b01013f 	cmp	w9, w1
   824e0:	5400004d 	b.le	824e8 <_ZN8Graphics13FillRectangleE9Rectangle5Color+0xf8>
   824e4:	b9001443 	str	w3, [x2, #20]
   824e8:	b9400801 	ldr	w1, [x0, #8]
   824ec:	1100054a 	add	w10, w10, #0x1
   824f0:	6b0a01bf 	cmp	w13, w10
   824f4:	4b090021 	sub	w1, w1, w9
   824f8:	8b21c181 	add	x1, x12, w1, sxtw
   824fc:	8b0108c6 	add	x6, x6, x1, lsl #2
   82500:	54fff981 	b.ne	82430 <_ZN8Graphics13FillRectangleE9Rectangle5Color+0x40>  // b.any
   82504:	d65f03c0 	ret
   82508:	aa0603e2 	mov	x2, x6
   8250c:	52800001 	mov	w1, #0x0                   	// #0
   82510:	17ffffe1 	b	82494 <_ZN8Graphics13FillRectangleE9Rectangle5Color+0xa4>
   82514:	d503201f 	nop
   82518:	d503201f 	nop
   8251c:	d503201f 	nop

0000000000082520 <_ZN8Graphics8DrawCharEP8PSF2Font5Pointc5Color>:
   82520:	a9bd7bfd 	stp	x29, x30, [sp, #-48]!
   82524:	d360fc45 	lsr	x5, x2, #32
   82528:	910003fd 	mov	x29, sp
   8252c:	a9025bf5 	stp	x21, x22, [sp, #32]
   82530:	aa0103f6 	mov	x22, x1
   82534:	2a0303e1 	mov	w1, w3
   82538:	b9400803 	ldr	w3, [x0, #8]
   8253c:	aa0003f5 	mov	x21, x0
   82540:	a90153f3 	stp	x19, x20, [sp, #16]
   82544:	2a0403f4 	mov	w20, w4
   82548:	f9400013 	ldr	x19, [x0]
   8254c:	1b0308a5 	madd	w5, w5, w3, w2
   82550:	aa1603e0 	mov	x0, x22
   82554:	8b25ca73 	add	x19, x19, w5, sxtw #2
   82558:	97ffff1a 	bl	821c0 <_ZN8PSF2Font8GetGlyphEc>
   8255c:	39400006 	ldrb	w6, [x0]
   82560:	f94002c8 	ldr	x8, [x22]
   82564:	b9401901 	ldr	w1, [x8, #24]
   82568:	340005a1 	cbz	w1, 8261c <_ZN8Graphics8DrawCharEP8PSF2Font5Pointc5Color+0xfc>
   8256c:	b9401d05 	ldr	w5, [x8, #28]
   82570:	52800004 	mov	w4, #0x0                   	// #0
   82574:	52800027 	mov	w7, #0x1                   	// #1
   82578:	34000525 	cbz	w5, 8261c <_ZN8Graphics8DrawCharEP8PSF2Font5Pointc5Color+0xfc>
   8257c:	d503201f 	nop
   82580:	52800002 	mov	w2, #0x0                   	// #0
   82584:	52800103 	mov	w3, #0x8                   	// #8
   82588:	2a2203e1 	mvn	w1, w2
   8258c:	51000463 	sub	w3, w3, #0x1
   82590:	12000821 	and	w1, w1, #0x7
   82594:	11000442 	add	w2, w2, #0x1
   82598:	1ac120e1 	lsl	w1, w7, w1
   8259c:	6a06003f 	tst	w1, w6
   825a0:	54000060 	b.eq	825ac <_ZN8Graphics8DrawCharEP8PSF2Font5Pointc5Color+0x8c>  // b.none
   825a4:	b9000274 	str	w20, [x19]
   825a8:	b9401d05 	ldr	w5, [x8, #28]
   825ac:	91001273 	add	x19, x19, #0x4
   825b0:	6b05005f 	cmp	w2, w5
   825b4:	540001e2 	b.cs	825f0 <_ZN8Graphics8DrawCharEP8PSF2Font5Pointc5Color+0xd0>  // b.hs, b.nlast
   825b8:	35fffe83 	cbnz	w3, 82588 <_ZN8Graphics8DrawCharEP8PSF2Font5Pointc5Color+0x68>
   825bc:	2a2203e1 	mvn	w1, w2
   825c0:	39400406 	ldrb	w6, [x0, #1]
   825c4:	12000821 	and	w1, w1, #0x7
   825c8:	52800103 	mov	w3, #0x8                   	// #8
   825cc:	91000400 	add	x0, x0, #0x1
   825d0:	11000442 	add	w2, w2, #0x1
   825d4:	1ac120e1 	lsl	w1, w7, w1
   825d8:	51000463 	sub	w3, w3, #0x1
   825dc:	6a06003f 	tst	w1, w6
   825e0:	54fffe21 	b.ne	825a4 <_ZN8Graphics8DrawCharEP8PSF2Font5Pointc5Color+0x84>  // b.any
   825e4:	91001273 	add	x19, x19, #0x4
   825e8:	6b05005f 	cmp	w2, w5
   825ec:	54fffe63 	b.cc	825b8 <_ZN8Graphics8DrawCharEP8PSF2Font5Pointc5Color+0x98>  // b.lo, b.ul, b.last
   825f0:	b9400aa1 	ldr	w1, [x21, #8]
   825f4:	11000484 	add	w4, w4, #0x1
   825f8:	b9401902 	ldr	w2, [x8, #24]
   825fc:	91000403 	add	x3, x0, #0x1
   82600:	4b050021 	sub	w1, w1, w5
   82604:	39400406 	ldrb	w6, [x0, #1]
   82608:	6b02009f 	cmp	w4, w2
   8260c:	8b010a73 	add	x19, x19, x1, lsl #2
   82610:	54000062 	b.cs	8261c <_ZN8Graphics8DrawCharEP8PSF2Font5Pointc5Color+0xfc>  // b.hs, b.nlast
   82614:	aa0303e0 	mov	x0, x3
   82618:	35fffb45 	cbnz	w5, 82580 <_ZN8Graphics8DrawCharEP8PSF2Font5Pointc5Color+0x60>
   8261c:	a94153f3 	ldp	x19, x20, [sp, #16]
   82620:	a9425bf5 	ldp	x21, x22, [sp, #32]
   82624:	a8c37bfd 	ldp	x29, x30, [sp], #48
   82628:	d65f03c0 	ret
   8262c:	d503201f 	nop

0000000000082630 <_ZN8Graphics10DrawStringEP8PSF2Font5Point6String5Color>:
   82630:	a9b97bfd 	stp	x29, x30, [sp, #-112]!
   82634:	910003fd 	mov	x29, sp
   82638:	a90153f3 	stp	x19, x20, [sp, #16]
   8263c:	aa0303f3 	mov	x19, x3
   82640:	aa0103f4 	mov	x20, x1
   82644:	a9025bf5 	stp	x21, x22, [sp, #32]
   82648:	aa0203f5 	mov	x21, x2
   8264c:	a90363f7 	stp	x23, x24, [sp, #48]
   82650:	aa0003f7 	mov	x23, x0
   82654:	2a0403f8 	mov	w24, w4
   82658:	aa0303e0 	mov	x0, x3
   8265c:	97fffaad 	bl	81110 <_ZN6String9GetLengthEv>
   82660:	b9006ff5 	str	w21, [sp, #108]
   82664:	7100001f 	cmp	w0, #0x0
   82668:	f9400273 	ldr	x19, [x19]
   8266c:	5400044d 	b.le	826f4 <_ZN8Graphics10DrawStringEP8PSF2Font5Point6String5Color+0xc4>
   82670:	a9046bf9 	stp	x25, x26, [sp, #64]
   82674:	d360feb9 	lsr	x25, x21, #32
   82678:	8b20c27a 	add	x26, x19, w0, sxtw
   8267c:	a90573fb 	stp	x27, x28, [sp, #80]
   82680:	39400276 	ldrb	w22, [x19]
   82684:	aa1403e0 	mov	x0, x20
   82688:	2a1603e1 	mov	w1, w22
   8268c:	71002adf 	cmp	w22, #0xa
   82690:	540000a1 	b.ne	826a4 <_ZN8Graphics10DrawStringEP8PSF2Font5Point6String5Color+0x74>  // b.any
   82694:	f9400282 	ldr	x2, [x20]
   82698:	b9406ff5 	ldr	w21, [sp, #108]
   8269c:	b9401842 	ldr	w2, [x2, #24]
   826a0:	0b020339 	add	w25, w25, w2
   826a4:	97fffebb 	bl	82190 <_ZN8PSF2Font17HasCharacterGlyphEc>
   826a8:	2a0003e2 	mov	w2, w0
   826ac:	2a1803e4 	mov	w4, w24
   826b0:	2a1603e3 	mov	w3, w22
   826b4:	aa1403e1 	mov	x1, x20
   826b8:	aa1703e0 	mov	x0, x23
   826bc:	72001c5f 	tst	w2, #0xff
   826c0:	54000240 	b.eq	82708 <_ZN8Graphics10DrawStringEP8PSF2Font5Point6String5Color+0xd8>  // b.none
   826c4:	b3407ebb 	bfxil	x27, x21, #0, #32
   826c8:	91000673 	add	x19, x19, #0x1
   826cc:	b3607f3b 	bfi	x27, x25, #32, #32
   826d0:	aa1b03e2 	mov	x2, x27
   826d4:	97ffff93 	bl	82520 <_ZN8Graphics8DrawCharEP8PSF2Font5Pointc5Color>
   826d8:	f9400280 	ldr	x0, [x20]
   826dc:	eb1a027f 	cmp	x19, x26
   826e0:	b9401c00 	ldr	w0, [x0, #28]
   826e4:	0b0002b5 	add	w21, w21, w0
   826e8:	54fffcc1 	b.ne	82680 <_ZN8Graphics10DrawStringEP8PSF2Font5Point6String5Color+0x50>  // b.any
   826ec:	a9446bf9 	ldp	x25, x26, [sp, #64]
   826f0:	a94573fb 	ldp	x27, x28, [sp, #80]
   826f4:	a94153f3 	ldp	x19, x20, [sp, #16]
   826f8:	a9425bf5 	ldp	x21, x22, [sp, #32]
   826fc:	a94363f7 	ldp	x23, x24, [sp, #48]
   82700:	a8c77bfd 	ldp	x29, x30, [sp], #112
   82704:	d65f03c0 	ret
   82708:	b3407ebc 	bfxil	x28, x21, #0, #32
   8270c:	528007e3 	mov	w3, #0x3f                  	// #63
   82710:	91000673 	add	x19, x19, #0x1
   82714:	b3607f3c 	bfi	x28, x25, #32, #32
   82718:	aa1c03e2 	mov	x2, x28
   8271c:	97ffff81 	bl	82520 <_ZN8Graphics8DrawCharEP8PSF2Font5Pointc5Color>
   82720:	f9400280 	ldr	x0, [x20]
   82724:	eb1a027f 	cmp	x19, x26
   82728:	b9401c00 	ldr	w0, [x0, #28]
   8272c:	0b0002b5 	add	w21, w21, w0
   82730:	54fffa81 	b.ne	82680 <_ZN8Graphics10DrawStringEP8PSF2Font5Point6String5Color+0x50>  // b.any
   82734:	17ffffee 	b	826ec <_ZN8Graphics10DrawStringEP8PSF2Font5Point6String5Color+0xbc>
	...

0000000000082740 <_ZN11FramebufferC1Ev>:
   82740:	91002000 	add	x0, x0, #0x8
   82744:	17fffeb3 	b	82210 <_ZN4SizeC1Ev>
   82748:	d503201f 	nop
   8274c:	d503201f 	nop

0000000000082750 <_ZN11FramebufferC1Eii>:
   82750:	a9bb7bfd 	stp	x29, x30, [sp, #-80]!
   82754:	910003fd 	mov	x29, sp
   82758:	a90153f3 	stp	x19, x20, [sp, #16]
   8275c:	2a0103f3 	mov	w19, w1
   82760:	aa0003f4 	mov	x20, x0
   82764:	91002000 	add	x0, x0, #0x8
   82768:	f90013f5 	str	x21, [sp, #32]
   8276c:	2a0203f5 	mov	w21, w2
   82770:	97fffea8 	bl	82210 <_ZN4SizeC1Ev>
   82774:	2a1303e1 	mov	w1, w19
   82778:	2a1503e2 	mov	w2, w21
   8277c:	9100e3e0 	add	x0, sp, #0x38
   82780:	97fffea8 	bl	82220 <_ZN4SizeC1Eii>
   82784:	f9401fe0 	ldr	x0, [sp, #56]
   82788:	f9000680 	str	x0, [x20, #8]
   8278c:	9100e3e0 	add	x0, sp, #0x38
   82790:	94000118 	bl	82bf0 <_ZN7MailboxC1Ev>
   82794:	9100e3e0 	add	x0, sp, #0x38
   82798:	94000122 	bl	82c20 <_ZN7Mailbox5ResetEv>
   8279c:	2a1303e2 	mov	w2, w19
   827a0:	2a1503e3 	mov	w3, w21
   827a4:	9100e3e0 	add	x0, sp, #0x38
   827a8:	52900061 	mov	w1, #0x8003                	// #32771
   827ac:	72a00081 	movk	w1, #0x4, lsl #16
   827b0:	94000150 	bl	82cf0 <_ZN7Mailbox18AddRequestPropertyEjjj>
   827b4:	2a1503e3 	mov	w3, w21
   827b8:	2a1303e2 	mov	w2, w19
   827bc:	9100e3e0 	add	x0, sp, #0x38
   827c0:	52900081 	mov	w1, #0x8004                	// #32772
   827c4:	72a00081 	movk	w1, #0x4, lsl #16
   827c8:	9400014a 	bl	82cf0 <_ZN7Mailbox18AddRequestPropertyEjjj>
   827cc:	52800402 	mov	w2, #0x20                  	// #32
   827d0:	9100e3e0 	add	x0, sp, #0x38
   827d4:	529000a1 	mov	w1, #0x8005                	// #32773
   827d8:	72a00081 	movk	w1, #0x4, lsl #16
   827dc:	94000129 	bl	82c80 <_ZN7Mailbox18AddRequestPropertyEjj>
   827e0:	52800003 	mov	w3, #0x0                   	// #0
   827e4:	52800002 	mov	w2, #0x0                   	// #0
   827e8:	9100e3e0 	add	x0, sp, #0x38
   827ec:	52900121 	mov	w1, #0x8009                	// #32777
   827f0:	72a00081 	movk	w1, #0x4, lsl #16
   827f4:	9400013f 	bl	82cf0 <_ZN7Mailbox18AddRequestPropertyEjjj>
   827f8:	12800005 	mov	w5, #0xffffffff            	// #-1
   827fc:	52800004 	mov	w4, #0x0                   	// #0
   82800:	52800043 	mov	w3, #0x2                   	// #2
   82804:	52800002 	mov	w2, #0x0                   	// #0
   82808:	9100e3e0 	add	x0, sp, #0x38
   8280c:	52900161 	mov	w1, #0x800b                	// #32779
   82810:	72a00081 	movk	w1, #0x4, lsl #16
   82814:	9400017b 	bl	82e00 <_ZN7Mailbox18AddRequestPropertyEjjjjj>
   82818:	52800021 	mov	w1, #0x1                   	// #1
   8281c:	72a00081 	movk	w1, #0x4, lsl #16
   82820:	52800003 	mov	w3, #0x0                   	// #0
   82824:	52800002 	mov	w2, #0x0                   	// #0
   82828:	9100e3e0 	add	x0, sp, #0x38
   8282c:	94000131 	bl	82cf0 <_ZN7Mailbox18AddRequestPropertyEjjj>
   82830:	aa0003f3 	mov	x19, x0
   82834:	9100e3e0 	add	x0, sp, #0x38
   82838:	9400019e 	bl	82eb0 <_ZN7Mailbox4PackEv>
   8283c:	d503201f 	nop
   82840:	9100e3e0 	add	x0, sp, #0x38
   82844:	940001a7 	bl	82ee0 <_ZN7Mailbox5WriteEv>
   82848:	b9400261 	ldr	w1, [x19]
   8284c:	34ffffa1 	cbz	w1, 82840 <_ZN11FramebufferC1Eii+0xf0>
   82850:	92407421 	and	x1, x1, #0x3fffffff
   82854:	f94013f5 	ldr	x21, [sp, #32]
   82858:	f9000281 	str	x1, [x20]
   8285c:	a94153f3 	ldp	x19, x20, [sp, #16]
   82860:	a8c57bfd 	ldp	x29, x30, [sp], #80
   82864:	d65f03c0 	ret
	...

0000000000082870 <_ZN10GPIOHandleC1Ev>:
   82870:	d65f03c0 	ret
   82874:	d503201f 	nop
   82878:	d503201f 	nop
   8287c:	d503201f 	nop

0000000000082880 <_ZN10GPIOHandleC1Ei>:
   82880:	b9000001 	str	w1, [x0]
   82884:	7100243f 	cmp	w1, #0x9
   82888:	5400022c 	b.gt	828cc <_ZN10GPIOHandleC1Ei+0x4c>
   8288c:	0b010422 	add	w2, w1, w1, lsl #1
   82890:	d2a7e403 	mov	x3, #0x3f200000            	// #1059061760
   82894:	f9000403 	str	x3, [x0, #8]
   82898:	b9002c02 	str	w2, [x0, #44]
   8289c:	52800022 	mov	w2, #0x1                   	// #1
   828a0:	d2800384 	mov	x4, #0x1c                  	// #28
   828a4:	f2a7e404 	movk	x4, #0x3f20, lsl #16
   828a8:	1ac12041 	lsl	w1, w2, w1
   828ac:	d2800503 	mov	x3, #0x28                  	// #40
   828b0:	f2a7e403 	movk	x3, #0x3f20, lsl #16
   828b4:	d2800682 	mov	x2, #0x34                  	// #52
   828b8:	f2a7e402 	movk	x2, #0x3f20, lsl #16
   828bc:	a9010c04 	stp	x4, x3, [x0, #16]
   828c0:	f9001002 	str	x2, [x0, #32]
   828c4:	b9002801 	str	w1, [x0, #40]
   828c8:	d65f03c0 	ret
   828cc:	71004c3f 	cmp	w1, #0x13
   828d0:	5400010c 	b.gt	828f0 <_ZN10GPIOHandleC1Ei+0x70>
   828d4:	51002822 	sub	w2, w1, #0xa
   828d8:	d2800083 	mov	x3, #0x4                   	// #4
   828dc:	f2a7e403 	movk	x3, #0x3f20, lsl #16
   828e0:	f9000403 	str	x3, [x0, #8]
   828e4:	0b020442 	add	w2, w2, w2, lsl #1
   828e8:	b9002c02 	str	w2, [x0, #44]
   828ec:	17ffffec 	b	8289c <_ZN10GPIOHandleC1Ei+0x1c>
   828f0:	7100743f 	cmp	w1, #0x1d
   828f4:	540001cd 	b.le	8292c <_ZN10GPIOHandleC1Ei+0xac>
   828f8:	71009c3f 	cmp	w1, #0x27
   828fc:	5400026d 	b.le	82948 <_ZN10GPIOHandleC1Ei+0xc8>
   82900:	7100c43f 	cmp	w1, #0x31
   82904:	540004ad 	b.le	82998 <_ZN10GPIOHandleC1Ei+0x118>
   82908:	7100d43f 	cmp	w1, #0x35
   8290c:	540002ec 	b.gt	82968 <_ZN10GPIOHandleC1Ei+0xe8>
   82910:	5100c822 	sub	w2, w1, #0x32
   82914:	d2800283 	mov	x3, #0x14                  	// #20
   82918:	f2a7e403 	movk	x3, #0x3f20, lsl #16
   8291c:	f9000403 	str	x3, [x0, #8]
   82920:	0b020442 	add	w2, w2, w2, lsl #1
   82924:	b9002c02 	str	w2, [x0, #44]
   82928:	14000010 	b	82968 <_ZN10GPIOHandleC1Ei+0xe8>
   8292c:	51005022 	sub	w2, w1, #0x14
   82930:	d2800103 	mov	x3, #0x8                   	// #8
   82934:	f2a7e403 	movk	x3, #0x3f20, lsl #16
   82938:	f9000403 	str	x3, [x0, #8]
   8293c:	0b020442 	add	w2, w2, w2, lsl #1
   82940:	b9002c02 	str	w2, [x0, #44]
   82944:	17ffffd6 	b	8289c <_ZN10GPIOHandleC1Ei+0x1c>
   82948:	51007822 	sub	w2, w1, #0x1e
   8294c:	d2800183 	mov	x3, #0xc                   	// #12
   82950:	f2a7e403 	movk	x3, #0x3f20, lsl #16
   82954:	f9000403 	str	x3, [x0, #8]
   82958:	0b020442 	add	w2, w2, w2, lsl #1
   8295c:	b9002c02 	str	w2, [x0, #44]
   82960:	71007c3f 	cmp	w1, #0x1f
   82964:	54fff9cd 	b.le	8289c <_ZN10GPIOHandleC1Ei+0x1c>
   82968:	52800022 	mov	w2, #0x1                   	// #1
   8296c:	d2800404 	mov	x4, #0x20                  	// #32
   82970:	f2a7e404 	movk	x4, #0x3f20, lsl #16
   82974:	1ac12041 	lsl	w1, w2, w1
   82978:	d2800583 	mov	x3, #0x2c                  	// #44
   8297c:	f2a7e403 	movk	x3, #0x3f20, lsl #16
   82980:	d2800702 	mov	x2, #0x38                  	// #56
   82984:	f2a7e402 	movk	x2, #0x3f20, lsl #16
   82988:	a9010c04 	stp	x4, x3, [x0, #16]
   8298c:	f9001002 	str	x2, [x0, #32]
   82990:	b9002801 	str	w1, [x0, #40]
   82994:	d65f03c0 	ret
   82998:	5100a022 	sub	w2, w1, #0x28
   8299c:	d2800203 	mov	x3, #0x10                  	// #16
   829a0:	f2a7e403 	movk	x3, #0x3f20, lsl #16
   829a4:	f9000403 	str	x3, [x0, #8]
   829a8:	0b020442 	add	w2, w2, w2, lsl #1
   829ac:	b9002c02 	str	w2, [x0, #44]
   829b0:	17ffffee 	b	82968 <_ZN10GPIOHandleC1Ei+0xe8>
   829b4:	d503201f 	nop
   829b8:	d503201f 	nop
   829bc:	d503201f 	nop

00000000000829c0 <_ZN10GPIOHandle6SetPinEi>:
   829c0:	b9000001 	str	w1, [x0]
   829c4:	7100243f 	cmp	w1, #0x9
   829c8:	5400022c 	b.gt	82a0c <_ZN10GPIOHandle6SetPinEi+0x4c>
   829cc:	0b010422 	add	w2, w1, w1, lsl #1
   829d0:	d2a7e403 	mov	x3, #0x3f200000            	// #1059061760
   829d4:	f9000403 	str	x3, [x0, #8]
   829d8:	b9002c02 	str	w2, [x0, #44]
   829dc:	52800022 	mov	w2, #0x1                   	// #1
   829e0:	d2800384 	mov	x4, #0x1c                  	// #28
   829e4:	f2a7e404 	movk	x4, #0x3f20, lsl #16
   829e8:	1ac12041 	lsl	w1, w2, w1
   829ec:	d2800503 	mov	x3, #0x28                  	// #40
   829f0:	f2a7e403 	movk	x3, #0x3f20, lsl #16
   829f4:	d2800682 	mov	x2, #0x34                  	// #52
   829f8:	f2a7e402 	movk	x2, #0x3f20, lsl #16
   829fc:	a9010c04 	stp	x4, x3, [x0, #16]
   82a00:	f9001002 	str	x2, [x0, #32]
   82a04:	b9002801 	str	w1, [x0, #40]
   82a08:	d65f03c0 	ret
   82a0c:	71004c3f 	cmp	w1, #0x13
   82a10:	5400010c 	b.gt	82a30 <_ZN10GPIOHandle6SetPinEi+0x70>
   82a14:	51002822 	sub	w2, w1, #0xa
   82a18:	d2800083 	mov	x3, #0x4                   	// #4
   82a1c:	f2a7e403 	movk	x3, #0x3f20, lsl #16
   82a20:	f9000403 	str	x3, [x0, #8]
   82a24:	0b020442 	add	w2, w2, w2, lsl #1
   82a28:	b9002c02 	str	w2, [x0, #44]
   82a2c:	17ffffec 	b	829dc <_ZN10GPIOHandle6SetPinEi+0x1c>
   82a30:	7100743f 	cmp	w1, #0x1d
   82a34:	540001cd 	b.le	82a6c <_ZN10GPIOHandle6SetPinEi+0xac>
   82a38:	71009c3f 	cmp	w1, #0x27
   82a3c:	5400026d 	b.le	82a88 <_ZN10GPIOHandle6SetPinEi+0xc8>
   82a40:	7100c43f 	cmp	w1, #0x31
   82a44:	540004ad 	b.le	82ad8 <_ZN10GPIOHandle6SetPinEi+0x118>
   82a48:	7100d43f 	cmp	w1, #0x35
   82a4c:	540002ec 	b.gt	82aa8 <_ZN10GPIOHandle6SetPinEi+0xe8>
   82a50:	5100c822 	sub	w2, w1, #0x32
   82a54:	d2800283 	mov	x3, #0x14                  	// #20
   82a58:	f2a7e403 	movk	x3, #0x3f20, lsl #16
   82a5c:	f9000403 	str	x3, [x0, #8]
   82a60:	0b020442 	add	w2, w2, w2, lsl #1
   82a64:	b9002c02 	str	w2, [x0, #44]
   82a68:	14000010 	b	82aa8 <_ZN10GPIOHandle6SetPinEi+0xe8>
   82a6c:	51005022 	sub	w2, w1, #0x14
   82a70:	d2800103 	mov	x3, #0x8                   	// #8
   82a74:	f2a7e403 	movk	x3, #0x3f20, lsl #16
   82a78:	f9000403 	str	x3, [x0, #8]
   82a7c:	0b020442 	add	w2, w2, w2, lsl #1
   82a80:	b9002c02 	str	w2, [x0, #44]
   82a84:	17ffffd6 	b	829dc <_ZN10GPIOHandle6SetPinEi+0x1c>
   82a88:	51007822 	sub	w2, w1, #0x1e
   82a8c:	d2800183 	mov	x3, #0xc                   	// #12
   82a90:	f2a7e403 	movk	x3, #0x3f20, lsl #16
   82a94:	f9000403 	str	x3, [x0, #8]
   82a98:	0b020442 	add	w2, w2, w2, lsl #1
   82a9c:	b9002c02 	str	w2, [x0, #44]
   82aa0:	71007c3f 	cmp	w1, #0x1f
   82aa4:	54fff9cd 	b.le	829dc <_ZN10GPIOHandle6SetPinEi+0x1c>
   82aa8:	52800022 	mov	w2, #0x1                   	// #1
   82aac:	d2800404 	mov	x4, #0x20                  	// #32
   82ab0:	f2a7e404 	movk	x4, #0x3f20, lsl #16
   82ab4:	1ac12041 	lsl	w1, w2, w1
   82ab8:	d2800583 	mov	x3, #0x2c                  	// #44
   82abc:	f2a7e403 	movk	x3, #0x3f20, lsl #16
   82ac0:	d2800702 	mov	x2, #0x38                  	// #56
   82ac4:	f2a7e402 	movk	x2, #0x3f20, lsl #16
   82ac8:	a9010c04 	stp	x4, x3, [x0, #16]
   82acc:	f9001002 	str	x2, [x0, #32]
   82ad0:	b9002801 	str	w1, [x0, #40]
   82ad4:	d65f03c0 	ret
   82ad8:	5100a022 	sub	w2, w1, #0x28
   82adc:	d2800203 	mov	x3, #0x10                  	// #16
   82ae0:	f2a7e403 	movk	x3, #0x3f20, lsl #16
   82ae4:	f9000403 	str	x3, [x0, #8]
   82ae8:	0b020442 	add	w2, w2, w2, lsl #1
   82aec:	b9002c02 	str	w2, [x0, #44]
   82af0:	17ffffee 	b	82aa8 <_ZN10GPIOHandle6SetPinEi+0xe8>
   82af4:	d503201f 	nop
   82af8:	d503201f 	nop
   82afc:	d503201f 	nop

0000000000082b00 <_ZN10GPIOHandle8SetInputEv>:
   82b00:	f9400402 	ldr	x2, [x0, #8]
   82b04:	528000e1 	mov	w1, #0x7                   	// #7
   82b08:	b9402c03 	ldr	w3, [x0, #44]
   82b0c:	b9400040 	ldr	w0, [x2]
   82b10:	1ac32021 	lsl	w1, w1, w3
   82b14:	0a210001 	bic	w1, w0, w1
   82b18:	b9000041 	str	w1, [x2]
   82b1c:	d65f03c0 	ret

0000000000082b20 <_ZN10GPIOHandle9SetOutputEv>:
   82b20:	a9bd7bfd 	stp	x29, x30, [sp, #-48]!
   82b24:	f0000001 	adrp	x1, 85000 <_ZL17_systemFontBuffer+0x1fd8>
   82b28:	91330021 	add	x1, x1, #0xcc0
   82b2c:	910003fd 	mov	x29, sp
   82b30:	f9000bf3 	str	x19, [sp, #16]
   82b34:	aa0003f3 	mov	x19, x0
   82b38:	910083e0 	add	x0, sp, #0x20
   82b3c:	97fff91d 	bl	80fb0 <_ZN6StringC1EPKc>
   82b40:	910083e0 	add	x0, sp, #0x20
   82b44:	97fff763 	bl	808d0 <_Z5crash6String>
   82b48:	910083e0 	add	x0, sp, #0x20
   82b4c:	97fff8d1 	bl	80e90 <_ZN6StringD1Ev>
   82b50:	f9400662 	ldr	x2, [x19, #8]
   82b54:	528000e1 	mov	w1, #0x7                   	// #7
   82b58:	b9402e63 	ldr	w3, [x19, #44]
   82b5c:	52800020 	mov	w0, #0x1                   	// #1
   82b60:	f9400bf3 	ldr	x19, [sp, #16]
   82b64:	b9400044 	ldr	w4, [x2]
   82b68:	1ac32021 	lsl	w1, w1, w3
   82b6c:	1ac32000 	lsl	w0, w0, w3
   82b70:	0a210081 	bic	w1, w4, w1
   82b74:	2a010000 	orr	w0, w0, w1
   82b78:	b9000040 	str	w0, [x2]
   82b7c:	a8c37bfd 	ldp	x29, x30, [sp], #48
   82b80:	d65f03c0 	ret
   82b84:	d503201f 	nop
   82b88:	d503201f 	nop
   82b8c:	d503201f 	nop

0000000000082b90 <_ZN10GPIOHandle5WriteEb>:
   82b90:	72001c3f 	tst	w1, #0xff
   82b94:	b9402801 	ldr	w1, [x0, #40]
   82b98:	540000c0 	b.eq	82bb0 <_ZN10GPIOHandle5WriteEb+0x20>  // b.none
   82b9c:	f9400802 	ldr	x2, [x0, #16]
   82ba0:	b9400040 	ldr	w0, [x2]
   82ba4:	2a010000 	orr	w0, w0, w1
   82ba8:	b9000040 	str	w0, [x2]
   82bac:	d65f03c0 	ret
   82bb0:	f9400c02 	ldr	x2, [x0, #24]
   82bb4:	b9400040 	ldr	w0, [x2]
   82bb8:	2a010000 	orr	w0, w0, w1
   82bbc:	b9000040 	str	w0, [x2]
   82bc0:	d65f03c0 	ret
   82bc4:	d503201f 	nop
   82bc8:	d503201f 	nop
   82bcc:	d503201f 	nop

0000000000082bd0 <_ZN10GPIOHandle8IsActiveEv>:
   82bd0:	f9401001 	ldr	x1, [x0, #32]
   82bd4:	b9402800 	ldr	w0, [x0, #40]
   82bd8:	b9400021 	ldr	w1, [x1]
   82bdc:	6a00003f 	tst	w1, w0
   82be0:	1a9f07e0 	cset	w0, ne  // ne = any
   82be4:	d65f03c0 	ret
	...

0000000000082bf0 <_ZN7MailboxC1Ev>:
   82bf0:	90000041 	adrp	x1, 8a000 <_ZL4mbox+0x870>
   82bf4:	911e8022 	add	x2, x1, #0x7a0
   82bf8:	d2971503 	mov	x3, #0xb8a8                	// #47272
   82bfc:	f2a7e003 	movk	x3, #0x3f00, lsl #16
   82c00:	f903d03f 	str	xzr, [x1, #1952]
   82c04:	d2800041 	mov	x1, #0x2                   	// #2
   82c08:	f2c00101 	movk	x1, #0x8, lsl #32
   82c0c:	a9000803 	stp	x3, x2, [x0]
   82c10:	f9000801 	str	x1, [x0, #16]
   82c14:	d65f03c0 	ret
   82c18:	d503201f 	nop
   82c1c:	d503201f 	nop

0000000000082c20 <_ZN7Mailbox5ResetEv>:
   82c20:	f9400401 	ldr	x1, [x0, #8]
   82c24:	d2800022 	mov	x2, #0x1                   	// #1
   82c28:	f2c00082 	movk	x2, #0x4, lsl #32
   82c2c:	b900003f 	str	wzr, [x1]
   82c30:	f9000802 	str	x2, [x0, #16]
   82c34:	b900043f 	str	wzr, [x1, #4]
   82c38:	29420402 	ldp	w2, w1, [x0, #16]
   82c3c:	11000442 	add	w2, w2, #0x1
   82c40:	11001021 	add	w1, w1, #0x4
   82c44:	29020402 	stp	w2, w1, [x0, #16]
   82c48:	d65f03c0 	ret
   82c4c:	d503201f 	nop

0000000000082c50 <_ZN7Mailbox7AddDataEj>:
   82c50:	b9401003 	ldr	w3, [x0, #16]
   82c54:	aa0003e2 	mov	x2, x0
   82c58:	f9400400 	ldr	x0, [x0, #8]
   82c5c:	b8237801 	str	w1, [x0, x3, lsl #2]
   82c60:	8b030800 	add	x0, x0, x3, lsl #2
   82c64:	29420443 	ldp	w3, w1, [x2, #16]
   82c68:	11000463 	add	w3, w3, #0x1
   82c6c:	11001021 	add	w1, w1, #0x4
   82c70:	29020443 	stp	w3, w1, [x2, #16]
   82c74:	d65f03c0 	ret
   82c78:	d503201f 	nop
   82c7c:	d503201f 	nop

0000000000082c80 <_ZN7Mailbox18AddRequestPropertyEjj>:
   82c80:	aa0003e3 	mov	x3, x0
   82c84:	b9401000 	ldr	w0, [x0, #16]
   82c88:	52800085 	mov	w5, #0x4                   	// #4
   82c8c:	f9400464 	ldr	x4, [x3, #8]
   82c90:	b8207881 	str	w1, [x4, x0, lsl #2]
   82c94:	29420460 	ldp	w0, w1, [x3, #16]
   82c98:	11000400 	add	w0, w0, #0x1
   82c9c:	0b050021 	add	w1, w1, w5
   82ca0:	29020460 	stp	w0, w1, [x3, #16]
   82ca4:	b8205885 	str	w5, [x4, w0, uxtw #2]
   82ca8:	29420460 	ldp	w0, w1, [x3, #16]
   82cac:	11000400 	add	w0, w0, #0x1
   82cb0:	0b050021 	add	w1, w1, w5
   82cb4:	29020460 	stp	w0, w1, [x3, #16]
   82cb8:	b8205885 	str	w5, [x4, w0, uxtw #2]
   82cbc:	29420061 	ldp	w1, w0, [x3, #16]
   82cc0:	11000421 	add	w1, w1, #0x1
   82cc4:	0b050000 	add	w0, w0, w5
   82cc8:	29020061 	stp	w1, w0, [x3, #16]
   82ccc:	8b214880 	add	x0, x4, w1, uxtw #2
   82cd0:	b8215882 	str	w2, [x4, w1, uxtw #2]
   82cd4:	29420462 	ldp	w2, w1, [x3, #16]
   82cd8:	11000442 	add	w2, w2, #0x1
   82cdc:	0b050021 	add	w1, w1, w5
   82ce0:	29020462 	stp	w2, w1, [x3, #16]
   82ce4:	d65f03c0 	ret
   82ce8:	d503201f 	nop
   82cec:	d503201f 	nop

0000000000082cf0 <_ZN7Mailbox18AddRequestPropertyEjjj>:
   82cf0:	aa0003e4 	mov	x4, x0
   82cf4:	b9401000 	ldr	w0, [x0, #16]
   82cf8:	52800106 	mov	w6, #0x8                   	// #8
   82cfc:	f9400485 	ldr	x5, [x4, #8]
   82d00:	b82078a1 	str	w1, [x5, x0, lsl #2]
   82d04:	29420480 	ldp	w0, w1, [x4, #16]
   82d08:	11000400 	add	w0, w0, #0x1
   82d0c:	11001021 	add	w1, w1, #0x4
   82d10:	29020480 	stp	w0, w1, [x4, #16]
   82d14:	b82058a6 	str	w6, [x5, w0, uxtw #2]
   82d18:	29420480 	ldp	w0, w1, [x4, #16]
   82d1c:	11000400 	add	w0, w0, #0x1
   82d20:	11001021 	add	w1, w1, #0x4
   82d24:	29020480 	stp	w0, w1, [x4, #16]
   82d28:	b82058a6 	str	w6, [x5, w0, uxtw #2]
   82d2c:	29420081 	ldp	w1, w0, [x4, #16]
   82d30:	11000421 	add	w1, w1, #0x1
   82d34:	11001000 	add	w0, w0, #0x4
   82d38:	29020081 	stp	w1, w0, [x4, #16]
   82d3c:	8b2148a0 	add	x0, x5, w1, uxtw #2
   82d40:	b82158a2 	str	w2, [x5, w1, uxtw #2]
   82d44:	29420881 	ldp	w1, w2, [x4, #16]
   82d48:	11000421 	add	w1, w1, #0x1
   82d4c:	11001042 	add	w2, w2, #0x4
   82d50:	29020881 	stp	w1, w2, [x4, #16]
   82d54:	b82158a3 	str	w3, [x5, w1, uxtw #2]
   82d58:	29420482 	ldp	w2, w1, [x4, #16]
   82d5c:	11000442 	add	w2, w2, #0x1
   82d60:	11001021 	add	w1, w1, #0x4
   82d64:	29020482 	stp	w2, w1, [x4, #16]
   82d68:	d65f03c0 	ret
   82d6c:	d503201f 	nop

0000000000082d70 <_ZN7Mailbox18AddRequestPropertyEjjjj>:
   82d70:	aa0003e5 	mov	x5, x0
   82d74:	b9401000 	ldr	w0, [x0, #16]
   82d78:	52800187 	mov	w7, #0xc                   	// #12
   82d7c:	f94004a6 	ldr	x6, [x5, #8]
   82d80:	b82078c1 	str	w1, [x6, x0, lsl #2]
   82d84:	294204a0 	ldp	w0, w1, [x5, #16]
   82d88:	11000400 	add	w0, w0, #0x1
   82d8c:	11001021 	add	w1, w1, #0x4
   82d90:	290204a0 	stp	w0, w1, [x5, #16]
   82d94:	b82058c7 	str	w7, [x6, w0, uxtw #2]
   82d98:	294204a0 	ldp	w0, w1, [x5, #16]
   82d9c:	11000400 	add	w0, w0, #0x1
   82da0:	11001021 	add	w1, w1, #0x4
   82da4:	290204a0 	stp	w0, w1, [x5, #16]
   82da8:	b82058c7 	str	w7, [x6, w0, uxtw #2]
   82dac:	294200a1 	ldp	w1, w0, [x5, #16]
   82db0:	11000421 	add	w1, w1, #0x1
   82db4:	11001000 	add	w0, w0, #0x4
   82db8:	290200a1 	stp	w1, w0, [x5, #16]
   82dbc:	8b2148c0 	add	x0, x6, w1, uxtw #2
   82dc0:	b82158c2 	str	w2, [x6, w1, uxtw #2]
   82dc4:	294208a1 	ldp	w1, w2, [x5, #16]
   82dc8:	11000421 	add	w1, w1, #0x1
   82dcc:	11001042 	add	w2, w2, #0x4
   82dd0:	290208a1 	stp	w1, w2, [x5, #16]
   82dd4:	b82158c3 	str	w3, [x6, w1, uxtw #2]
   82dd8:	294208a1 	ldp	w1, w2, [x5, #16]
   82ddc:	11000421 	add	w1, w1, #0x1
   82de0:	11001042 	add	w2, w2, #0x4
   82de4:	290208a1 	stp	w1, w2, [x5, #16]
   82de8:	b82158c4 	str	w4, [x6, w1, uxtw #2]
   82dec:	294204a2 	ldp	w2, w1, [x5, #16]
   82df0:	11000442 	add	w2, w2, #0x1
   82df4:	11001021 	add	w1, w1, #0x4
   82df8:	290204a2 	stp	w2, w1, [x5, #16]
   82dfc:	d65f03c0 	ret

0000000000082e00 <_ZN7Mailbox18AddRequestPropertyEjjjjj>:
   82e00:	aa0003e6 	mov	x6, x0
   82e04:	b9401000 	ldr	w0, [x0, #16]
   82e08:	52800208 	mov	w8, #0x10                  	// #16
   82e0c:	f94004c7 	ldr	x7, [x6, #8]
   82e10:	b82078e1 	str	w1, [x7, x0, lsl #2]
   82e14:	294204c0 	ldp	w0, w1, [x6, #16]
   82e18:	11000400 	add	w0, w0, #0x1
   82e1c:	11001021 	add	w1, w1, #0x4
   82e20:	290204c0 	stp	w0, w1, [x6, #16]
   82e24:	b82058e8 	str	w8, [x7, w0, uxtw #2]
   82e28:	294204c0 	ldp	w0, w1, [x6, #16]
   82e2c:	11000400 	add	w0, w0, #0x1
   82e30:	11001021 	add	w1, w1, #0x4
   82e34:	290204c0 	stp	w0, w1, [x6, #16]
   82e38:	b82058e8 	str	w8, [x7, w0, uxtw #2]
   82e3c:	294200c1 	ldp	w1, w0, [x6, #16]
   82e40:	11000421 	add	w1, w1, #0x1
   82e44:	11001000 	add	w0, w0, #0x4
   82e48:	290200c1 	stp	w1, w0, [x6, #16]
   82e4c:	8b2148e0 	add	x0, x7, w1, uxtw #2
   82e50:	b82158e2 	str	w2, [x7, w1, uxtw #2]
   82e54:	294208c1 	ldp	w1, w2, [x6, #16]
   82e58:	11000421 	add	w1, w1, #0x1
   82e5c:	11001042 	add	w2, w2, #0x4
   82e60:	290208c1 	stp	w1, w2, [x6, #16]
   82e64:	b82158e3 	str	w3, [x7, w1, uxtw #2]
   82e68:	294208c1 	ldp	w1, w2, [x6, #16]
   82e6c:	11000421 	add	w1, w1, #0x1
   82e70:	11001042 	add	w2, w2, #0x4
   82e74:	290208c1 	stp	w1, w2, [x6, #16]
   82e78:	b82158e4 	str	w4, [x7, w1, uxtw #2]
   82e7c:	294208c1 	ldp	w1, w2, [x6, #16]
   82e80:	11000421 	add	w1, w1, #0x1
   82e84:	11001042 	add	w2, w2, #0x4
   82e88:	290208c1 	stp	w1, w2, [x6, #16]
   82e8c:	b82158e5 	str	w5, [x7, w1, uxtw #2]
   82e90:	294204c2 	ldp	w2, w1, [x6, #16]
   82e94:	11000442 	add	w2, w2, #0x1
   82e98:	11001021 	add	w1, w1, #0x4
   82e9c:	290204c2 	stp	w2, w1, [x6, #16]
   82ea0:	d65f03c0 	ret
   82ea4:	d503201f 	nop
   82ea8:	d503201f 	nop
   82eac:	d503201f 	nop

0000000000082eb0 <_ZN7Mailbox4PackEv>:
   82eb0:	b9401001 	ldr	w1, [x0, #16]
   82eb4:	f9400403 	ldr	x3, [x0, #8]
   82eb8:	b821787f 	str	wzr, [x3, x1, lsl #2]
   82ebc:	29420402 	ldp	w2, w1, [x0, #16]
   82ec0:	11001021 	add	w1, w1, #0x4
   82ec4:	11000442 	add	w2, w2, #0x1
   82ec8:	29020402 	stp	w2, w1, [x0, #16]
   82ecc:	b9000061 	str	w1, [x3]
   82ed0:	d65f03c0 	ret
   82ed4:	d503201f 	nop
   82ed8:	d503201f 	nop
   82edc:	d503201f 	nop

0000000000082ee0 <_ZN7Mailbox5WriteEv>:
   82ee0:	a9400001 	ldp	x1, x0, [x0]
   82ee4:	11002000 	add	w0, w0, #0x8
   82ee8:	b9000020 	str	w0, [x1]
   82eec:	d65f03c0 	ret

0000000000082ef0 <_ZN11SystemTimer14GetSystemTimerEv>:
   82ef0:	d2860000 	mov	x0, #0x3000                	// #12288
   82ef4:	f2a7e000 	movk	x0, #0x3f00, lsl #16
   82ef8:	d65f03c0 	ret
   82efc:	d503201f 	nop

0000000000082f00 <_ZN11SystemTimer23GetSystemTimerFrequencyEv>:
   82f00:	52884800 	mov	w0, #0x4240                	// #16960
   82f04:	72a001e0 	movk	w0, #0xf, lsl #16
   82f08:	d65f03c0 	ret
   82f0c:	d503201f 	nop

0000000000082f10 <_ZN11SystemTimer13GetSystemTimeEv>:
   82f10:	d2860002 	mov	x2, #0x3000                	// #12288
   82f14:	f2a7e002 	movk	x2, #0x3f00, lsl #16
   82f18:	b9400440 	ldr	w0, [x2, #4]
   82f1c:	b9400841 	ldr	w1, [x2, #8]
   82f20:	b9400843 	ldr	w3, [x2, #8]
   82f24:	6b03003f 	cmp	w1, w3
   82f28:	54000060 	b.eq	82f34 <_ZN11SystemTimer13GetSystemTimeEv+0x24>  // b.none
   82f2c:	b9400440 	ldr	w0, [x2, #4]
   82f30:	b9400841 	ldr	w1, [x2, #8]
   82f34:	2a0103e1 	mov	w1, w1
   82f38:	2a0003e0 	mov	w0, w0
   82f3c:	aa018000 	orr	x0, x0, x1, lsl #32
   82f40:	d65f03c0 	ret
	...

0000000000082f50 <_Z14getFunctionMapv>:
   82f50:	f0000000 	adrp	x0, 85000 <_ZL17_systemFontBuffer+0x1fd8>
   82f54:	91333400 	add	x0, x0, #0xccd
   82f58:	d65f03c0 	ret
   82f5c:	00000000 	udf	#0

0000000000082f60 <_Z13setSystemFont8PSF2Font>:
   82f60:	a9bf7bfd 	stp	x29, x30, [sp, #-16]!
   82f64:	b0000042 	adrp	x2, 8b000 <_ZL4mbox+0x860>
   82f68:	aa0003e1 	mov	x1, x0
   82f6c:	910003fd 	mov	x29, sp
   82f70:	911ec040 	add	x0, x2, #0x7b0
   82f74:	d2808102 	mov	x2, #0x408                 	// #1032
   82f78:	97fff766 	bl	80d10 <memcpy>
   82f7c:	a8c17bfd 	ldp	x29, x30, [sp], #16
   82f80:	d65f03c0 	ret
   82f84:	d503201f 	nop
   82f88:	d503201f 	nop
   82f8c:	d503201f 	nop

0000000000082f90 <_Z13getSystemFontv>:
   82f90:	a9bf7bfd 	stp	x29, x30, [sp, #-16]!
   82f94:	aa0803e0 	mov	x0, x8
   82f98:	d2808102 	mov	x2, #0x408                 	// #1032
   82f9c:	910003fd 	mov	x29, sp
   82fa0:	b0000041 	adrp	x1, 8b000 <_ZL4mbox+0x860>
   82fa4:	911ec021 	add	x1, x1, #0x7b0
   82fa8:	97fff75a 	bl	80d10 <memcpy>
   82fac:	a8c17bfd 	ldp	x29, x30, [sp], #16
   82fb0:	d65f03c0 	ret
	...

0000000000082fc0 <_GLOBAL__sub_I__Z13setSystemFont8PSF2Font>:
   82fc0:	b0000040 	adrp	x0, 8b000 <_ZL4mbox+0x860>
   82fc4:	911ec000 	add	x0, x0, #0x7b0
   82fc8:	17fffc6e 	b	82180 <_ZN8PSF2FontC1Ev>

Disassembly of section .rodata:

0000000000082fd0 <_ZL17_systemFontBuffer-0x58>:
   82fd0:	656d6954 	fnmls	z20.h, p2/m, z10.h, z13.h
   82fd4:	0000203a 	udf	#8250
   82fd8:	6f6d654d 	sqshlu	v13.2d, v10.2d, #45
   82fdc:	50207972 	adr	x18, c3f0a <__bss_end+0x38352>
   82fe0:	7469736f 	.inst	0x7469736f ; undefined
   82fe4:	3a6e6f69 	.inst	0x3a6e6f69 ; undefined
   82fe8:	00000020 	udf	#32
   82fec:	00000000 	udf	#0
   82ff0:	75706e49 	.inst	0x75706e49 ; undefined
   82ff4:	73692074 	.inst	0x73692074 ; undefined
   82ff8:	74634120 	.inst	0x74634120 ; undefined
   82ffc:	00657669 	.inst	0x00657669 ; undefined
   83000:	75706e49 	.inst	0x75706e49 ; undefined
   83004:	73692074 	.inst	0x73692074 ; undefined
   83008:	746f6e20 	.inst	0x746f6e20 ; undefined
   8300c:	74634120 	.inst	0x74634120 ; undefined
   83010:	00657669 	.inst	0x00657669 ; undefined
   83014:	00000000 	udf	#0
   83018:	656d6954 	fnmls	z20.h, p2/m, z10.h, z13.h
   8301c:	206f7420 	.inst	0x206f7420 ; undefined
   83020:	74696157 	.inst	0x74696157 ; undefined
   83024:	0000203a 	udf	#8250

0000000000083028 <_ZL17_systemFontBuffer>:
   83028:	864ab572 	.inst	0x864ab572 ; undefined
   8302c:	00000000 	udf	#0
   83030:	00000020 	udf	#32
   83034:	00000001 	udf	#1
   83038:	00000100 	udf	#256
   8303c:	00000028 	udf	#40
   83040:	00000014 	udf	#20
   83044:	0000000c 	udf	#12
	...
   83050:	00004055 	udf	#16469
   83054:	00004040 	udf	#16448
   83058:	00004040 	udf	#16448
   8305c:	00004040 	udf	#16448
   83060:	00004040 	udf	#16448
   83064:	00004040 	udf	#16448
   83068:	00004055 	udf	#16469
	...
   8307c:	e0ff0000 	.inst	0xe0ff0000 ; undefined
   83080:	80318031 	.inst	0x80318031 ; NYI
   83084:	80318031 	.inst	0x80318031 ; NYI
   83088:	80318031 	.inst	0x80318031 ; NYI
   8308c:	c0318031 	.inst	0xc0318031 ; undefined
   83090:	0000e030 	udf	#57392
	...
   830a0:	c0004000 	.inst	0xc0004000 ; undefined
   830a4:	80018000 	.inst	0x80018000 ; undefined
   830a8:	00030001 	.inst	0x00030001 ; undefined
   830ac:	0006c07f 	.inst	0x0006c07f ; undefined
   830b0:	c07f000c 	.inst	0xc07f000c ; undefined
   830b4:	00100018 	.inst	0x00100018 ; undefined
   830b8:	00200030 	.inst	0x00200030 ; NYI
   830bc:	00400060 	.inst	0x00400060 ; undefined
	...
   830cc:	c0000000 	.inst	0xc0000000 ; undefined
   830d0:	000e8003 	.inst	0x000e8003 ; undefined
   830d4:	00e00038 	.inst	0x00e00038 ; undefined
   830d8:	000e0038 	.inst	0x000e0038 ; undefined
   830dc:	c0008003 	.inst	0xc0008003 ; undefined
   830e0:	c0ff0000 	.inst	0xc0ff0000 ; undefined
	...
   830f4:	00600000 	.inst	0x00600000 ; undefined
   830f8:	000e0038 	.inst	0x000e0038 ; undefined
   830fc:	e0008003 	.inst	0xe0008003 ; undefined
   83100:	000e8003 	.inst	0x000e8003 ; undefined
   83104:	00600038 	.inst	0x00600038 ; undefined
   83108:	e07f0000 	.inst	0xe07f0000 ; undefined
	...
   83120:	801f801f 	.inst	0x801f801f ; undefined
   83124:	801f801f 	.inst	0x801f801f ; undefined
   83128:	801f801f 	.inst	0x801f801f ; undefined
   8312c:	0000801f 	udf	#32799
	...
   83144:	00040000 	.inst	0x00040000 ; undefined
   83148:	001f000e 	.inst	0x001f000e ; undefined
   8314c:	c07f803f 	.inst	0xc07f803f ; undefined
   83150:	001f803f 	.inst	0x001f803f ; undefined
   83154:	0004000e 	.inst	0x0004000e ; undefined
	...
   83168:	006100e1 	.inst	0x006100e1 ; undefined
   8316c:	00620062 	.inst	0x00620062 ; undefined
   83170:	00640064 	.inst	0x00640064 ; undefined
   83174:	c011c068 	.inst	0xc011c068 ; undefined
   83178:	c024c012 	.inst	0xc024c012 ; undefined
   8317c:	c040e027 	.inst	0xc040e027 ; undefined
   83180:	0000c040 	udf	#49216
	...
   83190:	006100e1 	.inst	0x006100e1 ; undefined
   83194:	00620062 	.inst	0x00620062 ; undefined
   83198:	00640064 	.inst	0x00640064 ; undefined
   8319c:	600ac069 	.inst	0x600ac069 ; undefined
   831a0:	c0106008 	.inst	0xc0106008 ; undefined
   831a4:	e0230011 	.inst	0xe0230011 ; undefined
   831a8:	0000e023 	udf	#57379
	...
   831b8:	003100e1 	.inst	0x003100e1 ; NYI
   831bc:	00e20032 	.inst	0x00e20032 ; undefined
   831c0:	00340034 	.inst	0x00340034 ; NYI
   831c4:	c009c0e8 	.inst	0xc009c0e8 ; undefined
   831c8:	c024c012 	.inst	0xc024c012 ; undefined
   831cc:	c040e027 	.inst	0xc040e027 ; undefined
   831d0:	0000c040 	udf	#49216
	...
   831dc:	00060000 	.inst	0x00060000 ; undefined
   831e0:	00060006 	.inst	0x00060006 ; undefined
   831e4:	00060006 	.inst	0x00060006 ; undefined
   831e8:	00060006 	.inst	0x00060006 ; undefined
   831ec:	00000000 	udf	#0
   831f0:	00060006 	.inst	0x00060006 ; undefined
   831f4:	00060006 	.inst	0x00060006 ; undefined
   831f8:	00060006 	.inst	0x00060006 ; undefined
   831fc:	00000006 	udf	#6
	...
   83208:	000a000a 	.inst	0x000a000a ; undefined
	...
   83248:	000c0000 	.inst	0x000c0000 ; undefined
   8324c:	001c0006 	.inst	0x001c0006 ; undefined
	...
   83258:	6006c003 	.inst	0x6006c003 ; undefined
   8325c:	000c0006 	.inst	0x000c0006 ; undefined
   83260:	000c000c 	.inst	0x000c000c ; undefined
   83264:	0018803f 	.inst	0x0018803f ; undefined
   83268:	00180018 	.inst	0x00180018 ; undefined
   8326c:	00300018 	.inst	0x00300018 ; NYI
   83270:	00300030 	.inst	0x00300030 ; NYI
   83274:	00000030 	udf	#48
	...
   83280:	00060006 	.inst	0x00060006 ; undefined
   83284:	00060006 	.inst	0x00060006 ; undefined
   83288:	0006c03f 	.inst	0x0006c03f ; undefined
   8328c:	00060006 	.inst	0x00060006 ; undefined
   83290:	00060006 	.inst	0x00060006 ; undefined
   83294:	00060006 	.inst	0x00060006 ; undefined
   83298:	00060006 	.inst	0x00060006 ; undefined
   8329c:	00000006 	udf	#6
	...
   832a8:	00060006 	.inst	0x00060006 ; undefined
   832ac:	00060006 	.inst	0x00060006 ; undefined
   832b0:	0006c03f 	.inst	0x0006c03f ; undefined
   832b4:	00060006 	.inst	0x00060006 ; undefined
   832b8:	00060006 	.inst	0x00060006 ; undefined
   832bc:	0006c03f 	.inst	0x0006c03f ; undefined
   832c0:	00060006 	.inst	0x00060006 ; undefined
   832c4:	00000006 	udf	#6
	...
   832d0:	00900060 	.inst	0x00900060 ; undefined
   832d4:	00920090 	.inst	0x00920090 ; undefined
   832d8:	00980094 	.inst	0x00980094 ; undefined
   832dc:	2029c076 	.inst	0x2029c076 ; undefined
   832e0:	20892049 	.inst	0x20892049 ; undefined
   832e4:	20092009 	.inst	0x20092009 ; undefined
   832e8:	0000c006 	udf	#49158
	...
   832f8:	602660fe 	.inst	0x602660fe ; undefined
   832fc:	a025a025 	.inst	0xa025a025 ; undefined
   83300:	2024a025 	.inst	0x2024a025 ; undefined
	...
   83334:	60660000 	.inst	0x60660000 ; undefined
   83338:	00006066 	udf	#24678
	...
   83350:	00078001 	.inst	0x00078001 ; undefined
   83354:	0030000c 	.inst	0x0030000c ; NYI
   83358:	000c0030 	.inst	0x000c0030 ; undefined
   8335c:	80010007 	.inst	0x80010007 ; undefined
	...
   83378:	001c0030 	.inst	0x001c0030 ; undefined
   8337c:	80010006 	.inst	0x80010006 ; undefined
   83380:	00068001 	.inst	0x00068001 ; undefined
   83384:	0030001c 	.inst	0x0030001c ; NYI
	...
   83394:	c0390000 	.inst	0xc0390000 ; undefined
   83398:	8031c039 	.inst	0x8031c039 ; NYI
   8339c:	0000c018 	udf	#49176
	...
   833bc:	c0390000 	.inst	0xc0390000 ; undefined
   833c0:	c018c039 	.inst	0xc018c039 ; undefined
   833c4:	00008031 	udf	#32817
	...
   833fc:	c0390000 	.inst	0xc0390000 ; undefined
   83400:	c018c039 	.inst	0xc018c039 ; undefined
   83404:	00008031 	udf	#32817
	...
   83424:	c0390000 	.inst	0xc0390000 ; undefined
   83428:	8031c039 	.inst	0x8031c039 ; NYI
   8342c:	0000c018 	udf	#49176
	...
   8344c:	000e000e 	.inst	0x000e000e ; undefined
   83450:	000c000e 	.inst	0x000c000e ; undefined
   83454:	00000006 	udf	#6
   83458:	00110000 	.inst	0x00110000 ; undefined
   8345c:	0000000e 	udf	#14
   83460:	c018800f 	.inst	0xc018800f ; undefined
   83464:	00300030 	.inst	0x00300030 ; NYI
   83468:	00600060 	.inst	0x00600060 ; undefined
   8346c:	c0600060 	.inst	0xc0600060 ; undefined
   83470:	c030c060 	.inst	0xc030c060 ; undefined
   83474:	c018c030 	.inst	0xc018c030 ; undefined
   83478:	0000c00f 	udf	#49167
	...
   83488:	000e0011 	.inst	0x000e0011 ; undefined
   8348c:	c00e0000 	.inst	0xc00e0000 ; undefined
   83490:	c030c039 	.inst	0xc030c039 ; undefined
   83494:	c060c060 	.inst	0xc060c060 ; undefined
   83498:	c060c060 	.inst	0xc060c060 ; undefined
   8349c:	c01ec031 	.inst	0xc01ec031 ; undefined
   834a0:	c000c000 	.inst	0xc000c000 ; undefined
   834a4:	001f8031 	.inst	0x001f8031 ; undefined
   834a8:	00060000 	.inst	0x00060000 ; undefined
   834ac:	00000006 	udf	#6
   834b0:	0006c03f 	.inst	0x0006c03f ; undefined
   834b4:	00060006 	.inst	0x00060006 ; undefined
   834b8:	00060006 	.inst	0x00060006 ; undefined
   834bc:	00060006 	.inst	0x00060006 ; undefined
   834c0:	00060006 	.inst	0x00060006 ; undefined
   834c4:	00060006 	.inst	0x00060006 ; undefined
   834c8:	0000c03f 	udf	#49215
	...
   834dc:	003e0000 	.inst	0x003e0000 ; NYI
   834e0:	00060006 	.inst	0x00060006 ; undefined
   834e4:	00060006 	.inst	0x00060006 ; undefined
   834e8:	00060006 	.inst	0x00060006 ; undefined
   834ec:	00060006 	.inst	0x00060006 ; undefined
   834f0:	00000006 	udf	#6
	...
   83500:	c018800f 	.inst	0xc018800f ; undefined
   83504:	00300030 	.inst	0x00300030 ; NYI
   83508:	001e0038 	.inst	0x001e0038 ; undefined
   8350c:	c0018007 	.inst	0xc0018007 ; undefined
   83510:	c000c000 	.inst	0xc000c000 ; undefined
   83514:	8031c000 	.inst	0x8031c000 ; NYI
   83518:	0006001f 	.inst	0x0006001f ; undefined
   8351c:	000e0003 	.inst	0x000e0003 ; undefined
	...
   8352c:	001f0000 	.inst	0x001f0000 ; undefined
   83530:	00308031 	.inst	0x00308031 ; NYI
   83534:	001e0038 	.inst	0x001e0038 ; undefined
   83538:	8003000f 	.inst	0x8003000f ; undefined
   8353c:	80318001 	.inst	0x80318001 ; NYI
   83540:	0006001f 	.inst	0x0006001f ; undefined
   83544:	000e0003 	.inst	0x000e0003 ; undefined
	...
   83578:	00060000 	.inst	0x00060000 ; undefined
   8357c:	00060006 	.inst	0x00060006 ; undefined
   83580:	00060006 	.inst	0x00060006 ; undefined
   83584:	00060006 	.inst	0x00060006 ; undefined
   83588:	00020006 	.inst	0x00020006 ; undefined
   8358c:	00060000 	.inst	0x00060000 ; undefined
   83590:	00000006 	udf	#6
	...
   8359c:	80190000 	.inst	0x80190000 ; undefined
   835a0:	80198019 	.inst	0x80198019 ; undefined
   835a4:	00000011 	udf	#17
	...
   835c8:	c00cc00c 	.inst	0xc00cc00c ; undefined
   835cc:	8008c00c 	.inst	0x8008c00c ; undefined
   835d0:	0011e07f 	.inst	0x0011e07f ; undefined
   835d4:	00330033 	.inst	0x00330033 ; NYI
   835d8:	0022c0ff 	.inst	0x0022c0ff ; NYI
   835dc:	00660066 	.inst	0x00660066 ; undefined
   835e0:	00000066 	udf	#102
	...
   835ec:	00020000 	.inst	0x00020000 ; undefined
   835f0:	c012800f 	.inst	0xc012800f ; undefined
   835f4:	00320032 	.inst	0x00320032 ; NYI
   835f8:	001e003a 	.inst	0x001e003a ; undefined
   835fc:	8007000f 	.inst	0x8007000f ; undefined
   83600:	c004c005 	.inst	0xc004c005 ; undefined
   83604:	8034c004 	.inst	0x8034c004 ; NYI
   83608:	0004001f 	.inst	0x0004001f ; undefined
	...
   83618:	40d80070 	.inst	0x40d80070 ; undefined
   8361c:	80884088 	.inst	0x80884088 ; undefined
   83620:	00da0089 	.inst	0x00da0089 ; undefined
   83624:	600bc075 	.inst	0x600bc075 ; undefined
   83628:	20222012 	.inst	0x20222012 ; undefined
   8362c:	60432042 	.inst	0x60432042 ; undefined
   83630:	0000c001 	udf	#49153
	...
   83640:	0066003c 	.inst	0x0066003c ; undefined
   83644:	00660066 	.inst	0x00660066 ; undefined
   83648:	00380034 	.inst	0x00380034 ; NYI
   8364c:	c0ccc06c 	.inst	0xc0ccc06c ; undefined
   83650:	00c380c6 	.inst	0x00c380c6 ; undefined
   83654:	c06e80c3 	.inst	0xc06e80c3 ; undefined
   83658:	00006038 	udf	#24632
	...
   83664:	000e0000 	.inst	0x000e0000 ; undefined
   83668:	000e000e 	.inst	0x000e000e ; undefined
   8366c:	000c0006 	.inst	0x000c0006 ; undefined
	...
   8368c:	c0000000 	.inst	0xc0000000 ; undefined
   83690:	00060003 	.inst	0x00060003 ; undefined
   83694:	000c000c 	.inst	0x000c000c ; undefined
   83698:	00180018 	.inst	0x00180018 ; undefined
   8369c:	00180018 	.inst	0x00180018 ; undefined
   836a0:	00180018 	.inst	0x00180018 ; undefined
   836a4:	000c000c 	.inst	0x000c000c ; undefined
   836a8:	00030006 	.inst	0x00030006 ; undefined
   836ac:	0000c000 	udf	#49152
   836b0:	00000000 	udf	#0
   836b4:	00600000 	.inst	0x00600000 ; undefined
   836b8:	000c0018 	.inst	0x000c0018 ; undefined
   836bc:	00060006 	.inst	0x00060006 ; undefined
   836c0:	00030003 	.inst	0x00030003 ; undefined
   836c4:	00030003 	.inst	0x00030003 ; undefined
   836c8:	00030003 	.inst	0x00030003 ; undefined
   836cc:	00060006 	.inst	0x00060006 ; undefined
   836d0:	0018000c 	.inst	0x0018000c ; undefined
   836d4:	00000060 	udf	#96
   836d8:	00000000 	udf	#0
   836dc:	00040000 	.inst	0x00040000 ; undefined
   836e0:	80240004 	.inst	0x80240004 ; NYI
   836e4:	0004803b 	.inst	0x0004803b ; undefined
   836e8:	0011001b 	.inst	0x0011001b ; undefined
	...
   8370c:	00040000 	.inst	0x00040000 ; undefined
   83710:	00040004 	.inst	0x00040004 ; undefined
   83714:	c07f0004 	.inst	0xc07f0004 ; undefined
   83718:	00040004 	.inst	0x00040004 ; undefined
   8371c:	00040004 	.inst	0x00040004 ; undefined
	...
   83744:	000e000e 	.inst	0x000e000e ; undefined
   83748:	0006000e 	.inst	0x0006000e ; undefined
   8374c:	0000000c 	udf	#12
	...
   83764:	c07f0000 	.inst	0xc07f0000 ; undefined
	...
   83794:	000e000e 	.inst	0x000e000e ; undefined
   83798:	0000000e 	udf	#14
	...
   837a4:	40000000 	.inst	0x40000000 ; undefined
   837a8:	8000c000 	.inst	0x8000c000 ; undefined
   837ac:	00018001 	.inst	0x00018001 ; undefined
   837b0:	00020003 	.inst	0x00020003 ; undefined
   837b4:	000c0006 	.inst	0x000c0006 ; undefined
   837b8:	00180008 	.inst	0x00180008 ; undefined
   837bc:	00300010 	.inst	0x00300010 ; NYI
   837c0:	00600020 	.inst	0x00600020 ; undefined
   837c4:	00000040 	udf	#64
	...
   837d0:	8031001f 	.inst	0x8031001f ; NYI
   837d4:	c0608020 	.inst	0xc0608020 ; undefined
   837d8:	c064c060 	.inst	0xc064c060 ; undefined
   837dc:	c064c064 	.inst	0xc064c064 ; undefined
   837e0:	c060c060 	.inst	0xc060c060 ; undefined
   837e4:	80318020 	.inst	0x80318020 ; NYI
   837e8:	0000001f 	udf	#31
	...
   837f8:	003e0006 	.inst	0x003e0006 ; NYI
   837fc:	00060006 	.inst	0x00060006 ; undefined
   83800:	00060006 	.inst	0x00060006 ; undefined
   83804:	00060006 	.inst	0x00060006 ; undefined
   83808:	00060006 	.inst	0x00060006 ; undefined
   8380c:	00060006 	.inst	0x00060006 ; undefined
   83810:	00000006 	udf	#6
	...
   83820:	8063003f 	.inst	0x8063003f ; undefined
   83824:	80018001 	.inst	0x80018001 ; undefined
   83828:	00038001 	.inst	0x00038001 ; undefined
   8382c:	000c0006 	.inst	0x000c0006 ; undefined
   83830:	00300018 	.inst	0x00300018 ; NYI
   83834:	807f0060 	.inst	0x807f0060 ; undefined
   83838:	0000807f 	udf	#32895
	...
   83848:	8063003f 	.inst	0x8063003f ; undefined
   8384c:	80018001 	.inst	0x80018001 ; undefined
   83850:	001e0003 	.inst	0x001e0003 ; undefined
   83854:	80010003 	.inst	0x80010003 ; undefined
   83858:	80018001 	.inst	0x80018001 ; undefined
   8385c:	80638001 	.inst	0x80638001 ; undefined
   83860:	0000003f 	udf	#63
	...
   83870:	80038001 	.inst	0x80038001 ; undefined
   83874:	800d8007 	.inst	0x800d8007 ; undefined
   83878:	80198009 	.inst	0x80198009 ; undefined
   8387c:	80618031 	.inst	0x80618031 ; undefined
   83880:	e07fe07f 	.inst	0xe07fe07f ; undefined
   83884:	80018001 	.inst	0x80018001 ; undefined
   83888:	00008001 	udf	#32769
	...
   83898:	c03fc03f 	.inst	0xc03fc03f ; undefined
   8389c:	00200020 	.inst	0x00200020 ; NYI
   838a0:	003e0020 	.inst	0x003e0020 ; NYI
   838a4:	c0018007 	.inst	0xc0018007 ; undefined
   838a8:	c000c000 	.inst	0xc000c000 ; undefined
   838ac:	c031c000 	.inst	0xc031c000 ; undefined
   838b0:	0000801f 	udf	#32799
	...
   838c0:	8039000f 	.inst	0x8039000f ; NYI
   838c4:	00600030 	.inst	0x00600030 ; undefined
   838c8:	006f0060 	.inst	0x006f0060 ; undefined
   838cc:	c0608071 	.inst	0xc0608071 ; undefined
   838d0:	c060c060 	.inst	0xc060c060 ; undefined
   838d4:	8039c070 	.inst	0x8039c070 ; NYI
   838d8:	0000001f 	udf	#31
	...
   838e8:	c07fc07f 	.inst	0xc07fc07f ; undefined
   838ec:	00038001 	.inst	0x00038001 ; undefined
   838f0:	00060006 	.inst	0x00060006 ; undefined
   838f4:	000c000c 	.inst	0x000c000c ; undefined
   838f8:	00180018 	.inst	0x00180018 ; undefined
   838fc:	00300030 	.inst	0x00300030 ; NYI
   83900:	00000030 	udf	#48
	...
   83910:	8031001f 	.inst	0x8031001f ; NYI
   83914:	c060c060 	.inst	0xc060c060 ; undefined
   83918:	003d8070 	.inst	0x003d8070 ; NYI
   8391c:	8033001f 	.inst	0x8033001f ; NYI
   83920:	c060c061 	.inst	0xc060c061 ; undefined
   83924:	8031c060 	.inst	0x8031c060 ; NYI
   83928:	0000001f 	udf	#31
	...
   83938:	8033001f 	.inst	0x8033001f ; NYI
   8393c:	c060c061 	.inst	0xc060c061 ; undefined
   83940:	c060c060 	.inst	0xc060c060 ; undefined
   83944:	c01ec031 	.inst	0xc01ec031 ; undefined
   83948:	8000c000 	.inst	0x8000c000 ; undefined
   8394c:	00638001 	.inst	0x00638001 ; undefined
   83950:	0000003e 	udf	#62
	...
   83964:	000e0000 	.inst	0x000e0000 ; undefined
   83968:	0000000e 	udf	#14
	...
   83974:	000e0000 	.inst	0x000e0000 ; undefined
   83978:	0000000e 	udf	#14
	...
   8398c:	000e0000 	.inst	0x000e0000 ; undefined
   83990:	0000000e 	udf	#14
	...
   8399c:	000e0000 	.inst	0x000e0000 ; undefined
   839a0:	0006000e 	.inst	0x0006000e ; undefined
   839a4:	0000000c 	udf	#12
	...
   839b4:	c0000000 	.inst	0xc0000000 ; undefined
   839b8:	000e8003 	.inst	0x000e8003 ; undefined
   839bc:	00e00038 	.inst	0x00e00038 ; undefined
   839c0:	000e0038 	.inst	0x000e0038 ; undefined
   839c4:	c0008003 	.inst	0xc0008003 ; undefined
	...
   839e4:	0000c07f 	udf	#49279
   839e8:	c07f0000 	.inst	0xc07f0000 ; undefined
	...
   83a04:	00600000 	.inst	0x00600000 ; undefined
   83a08:	000e0038 	.inst	0x000e0038 ; undefined
   83a0c:	e0008003 	.inst	0xe0008003 ; undefined
   83a10:	000e8003 	.inst	0x000e8003 ; undefined
   83a14:	00600038 	.inst	0x00600038 ; undefined
	...
   83a28:	8063003f 	.inst	0x8063003f ; undefined
   83a2c:	80018001 	.inst	0x80018001 ; undefined
   83a30:	000c0003 	.inst	0x000c0003 ; undefined
   83a34:	00180018 	.inst	0x00180018 ; undefined
   83a38:	00000018 	udf	#24
   83a3c:	00180000 	.inst	0x00180000 ; undefined
   83a40:	00000018 	udf	#24
	...
   83a50:	c0188007 	.inst	0xc0188007 ; undefined
   83a54:	c027c030 	.inst	0xc027c030 ; undefined
   83a58:	c04cc04c 	.inst	0xc04cc04c ; undefined
   83a5c:	c04cc04c 	.inst	0xc04cc04c ; undefined
   83a60:	e026c04f 	.inst	0xe026c04f ; undefined
   83a64:	00180030 	.inst	0x00180030 ; undefined
   83a68:	0000c007 	udf	#49159
	...
   83a78:	00060006 	.inst	0x00060006 ; undefined
   83a7c:	000b000f 	.inst	0x000b000f ; undefined
   83a80:	80198009 	.inst	0x80198009 ; undefined
   83a84:	c0108011 	.inst	0xc0108011 ; undefined
   83a88:	c020c03f 	.inst	0xc020c03f ; undefined
   83a8c:	60606060 	.inst	0x60606060 ; undefined
   83a90:	00006060 	udf	#24672
	...
   83aa0:	c031803f 	.inst	0xc031803f ; undefined
   83aa4:	c030c030 	.inst	0xc030c030 ; undefined
   83aa8:	8031c030 	.inst	0x8031c030 ; NYI
   83aac:	8031003f 	.inst	0x8031003f ; NYI
   83ab0:	c030c030 	.inst	0xc030c030 ; undefined
   83ab4:	c031c030 	.inst	0xc031c030 ; undefined
   83ab8:	0000803f 	udf	#32831
	...
   83ac8:	c018800f 	.inst	0xc018800f ; undefined
   83acc:	00300030 	.inst	0x00300030 ; NYI
   83ad0:	00600060 	.inst	0x00600060 ; undefined
   83ad4:	00600060 	.inst	0x00600060 ; undefined
   83ad8:	00300060 	.inst	0x00300060 ; NYI
   83adc:	c0180030 	.inst	0xc0180030 ; undefined
   83ae0:	0000800f 	udf	#32783
	...
   83af0:	8063007e 	.inst	0x8063007e ; undefined
   83af4:	c0608061 	.inst	0xc0608061 ; undefined
   83af8:	c060c060 	.inst	0xc060c060 ; undefined
   83afc:	c060c060 	.inst	0xc060c060 ; undefined
   83b00:	8061c060 	.inst	0x8061c060 ; undefined
   83b04:	00678061 	.inst	0x00678061 ; undefined
   83b08:	0000007c 	udf	#124
	...
   83b18:	0030c03f 	.inst	0x0030c03f ; NYI
   83b1c:	00300030 	.inst	0x00300030 ; NYI
   83b20:	00300030 	.inst	0x00300030 ; NYI
   83b24:	0030803f 	.inst	0x0030803f ; NYI
   83b28:	00300030 	.inst	0x00300030 ; NYI
   83b2c:	00300030 	.inst	0x00300030 ; NYI
   83b30:	0000c03f 	udf	#49215
	...
   83b40:	0030c03f 	.inst	0x0030c03f ; NYI
   83b44:	00300030 	.inst	0x00300030 ; NYI
   83b48:	00300030 	.inst	0x00300030 ; NYI
   83b4c:	0030803f 	.inst	0x0030803f ; NYI
   83b50:	00300030 	.inst	0x00300030 ; NYI
   83b54:	00300030 	.inst	0x00300030 ; NYI
   83b58:	00000030 	udf	#48
	...
   83b68:	c018800f 	.inst	0xc018800f ; undefined
   83b6c:	00300030 	.inst	0x00300030 ; NYI
   83b70:	00600060 	.inst	0x00600060 ; undefined
   83b74:	c0600060 	.inst	0xc0600060 ; undefined
   83b78:	c030c060 	.inst	0xc030c060 ; undefined
   83b7c:	c018c030 	.inst	0xc018c030 ; undefined
   83b80:	0000c00f 	udf	#49167
	...
   83b90:	c060c060 	.inst	0xc060c060 ; undefined
   83b94:	c060c060 	.inst	0xc060c060 ; undefined
   83b98:	c060c060 	.inst	0xc060c060 ; undefined
   83b9c:	c060c07f 	.inst	0xc060c07f ; undefined
   83ba0:	c060c060 	.inst	0xc060c060 ; undefined
   83ba4:	c060c060 	.inst	0xc060c060 ; undefined
   83ba8:	0000c060 	udf	#49248
	...
   83bb8:	0006c03f 	.inst	0x0006c03f ; undefined
   83bbc:	00060006 	.inst	0x00060006 ; undefined
   83bc0:	00060006 	.inst	0x00060006 ; undefined
   83bc4:	00060006 	.inst	0x00060006 ; undefined
   83bc8:	00060006 	.inst	0x00060006 ; undefined
   83bcc:	00060006 	.inst	0x00060006 ; undefined
   83bd0:	0000c03f 	udf	#49215
	...
   83be0:	8001801f 	.inst	0x8001801f ; undefined
   83be4:	80018001 	.inst	0x80018001 ; undefined
   83be8:	80018001 	.inst	0x80018001 ; undefined
   83bec:	80018001 	.inst	0x80018001 ; undefined
   83bf0:	80018001 	.inst	0x80018001 ; undefined
   83bf4:	00238021 	.inst	0x00238021 ; NYI
   83bf8:	0000003c 	udf	#60
	...
   83c08:	8061c060 	.inst	0x8061c060 ; undefined
   83c0c:	00660063 	.inst	0x00660063 ; undefined
   83c10:	0078006c 	.inst	0x0078006c ; undefined
   83c14:	006c0078 	.inst	0x006c0078 ; undefined
   83c18:	00630066 	.inst	0x00630066 ; undefined
   83c1c:	c0608061 	.inst	0xc0608061 ; undefined
   83c20:	00006060 	udf	#24672
	...
   83c30:	00300030 	.inst	0x00300030 ; NYI
   83c34:	00300030 	.inst	0x00300030 ; NYI
   83c38:	00300030 	.inst	0x00300030 ; NYI
   83c3c:	00300030 	.inst	0x00300030 ; NYI
   83c40:	00300030 	.inst	0x00300030 ; NYI
   83c44:	00300030 	.inst	0x00300030 ; NYI
   83c48:	0000c03f 	udf	#49215
	...
   83c58:	e0706070 	.inst	0xe0706070 ; undefined
   83c5c:	e070e070 	.inst	0xe070e070 ; undefined
   83c60:	60596059 	.inst	0x60596059 ; undefined
   83c64:	60596059 	.inst	0x60596059 ; undefined
   83c68:	604e604e 	.inst	0x604e604e ; undefined
   83c6c:	60446044 	.inst	0x60446044 ; undefined
   83c70:	00006040 	udf	#24640
	...
   83c80:	40704060 	.inst	0x40704060 ; undefined
   83c84:	40584070 	.inst	0x40584070 ; undefined
   83c88:	404c404c 	.inst	0x404c404c ; undefined
   83c8c:	40434046 	.inst	0x40434046 ; undefined
   83c90:	c0414043 	.inst	0xc0414043 ; undefined
   83c94:	c040c041 	.inst	0xc040c041 ; undefined
   83c98:	00004040 	udf	#16448
	...
   83ca8:	8019000f 	.inst	0x8019000f ; undefined
   83cac:	c030c030 	.inst	0xc030c030 ; undefined
   83cb0:	60606060 	.inst	0x60606060 ; undefined
   83cb4:	60606060 	.inst	0x60606060 ; undefined
   83cb8:	c0306060 	.inst	0xc0306060 ; undefined
   83cbc:	8019c030 	.inst	0x8019c030 ; undefined
   83cc0:	0000000f 	udf	#15
	...
   83cd0:	c031803f 	.inst	0xc031803f ; undefined
   83cd4:	c030c030 	.inst	0xc030c030 ; undefined
   83cd8:	c030c030 	.inst	0xc030c030 ; undefined
   83cdc:	003e8031 	.inst	0x003e8031 ; NYI
   83ce0:	00300030 	.inst	0x00300030 ; NYI
   83ce4:	00300030 	.inst	0x00300030 ; NYI
   83ce8:	00000030 	udf	#48
	...
   83cf8:	8019000f 	.inst	0x8019000f ; undefined
   83cfc:	c030c030 	.inst	0xc030c030 ; undefined
   83d00:	60606060 	.inst	0x60606060 ; undefined
   83d04:	60606060 	.inst	0x60606060 ; undefined
   83d08:	c0306060 	.inst	0xc0306060 ; undefined
   83d0c:	8019c030 	.inst	0x8019c030 ; undefined
   83d10:	0003000f 	.inst	0x0003000f ; undefined
   83d14:	e000c001 	.inst	0xe000c001 ; undefined
	...
   83d20:	8033003f 	.inst	0x8033003f ; NYI
   83d24:	80318031 	.inst	0x80318031 ; NYI
   83d28:	00338031 	.inst	0x00338031 ; NYI
   83d2c:	0036003c 	.inst	0x0036003c ; NYI
   83d30:	00330033 	.inst	0x00330033 ; NYI
   83d34:	c0308031 	.inst	0xc0308031 ; undefined
   83d38:	0000c030 	udf	#49200
	...
   83d48:	c018800f 	.inst	0xc018800f ; undefined
   83d4c:	00300030 	.inst	0x00300030 ; NYI
   83d50:	001e0038 	.inst	0x001e0038 ; undefined
   83d54:	c0018007 	.inst	0xc0018007 ; undefined
   83d58:	c000c000 	.inst	0xc000c000 ; undefined
   83d5c:	8031c000 	.inst	0x8031c000 ; NYI
   83d60:	0000001f 	udf	#31
	...
   83d70:	0006e07f 	.inst	0x0006e07f ; undefined
   83d74:	00060006 	.inst	0x00060006 ; undefined
   83d78:	00060006 	.inst	0x00060006 ; undefined
   83d7c:	00060006 	.inst	0x00060006 ; undefined
   83d80:	00060006 	.inst	0x00060006 ; undefined
   83d84:	00060006 	.inst	0x00060006 ; undefined
   83d88:	00000006 	udf	#6
	...
   83d98:	c060c060 	.inst	0xc060c060 ; undefined
   83d9c:	c060c060 	.inst	0xc060c060 ; undefined
   83da0:	c060c060 	.inst	0xc060c060 ; undefined
   83da4:	c060c060 	.inst	0xc060c060 ; undefined
   83da8:	c060c060 	.inst	0xc060c060 ; undefined
   83dac:	803b8031 	.inst	0x803b8031 ; NYI
   83db0:	0000000e 	udf	#14
	...
   83dc0:	60606060 	.inst	0x60606060 ; undefined
   83dc4:	40306060 	.inst	0x40306060 ; undefined
   83dc8:	c0304030 	.inst	0xc0304030 ; undefined
   83dcc:	80188018 	.inst	0x80188018 ; undefined
   83dd0:	000d8018 	.inst	0x000d8018 ; undefined
   83dd4:	0006000d 	.inst	0x0006000d ; undefined
   83dd8:	00000006 	udf	#6
	...
   83de8:	20c020c0 	.inst	0x20c020c0 ; undefined
   83dec:	60c620c6 	.inst	0x60c620c6 ; undefined
   83df0:	40674066 	.inst	0x40674066 ; undefined
   83df4:	406b406f 	.inst	0x406b406f ; undefined
   83df8:	803bc07b 	.inst	0x803bc07b ; NYI
   83dfc:	80318031 	.inst	0x80318031 ; NYI
   83e00:	00008031 	udf	#32817
	...
   83e10:	c060c060 	.inst	0xc060c060 ; undefined
   83e14:	8031c030 	.inst	0x8031c030 ; NYI
   83e18:	000e0019 	.inst	0x000e0019 ; undefined
   83e1c:	000e000e 	.inst	0x000e000e ; undefined
   83e20:	80310013 	.inst	0x80310013 ; NYI
   83e24:	c0608061 	.inst	0xc0608061 ; undefined
   83e28:	0000c060 	udf	#49248
	...
   83e38:	60606060 	.inst	0x60606060 ; undefined
   83e3c:	8018c030 	.inst	0x8018c030 ; undefined
   83e40:	000d8019 	.inst	0x000d8019 ; undefined
   83e44:	00060006 	.inst	0x00060006 ; undefined
   83e48:	00060006 	.inst	0x00060006 ; undefined
   83e4c:	00060006 	.inst	0x00060006 ; undefined
   83e50:	00000006 	udf	#6
	...
   83e60:	c07fc07f 	.inst	0xc07fc07f ; undefined
   83e64:	8001c000 	.inst	0x8001c000 ; undefined
   83e68:	00060003 	.inst	0x00060003 ; undefined
   83e6c:	0018000c 	.inst	0x0018000c ; undefined
   83e70:	00600030 	.inst	0x00600030 ; undefined
   83e74:	c07f0060 	.inst	0xc07f0060 ; undefined
   83e78:	0000c07f 	udf	#49279
	...
   83e84:	801f0000 	.inst	0x801f0000 ; undefined
   83e88:	00180018 	.inst	0x00180018 ; undefined
   83e8c:	00180018 	.inst	0x00180018 ; undefined
   83e90:	00180018 	.inst	0x00180018 ; undefined
   83e94:	00180018 	.inst	0x00180018 ; undefined
   83e98:	00180018 	.inst	0x00180018 ; undefined
   83e9c:	00180018 	.inst	0x00180018 ; undefined
   83ea0:	00180018 	.inst	0x00180018 ; undefined
   83ea4:	0000801f 	udf	#32799
   83ea8:	00000000 	udf	#0
   83eac:	00400000 	.inst	0x00400000 ; undefined
   83eb0:	00200060 	.inst	0x00200060 ; NYI
   83eb4:	00100030 	.inst	0x00100030 ; undefined
   83eb8:	00080018 	.inst	0x00080018 ; undefined
   83ebc:	0006000c 	.inst	0x0006000c ; undefined
   83ec0:	00030002 	.inst	0x00030002 ; undefined
   83ec4:	80010001 	.inst	0x80010001 ; undefined
   83ec8:	c0008000 	.inst	0xc0008000 ; undefined
   83ecc:	00004000 	udf	#16384
   83ed0:	00000000 	udf	#0
   83ed4:	003f0000 	.inst	0x003f0000 ; NYI
   83ed8:	00030003 	.inst	0x00030003 ; undefined
   83edc:	00030003 	.inst	0x00030003 ; undefined
   83ee0:	00030003 	.inst	0x00030003 ; undefined
   83ee4:	00030003 	.inst	0x00030003 ; undefined
   83ee8:	00030003 	.inst	0x00030003 ; undefined
   83eec:	00030003 	.inst	0x00030003 ; undefined
   83ef0:	00030003 	.inst	0x00030003 ; undefined
   83ef4:	0000003f 	udf	#63
	...
   83f00:	00040000 	.inst	0x00040000 ; undefined
   83f04:	000a000e 	.inst	0x000a000e ; undefined
   83f08:	0011001b 	.inst	0x0011001b ; undefined
   83f0c:	80318031 	.inst	0x80318031 ; NYI
   83f10:	c060c060 	.inst	0xc060c060 ; undefined
   83f14:	0000c060 	udf	#49248
	...
   83f40:	e0ff0000 	.inst	0xe0ff0000 ; undefined
	...
   83f4c:	000e0000 	.inst	0x000e0000 ; undefined
   83f50:	000e000e 	.inst	0x000e000e ; undefined
   83f54:	0006000c 	.inst	0x0006000c ; undefined
	...
   83f7c:	001f0000 	.inst	0x001f0000 ; undefined
   83f80:	80018033 	.inst	0x80018033 ; undefined
   83f84:	801f8001 	.inst	0x801f8001 ; undefined
   83f88:	80618031 	.inst	0x80618031 ; undefined
   83f8c:	80738061 	.inst	0x80738061 ; undefined
   83f90:	0000c03c 	udf	#49212
	...
   83f9c:	00600000 	.inst	0x00600000 ; undefined
   83fa0:	00600060 	.inst	0x00600060 ; undefined
   83fa4:	006e0060 	.inst	0x006e0060 ; undefined
   83fa8:	80618073 	.inst	0x80618073 ; undefined
   83fac:	c060c060 	.inst	0xc060c060 ; undefined
   83fb0:	c060c060 	.inst	0xc060c060 ; undefined
   83fb4:	80738061 	.inst	0x80738061 ; undefined
   83fb8:	0000006e 	udf	#110
	...
   83fcc:	800f0000 	.inst	0x800f0000 ; undefined
   83fd0:	0030c038 	.inst	0x0030c038 ; NYI
   83fd4:	00600060 	.inst	0x00600060 ; undefined
   83fd8:	00600060 	.inst	0x00600060 ; undefined
   83fdc:	c0380030 	.inst	0xc0380030 ; undefined
   83fe0:	0000800f 	udf	#32783
	...
   83fec:	c0000000 	.inst	0xc0000000 ; undefined
   83ff0:	c000c000 	.inst	0xc000c000 ; undefined
   83ff4:	c00ec000 	.inst	0xc00ec000 ; undefined
   83ff8:	c030c039 	.inst	0xc030c039 ; undefined
   83ffc:	c060c060 	.inst	0xc060c060 ; undefined
   84000:	c060c060 	.inst	0xc060c060 ; undefined
   84004:	c039c030 	.inst	0xc039c030 ; undefined
   84008:	0000c00e 	udf	#49166
	...
   8401c:	001f0000 	.inst	0x001f0000 ; undefined
   84020:	c0608031 	.inst	0xc0608031 ; undefined
   84024:	c07fc060 	.inst	0xc07fc060 ; undefined
   84028:	00600060 	.inst	0x00600060 ; undefined
   8402c:	c0380070 	.inst	0xc0380070 ; undefined
   84030:	0000801f 	udf	#32799
	...
   8403c:	c0030000 	.inst	0xc0030000 ; undefined
   84040:	000c0006 	.inst	0x000c0006 ; undefined
   84044:	000c000c 	.inst	0x000c000c ; undefined
   84048:	000cc07f 	.inst	0x000cc07f ; undefined
   8404c:	000c000c 	.inst	0x000c000c ; undefined
   84050:	000c000c 	.inst	0x000c000c ; undefined
   84054:	000c000c 	.inst	0x000c000c ; undefined
   84058:	0000000c 	udf	#12
	...
   8406c:	c00e0000 	.inst	0xc00e0000 ; undefined
   84070:	c030c039 	.inst	0xc030c039 ; undefined
   84074:	c060c060 	.inst	0xc060c060 ; undefined
   84078:	c060c060 	.inst	0xc060c060 ; undefined
   8407c:	c01ec031 	.inst	0xc01ec031 ; undefined
   84080:	c000c000 	.inst	0xc000c000 ; undefined
   84084:	001f8031 	.inst	0x001f8031 ; undefined
   84088:	00000000 	udf	#0
   8408c:	00300000 	.inst	0x00300000 ; NYI
   84090:	00300030 	.inst	0x00300030 ; NYI
   84094:	80370030 	.inst	0x80370030 ; NYI
   84098:	c030c039 	.inst	0xc030c039 ; undefined
   8409c:	c030c030 	.inst	0xc030c030 ; undefined
   840a0:	c030c030 	.inst	0xc030c030 ; undefined
   840a4:	c030c030 	.inst	0xc030c030 ; undefined
   840a8:	0000c030 	udf	#49200
	...
   840b4:	00060000 	.inst	0x00060000 ; undefined
   840b8:	00000006 	udf	#6
   840bc:	003e0000 	.inst	0x003e0000 ; NYI
   840c0:	00060006 	.inst	0x00060006 ; undefined
   840c4:	00060006 	.inst	0x00060006 ; undefined
   840c8:	00060006 	.inst	0x00060006 ; undefined
   840cc:	00060006 	.inst	0x00060006 ; undefined
   840d0:	00000006 	udf	#6
	...
   840dc:	00030000 	.inst	0x00030000 ; undefined
   840e0:	00000003 	udf	#3
   840e4:	001f0000 	.inst	0x001f0000 ; undefined
   840e8:	00030003 	.inst	0x00030003 ; undefined
   840ec:	00030003 	.inst	0x00030003 ; undefined
   840f0:	00030003 	.inst	0x00030003 ; undefined
   840f4:	00030003 	.inst	0x00030003 ; undefined
   840f8:	00030003 	.inst	0x00030003 ; undefined
   840fc:	007c0006 	.inst	0x007c0006 ; undefined
   84100:	00000000 	udf	#0
   84104:	00300000 	.inst	0x00300000 ; NYI
   84108:	00300030 	.inst	0x00300030 ; NYI
   8410c:	c0300030 	.inst	0xc0300030 ; undefined
   84110:	00338031 	.inst	0x00338031 ; NYI
   84114:	003c0036 	.inst	0x003c0036 ; NYI
   84118:	00330036 	.inst	0x00330036 ; NYI
   8411c:	c0308031 	.inst	0xc0308031 ; undefined
   84120:	00006030 	udf	#24624
	...
   8412c:	003e0000 	.inst	0x003e0000 ; NYI
   84130:	00060006 	.inst	0x00060006 ; undefined
   84134:	00060006 	.inst	0x00060006 ; undefined
   84138:	00060006 	.inst	0x00060006 ; undefined
   8413c:	00060006 	.inst	0x00060006 ; undefined
   84140:	00060006 	.inst	0x00060006 ; undefined
   84144:	00060006 	.inst	0x00060006 ; undefined
   84148:	00000006 	udf	#6
	...
   8415c:	c06e0000 	.inst	0xc06e0000 ; undefined
   84160:	60666077 	.inst	0x60666077 ; undefined
   84164:	60666066 	.inst	0x60666066 ; undefined
   84168:	60666066 	.inst	0x60666066 ; undefined
   8416c:	60666066 	.inst	0x60666066 ; undefined
   84170:	00006066 	udf	#24678
	...
   84184:	80370000 	.inst	0x80370000 ; NYI
   84188:	c030c039 	.inst	0xc030c039 ; undefined
   8418c:	c030c030 	.inst	0xc030c030 ; undefined
   84190:	c030c030 	.inst	0xc030c030 ; undefined
   84194:	c030c030 	.inst	0xc030c030 ; undefined
   84198:	0000c030 	udf	#49200
	...
   841ac:	000e0000 	.inst	0x000e0000 ; undefined
   841b0:	8031803b 	.inst	0x8031803b ; NYI
   841b4:	c060c060 	.inst	0xc060c060 ; undefined
   841b8:	c060c060 	.inst	0xc060c060 ; undefined
   841bc:	803b8031 	.inst	0x803b8031 ; NYI
   841c0:	0000000e 	udf	#14
	...
   841d4:	006e0000 	.inst	0x006e0000 ; undefined
   841d8:	80618073 	.inst	0x80618073 ; undefined
   841dc:	c060c060 	.inst	0xc060c060 ; undefined
   841e0:	c060c060 	.inst	0xc060c060 ; undefined
   841e4:	80738061 	.inst	0x80738061 ; undefined
   841e8:	0060006e 	.inst	0x0060006e ; undefined
   841ec:	00600060 	.inst	0x00600060 ; undefined
	...
   841fc:	c00e0000 	.inst	0xc00e0000 ; undefined
   84200:	c030c039 	.inst	0xc030c039 ; undefined
   84204:	c060c060 	.inst	0xc060c060 ; undefined
   84208:	c060c060 	.inst	0xc060c060 ; undefined
   8420c:	c039c030 	.inst	0xc039c030 ; undefined
   84210:	c000c00e 	.inst	0xc000c00e ; undefined
   84214:	c000c000 	.inst	0xc000c000 ; undefined
	...
   84224:	c0190000 	.inst	0xc0190000 ; undefined
   84228:	401cc01b 	.inst	0x401cc01b ; undefined
   8422c:	00184018 	.inst	0x00184018 ; undefined
   84230:	00180018 	.inst	0x00180018 ; undefined
   84234:	00180018 	.inst	0x00180018 ; undefined
   84238:	00000018 	udf	#24
	...
   8424c:	001f0000 	.inst	0x001f0000 ; undefined
   84250:	00308031 	.inst	0x00308031 ; NYI
   84254:	001e0038 	.inst	0x001e0038 ; undefined
   84258:	8003000f 	.inst	0x8003000f ; undefined
   8425c:	80318001 	.inst	0x80318001 ; NYI
   84260:	0000001f 	udf	#31
	...
   84270:	000c0000 	.inst	0x000c0000 ; undefined
   84274:	000c000c 	.inst	0x000c000c ; undefined
   84278:	000cc07f 	.inst	0x000cc07f ; undefined
   8427c:	000c000c 	.inst	0x000c000c ; undefined
   84280:	000c000c 	.inst	0x000c000c ; undefined
   84284:	000c000c 	.inst	0x000c000c ; undefined
   84288:	0000c007 	udf	#49159
	...
   8429c:	c0300000 	.inst	0xc0300000 ; undefined
   842a0:	c030c030 	.inst	0xc030c030 ; undefined
   842a4:	c030c030 	.inst	0xc030c030 ; undefined
   842a8:	c030c030 	.inst	0xc030c030 ; undefined
   842ac:	c039c030 	.inst	0xc039c030 ; undefined
   842b0:	0000c01e 	udf	#49182
	...
   842c4:	c0300000 	.inst	0xc0300000 ; undefined
   842c8:	c030c030 	.inst	0xc030c030 ; undefined
   842cc:	80198018 	.inst	0x80198018 ; undefined
   842d0:	000d8019 	.inst	0x000d8019 ; undefined
   842d4:	0006000d 	.inst	0x0006000d ; undefined
   842d8:	00000006 	udf	#6
	...
   842ec:	60600000 	.inst	0x60600000 ; undefined
   842f0:	60666066 	.inst	0x60666066 ; undefined
   842f4:	40374066 	.inst	0x40374066 ; undefined
   842f8:	c03b4037 	.inst	0xc03b4037 ; undefined
   842fc:	8019801b 	.inst	0x8019801b ; undefined
   84300:	00008019 	udf	#32793
	...
   84314:	c0300000 	.inst	0xc0300000 ; undefined
   84318:	8019c030 	.inst	0x8019c030 ; undefined
   8431c:	000e000d 	.inst	0x000e000d ; undefined
   84320:	000b0007 	.inst	0x000b0007 ; undefined
   84324:	c0308019 	.inst	0xc0308019 ; undefined
   84328:	0000c030 	udf	#49200
	...
   8433c:	c0300000 	.inst	0xc0300000 ; undefined
   84340:	c030c030 	.inst	0xc030c030 ; undefined
   84344:	80198018 	.inst	0x80198018 ; undefined
   84348:	000d8019 	.inst	0x000d8019 ; undefined
   8434c:	0006000f 	.inst	0x0006000f ; undefined
   84350:	00040006 	.inst	0x00040006 ; undefined
   84354:	000c000c 	.inst	0x000c000c ; undefined
	...
   84364:	c03f0000 	.inst	0xc03f0000 ; undefined
   84368:	c001c000 	.inst	0xc001c000 ; undefined
   8436c:	00078003 	.inst	0x00078003 ; undefined
   84370:	001c000e 	.inst	0x001c000e ; undefined
   84374:	00300038 	.inst	0x00300038 ; NYI
   84378:	0000c03f 	udf	#49215
	...
   84384:	c0070000 	.inst	0xc0070000 ; undefined
   84388:	000c000c 	.inst	0x000c000c ; undefined
   8438c:	00060004 	.inst	0x00060004 ; undefined
   84390:	00020002 	.inst	0x00020002 ; undefined
   84394:	0002003c 	.inst	0x0002003c ; undefined
   84398:	00060002 	.inst	0x00060002 ; undefined
   8439c:	000c0004 	.inst	0x000c0004 ; undefined
   843a0:	000c000c 	.inst	0x000c000c ; undefined
   843a4:	0000c007 	udf	#49159
   843a8:	00000000 	udf	#0
   843ac:	00060000 	.inst	0x00060000 ; undefined
   843b0:	00060006 	.inst	0x00060006 ; undefined
   843b4:	00060006 	.inst	0x00060006 ; undefined
   843b8:	00060006 	.inst	0x00060006 ; undefined
   843bc:	00060006 	.inst	0x00060006 ; undefined
   843c0:	00060006 	.inst	0x00060006 ; undefined
   843c4:	00060006 	.inst	0x00060006 ; undefined
   843c8:	00060006 	.inst	0x00060006 ; undefined
   843cc:	00000006 	udf	#6
   843d0:	00000000 	udf	#0
   843d4:	007c0000 	.inst	0x007c0000 ; undefined
   843d8:	00060006 	.inst	0x00060006 ; undefined
   843dc:	000c0004 	.inst	0x000c0004 ; undefined
   843e0:	00080008 	.inst	0x00080008 ; undefined
   843e4:	00088007 	.inst	0x00088007 ; undefined
   843e8:	000c0008 	.inst	0x000c0008 ; undefined
   843ec:	00060004 	.inst	0x00060004 ; undefined
   843f0:	00060006 	.inst	0x00060006 ; undefined
   843f4:	0000007c 	udf	#124
	...
   8440c:	404e4038 	.inst	0x404e4038 ; undefined
   84410:	00008043 	udf	#32835
	...
   84430:	000e0000 	.inst	0x000e0000 ; undefined
   84434:	001f001f 	.inst	0x001f001f ; undefined
   84438:	000e001f 	.inst	0x000e001f ; undefined
	...
   84448:	000e0000 	.inst	0x000e0000 ; undefined
   8444c:	00000003 	udf	#3
   84450:	00060006 	.inst	0x00060006 ; undefined
   84454:	000b000f 	.inst	0x000b000f ; undefined
   84458:	80198009 	.inst	0x80198009 ; undefined
   8445c:	c0108011 	.inst	0xc0108011 ; undefined
   84460:	c020c03f 	.inst	0xc020c03f ; undefined
   84464:	60606060 	.inst	0x60606060 ; undefined
   84468:	00006060 	udf	#24672
   8446c:	00000000 	udf	#0
   84470:	00070000 	.inst	0x00070000 ; undefined
   84474:	0000000c 	udf	#12
   84478:	00060006 	.inst	0x00060006 ; undefined
   8447c:	000b000f 	.inst	0x000b000f ; undefined
   84480:	80198009 	.inst	0x80198009 ; undefined
   84484:	c0108011 	.inst	0xc0108011 ; undefined
   84488:	c020c03f 	.inst	0xc020c03f ; undefined
   8448c:	60606060 	.inst	0x60606060 ; undefined
   84490:	00006060 	udf	#24672
   84494:	00000000 	udf	#0
   84498:	00060000 	.inst	0x00060000 ; undefined
   8449c:	0000000b 	udf	#11
   844a0:	00060006 	.inst	0x00060006 ; undefined
   844a4:	000b000f 	.inst	0x000b000f ; undefined
   844a8:	80198009 	.inst	0x80198009 ; undefined
   844ac:	c0108011 	.inst	0xc0108011 ; undefined
   844b0:	c020c03f 	.inst	0xc020c03f ; undefined
   844b4:	60606060 	.inst	0x60606060 ; undefined
   844b8:	00006060 	udf	#24672
   844bc:	00000000 	udf	#0
   844c0:	80060000 	.inst	0x80060000 ; undefined
   844c4:	0000000b 	udf	#11
   844c8:	00060006 	.inst	0x00060006 ; undefined
   844cc:	000b000f 	.inst	0x000b000f ; undefined
   844d0:	80198009 	.inst	0x80198009 ; undefined
   844d4:	c0108011 	.inst	0xc0108011 ; undefined
   844d8:	c020c03f 	.inst	0xc020c03f ; undefined
   844dc:	60606060 	.inst	0x60606060 ; undefined
   844e0:	00006060 	udf	#24672
   844e4:	00000000 	udf	#0
   844e8:	00090000 	.inst	0x00090000 ; undefined
   844ec:	00000009 	udf	#9
   844f0:	00060006 	.inst	0x00060006 ; undefined
   844f4:	000b000f 	.inst	0x000b000f ; undefined
   844f8:	80198009 	.inst	0x80198009 ; undefined
   844fc:	c0108011 	.inst	0xc0108011 ; undefined
   84500:	c020c03f 	.inst	0xc020c03f ; undefined
   84504:	60606060 	.inst	0x60606060 ; undefined
   84508:	00006060 	udf	#24672
	...
   84514:	00090006 	.inst	0x00090006 ; undefined
   84518:	00060006 	.inst	0x00060006 ; undefined
   8451c:	000b000f 	.inst	0x000b000f ; undefined
   84520:	80198009 	.inst	0x80198009 ; undefined
   84524:	c0108011 	.inst	0xc0108011 ; undefined
   84528:	c020c03f 	.inst	0xc020c03f ; undefined
   8452c:	60606060 	.inst	0x60606060 ; undefined
   84530:	00006060 	udf	#24672
	...
   84540:	0007e003 	.inst	0x0007e003 ; undefined
   84544:	000b0007 	.inst	0x000b0007 ; undefined
   84548:	0013000b 	.inst	0x0013000b ; undefined
   8454c:	0033e013 	.inst	0x0033e013 ; NYI
   84550:	0023003f 	.inst	0x0023003f ; NYI
   84554:	00630063 	.inst	0x00630063 ; undefined
   84558:	0000e063 	udf	#57443
	...
   84568:	c018800f 	.inst	0xc018800f ; undefined
   8456c:	00300030 	.inst	0x00300030 ; NYI
   84570:	00600060 	.inst	0x00600060 ; undefined
   84574:	00600060 	.inst	0x00600060 ; undefined
   84578:	00300060 	.inst	0x00300060 ; NYI
   8457c:	c0180030 	.inst	0xc0180030 ; undefined
   84580:	0006800f 	.inst	0x0006800f ; undefined
   84584:	000e0003 	.inst	0x000e0003 ; undefined
   84588:	000e0000 	.inst	0x000e0000 ; undefined
   8458c:	00000003 	udf	#3
   84590:	0030c03f 	.inst	0x0030c03f ; NYI
   84594:	00300030 	.inst	0x00300030 ; NYI
   84598:	00300030 	.inst	0x00300030 ; NYI
   8459c:	0030803f 	.inst	0x0030803f ; NYI
   845a0:	00300030 	.inst	0x00300030 ; NYI
   845a4:	00300030 	.inst	0x00300030 ; NYI
   845a8:	0000c03f 	udf	#49215
   845ac:	00000000 	udf	#0
   845b0:	00070000 	.inst	0x00070000 ; undefined
   845b4:	0000000c 	udf	#12
   845b8:	0030c03f 	.inst	0x0030c03f ; NYI
   845bc:	00300030 	.inst	0x00300030 ; NYI
   845c0:	00300030 	.inst	0x00300030 ; NYI
   845c4:	0030803f 	.inst	0x0030803f ; NYI
   845c8:	00300030 	.inst	0x00300030 ; NYI
   845cc:	00300030 	.inst	0x00300030 ; NYI
   845d0:	0000c03f 	udf	#49215
   845d4:	00000000 	udf	#0
   845d8:	00060000 	.inst	0x00060000 ; undefined
   845dc:	0000000b 	udf	#11
   845e0:	0030c03f 	.inst	0x0030c03f ; NYI
   845e4:	00300030 	.inst	0x00300030 ; NYI
   845e8:	00300030 	.inst	0x00300030 ; NYI
   845ec:	0030803f 	.inst	0x0030803f ; NYI
   845f0:	00300030 	.inst	0x00300030 ; NYI
   845f4:	00300030 	.inst	0x00300030 ; NYI
   845f8:	0000c03f 	udf	#49215
   845fc:	00000000 	udf	#0
   84600:	00090000 	.inst	0x00090000 ; undefined
   84604:	00000009 	udf	#9
   84608:	0030c03f 	.inst	0x0030c03f ; NYI
   8460c:	00300030 	.inst	0x00300030 ; NYI
   84610:	00300030 	.inst	0x00300030 ; NYI
   84614:	0030803f 	.inst	0x0030803f ; NYI
   84618:	00300030 	.inst	0x00300030 ; NYI
   8461c:	00300030 	.inst	0x00300030 ; NYI
   84620:	0000c03f 	udf	#49215
   84624:	00000000 	udf	#0
   84628:	000e0000 	.inst	0x000e0000 ; undefined
   8462c:	00000003 	udf	#3
   84630:	0006c03f 	.inst	0x0006c03f ; undefined
   84634:	00060006 	.inst	0x00060006 ; undefined
   84638:	00060006 	.inst	0x00060006 ; undefined
   8463c:	00060006 	.inst	0x00060006 ; undefined
   84640:	00060006 	.inst	0x00060006 ; undefined
   84644:	00060006 	.inst	0x00060006 ; undefined
   84648:	0000c03f 	udf	#49215
   8464c:	00000000 	udf	#0
   84650:	00070000 	.inst	0x00070000 ; undefined
   84654:	0000000c 	udf	#12
   84658:	0006c03f 	.inst	0x0006c03f ; undefined
   8465c:	00060006 	.inst	0x00060006 ; undefined
   84660:	00060006 	.inst	0x00060006 ; undefined
   84664:	00060006 	.inst	0x00060006 ; undefined
   84668:	00060006 	.inst	0x00060006 ; undefined
   8466c:	00060006 	.inst	0x00060006 ; undefined
   84670:	0000c03f 	udf	#49215
   84674:	00000000 	udf	#0
   84678:	00060000 	.inst	0x00060000 ; undefined
   8467c:	0000000b 	udf	#11
   84680:	0006c03f 	.inst	0x0006c03f ; undefined
   84684:	00060006 	.inst	0x00060006 ; undefined
   84688:	00060006 	.inst	0x00060006 ; undefined
   8468c:	00060006 	.inst	0x00060006 ; undefined
   84690:	00060006 	.inst	0x00060006 ; undefined
   84694:	00060006 	.inst	0x00060006 ; undefined
   84698:	0000c03f 	udf	#49215
   8469c:	00000000 	udf	#0
   846a0:	00090000 	.inst	0x00090000 ; undefined
   846a4:	00000009 	udf	#9
   846a8:	0006c03f 	.inst	0x0006c03f ; undefined
   846ac:	00060006 	.inst	0x00060006 ; undefined
   846b0:	00060006 	.inst	0x00060006 ; undefined
   846b4:	00060006 	.inst	0x00060006 ; undefined
   846b8:	00060006 	.inst	0x00060006 ; undefined
   846bc:	00060006 	.inst	0x00060006 ; undefined
   846c0:	0000c03f 	udf	#49215
	...
   846d0:	8063007e 	.inst	0x8063007e ; undefined
   846d4:	c0608061 	.inst	0xc0608061 ; undefined
   846d8:	c060c060 	.inst	0xc060c060 ; undefined
   846dc:	c060c0fc 	.inst	0xc060c0fc ; undefined
   846e0:	8061c060 	.inst	0x8061c060 ; undefined
   846e4:	00678061 	.inst	0x00678061 ; undefined
   846e8:	0000007c 	udf	#124
   846ec:	00000000 	udf	#0
   846f0:	80060000 	.inst	0x80060000 ; undefined
   846f4:	0000000b 	udf	#11
   846f8:	40704060 	.inst	0x40704060 ; undefined
   846fc:	40584070 	.inst	0x40584070 ; undefined
   84700:	404c404c 	.inst	0x404c404c ; undefined
   84704:	40434046 	.inst	0x40434046 ; undefined
   84708:	c0414043 	.inst	0xc0414043 ; undefined
   8470c:	c040c041 	.inst	0xc040c041 ; undefined
   84710:	00004040 	udf	#16448
   84714:	00000000 	udf	#0
   84718:	000e0000 	.inst	0x000e0000 ; undefined
   8471c:	00000003 	udf	#3
   84720:	8019000f 	.inst	0x8019000f ; undefined
   84724:	c030c030 	.inst	0xc030c030 ; undefined
   84728:	60606060 	.inst	0x60606060 ; undefined
   8472c:	60606060 	.inst	0x60606060 ; undefined
   84730:	c0306060 	.inst	0xc0306060 ; undefined
   84734:	8019c030 	.inst	0x8019c030 ; undefined
   84738:	0000000f 	udf	#15
   8473c:	00000000 	udf	#0
   84740:	00070000 	.inst	0x00070000 ; undefined
   84744:	0000000c 	udf	#12
   84748:	8019000f 	.inst	0x8019000f ; undefined
   8474c:	c030c030 	.inst	0xc030c030 ; undefined
   84750:	60606060 	.inst	0x60606060 ; undefined
   84754:	60606060 	.inst	0x60606060 ; undefined
   84758:	c0306060 	.inst	0xc0306060 ; undefined
   8475c:	8019c030 	.inst	0x8019c030 ; undefined
   84760:	0000000f 	udf	#15
   84764:	00000000 	udf	#0
   84768:	00060000 	.inst	0x00060000 ; undefined
   8476c:	0000000b 	udf	#11
   84770:	8019000f 	.inst	0x8019000f ; undefined
   84774:	c030c030 	.inst	0xc030c030 ; undefined
   84778:	60606060 	.inst	0x60606060 ; undefined
   8477c:	60606060 	.inst	0x60606060 ; undefined
   84780:	c0306060 	.inst	0xc0306060 ; undefined
   84784:	8019c030 	.inst	0x8019c030 ; undefined
   84788:	0000000f 	udf	#15
   8478c:	00000000 	udf	#0
   84790:	80060000 	.inst	0x80060000 ; undefined
   84794:	0000000b 	udf	#11
   84798:	8019000f 	.inst	0x8019000f ; undefined
   8479c:	c030c030 	.inst	0xc030c030 ; undefined
   847a0:	60606060 	.inst	0x60606060 ; undefined
   847a4:	60606060 	.inst	0x60606060 ; undefined
   847a8:	c0306060 	.inst	0xc0306060 ; undefined
   847ac:	8019c030 	.inst	0x8019c030 ; undefined
   847b0:	0000000f 	udf	#15
   847b4:	00000000 	udf	#0
   847b8:	00090000 	.inst	0x00090000 ; undefined
   847bc:	00000009 	udf	#9
   847c0:	8019000f 	.inst	0x8019000f ; undefined
   847c4:	c030c030 	.inst	0xc030c030 ; undefined
   847c8:	60606060 	.inst	0x60606060 ; undefined
   847cc:	60606060 	.inst	0x60606060 ; undefined
   847d0:	c0306060 	.inst	0xc0306060 ; undefined
   847d4:	8019c030 	.inst	0x8019c030 ; undefined
   847d8:	0000000f 	udf	#15
	...
   847f0:	00198030 	.inst	0x00198030 ; undefined
   847f4:	0004000e 	.inst	0x0004000e ; undefined
   847f8:	0013000e 	.inst	0x0013000e ; undefined
   847fc:	00008021 	udf	#32801
	...
   84810:	a019200f 	.inst	0xa019200f ; undefined
   84814:	c030c030 	.inst	0xc030c030 ; undefined
   84818:	60626061 	.inst	0x60626061 ; undefined
   8481c:	60646062 	.inst	0x60646062 ; undefined
   84820:	c0306068 	.inst	0xc0306068 ; undefined
   84824:	8059c030 	.inst	0x8059c030 ; undefined
   84828:	0000004f 	udf	#79
   8482c:	00000000 	udf	#0
   84830:	000e0000 	.inst	0x000e0000 ; undefined
   84834:	00000003 	udf	#3
   84838:	c060c060 	.inst	0xc060c060 ; undefined
   8483c:	c060c060 	.inst	0xc060c060 ; undefined
   84840:	c060c060 	.inst	0xc060c060 ; undefined
   84844:	c060c060 	.inst	0xc060c060 ; undefined
   84848:	c060c060 	.inst	0xc060c060 ; undefined
   8484c:	803b8031 	.inst	0x803b8031 ; NYI
   84850:	0000000e 	udf	#14
   84854:	00000000 	udf	#0
   84858:	00070000 	.inst	0x00070000 ; undefined
   8485c:	0000000c 	udf	#12
   84860:	c060c060 	.inst	0xc060c060 ; undefined
   84864:	c060c060 	.inst	0xc060c060 ; undefined
   84868:	c060c060 	.inst	0xc060c060 ; undefined
   8486c:	c060c060 	.inst	0xc060c060 ; undefined
   84870:	c060c060 	.inst	0xc060c060 ; undefined
   84874:	803b8031 	.inst	0x803b8031 ; NYI
   84878:	0000000e 	udf	#14
   8487c:	00000000 	udf	#0
   84880:	00060000 	.inst	0x00060000 ; undefined
   84884:	0000000b 	udf	#11
   84888:	c060c060 	.inst	0xc060c060 ; undefined
   8488c:	c060c060 	.inst	0xc060c060 ; undefined
   84890:	c060c060 	.inst	0xc060c060 ; undefined
   84894:	c060c060 	.inst	0xc060c060 ; undefined
   84898:	c060c060 	.inst	0xc060c060 ; undefined
   8489c:	803b8031 	.inst	0x803b8031 ; NYI
   848a0:	0000000e 	udf	#14
   848a4:	00000000 	udf	#0
   848a8:	00110000 	.inst	0x00110000 ; undefined
   848ac:	00000011 	udf	#17
   848b0:	c060c060 	.inst	0xc060c060 ; undefined
   848b4:	c060c060 	.inst	0xc060c060 ; undefined
   848b8:	c060c060 	.inst	0xc060c060 ; undefined
   848bc:	c060c060 	.inst	0xc060c060 ; undefined
   848c0:	c060c060 	.inst	0xc060c060 ; undefined
   848c4:	803b8031 	.inst	0x803b8031 ; NYI
   848c8:	0000000e 	udf	#14
   848cc:	00000000 	udf	#0
   848d0:	00070000 	.inst	0x00070000 ; undefined
   848d4:	0000000c 	udf	#12
   848d8:	60606060 	.inst	0x60606060 ; undefined
   848dc:	8018c030 	.inst	0x8018c030 ; undefined
   848e0:	000d8019 	.inst	0x000d8019 ; undefined
   848e4:	00060006 	.inst	0x00060006 ; undefined
   848e8:	00060006 	.inst	0x00060006 ; undefined
   848ec:	00060006 	.inst	0x00060006 ; undefined
   848f0:	00000006 	udf	#6
	...
   84900:	00300030 	.inst	0x00300030 ; NYI
   84904:	803f0030 	.inst	0x803f0030 ; NYI
   84908:	c030c031 	.inst	0xc030c031 ; undefined
   8490c:	c030c030 	.inst	0xc030c030 ; undefined
   84910:	003e8031 	.inst	0x003e8031 ; NYI
   84914:	00300030 	.inst	0x00300030 ; NYI
   84918:	00000030 	udf	#48
	...
   84924:	001e0000 	.inst	0x001e0000 ; undefined
   84928:	00630023 	.inst	0x00630023 ; undefined
   8492c:	00640062 	.inst	0x00640062 ; undefined
   84930:	006e006c 	.inst	0x006e006c ; undefined
   84934:	80630067 	.inst	0x80630067 ; undefined
   84938:	c060c061 	.inst	0xc060c061 ; undefined
   8493c:	8060c060 	.inst	0x8060c060 ; undefined
   84940:	00000067 	udf	#103
   84944:	00000000 	udf	#0
   84948:	a0aa5055 	.inst	0xa0aa5055 ; undefined
   8494c:	a0aa5055 	.inst	0xa0aa5055 ; undefined
   84950:	a0aa5055 	.inst	0xa0aa5055 ; undefined
   84954:	a0aa5055 	.inst	0xa0aa5055 ; undefined
   84958:	a0aa5055 	.inst	0xa0aa5055 ; undefined
   8495c:	a0aa5055 	.inst	0xa0aa5055 ; undefined
   84960:	a0aa5055 	.inst	0xa0aa5055 ; undefined
   84964:	a0aa5055 	.inst	0xa0aa5055 ; undefined
   84968:	a0aa5055 	.inst	0xa0aa5055 ; undefined
   8496c:	a0aa5055 	.inst	0xa0aa5055 ; undefined
	...
   8497c:	00060000 	.inst	0x00060000 ; undefined
   84980:	00000006 	udf	#6
   84984:	00040000 	.inst	0x00040000 ; undefined
   84988:	00060006 	.inst	0x00060006 ; undefined
   8498c:	00060006 	.inst	0x00060006 ; undefined
   84990:	00060006 	.inst	0x00060006 ; undefined
   84994:	00060006 	.inst	0x00060006 ; undefined
	...
   849a0:	00020002 	.inst	0x00020002 ; undefined
   849a4:	c01a8007 	.inst	0xc01a8007 ; undefined
   849a8:	0032001a 	.inst	0x0032001a ; NYI
   849ac:	00320032 	.inst	0x00320032 ; NYI
   849b0:	00320032 	.inst	0x00320032 ; NYI
   849b4:	800fc01a 	.inst	0x800fc01a ; undefined
   849b8:	00020002 	.inst	0x00020002 ; undefined
	...
   849c8:	c0048003 	.inst	0xc0048003 ; undefined
   849cc:	000c000c 	.inst	0x000c000c ; undefined
   849d0:	000c000c 	.inst	0x000c000c ; undefined
   849d4:	000c003f 	.inst	0x000c003f ; undefined
   849d8:	0008000c 	.inst	0x0008000c ; undefined
   849dc:	c03f0010 	.inst	0xc03f0010 ; undefined
   849e0:	0000c03f 	udf	#49215
	...
   849f0:	600cc007 	.inst	0x600cc007 ; undefined
   849f4:	00180018 	.inst	0x00180018 ; undefined
   849f8:	003080ff 	.inst	0x003080ff ; NYI
   849fc:	00fe0030 	.inst	0x00fe0030 ; undefined
   84a00:	00180030 	.inst	0x00180030 ; undefined
   84a04:	600c0018 	.inst	0x600c0018 ; undefined
   84a08:	0000c007 	udf	#49159
	...
   84a18:	60606060 	.inst	0x60606060 ; undefined
   84a1c:	8018c030 	.inst	0x8018c030 ; undefined
   84a20:	000d8019 	.inst	0x000d8019 ; undefined
   84a24:	801f0006 	.inst	0x801f0006 ; undefined
   84a28:	801f0006 	.inst	0x801f0006 ; undefined
   84a2c:	00060006 	.inst	0x00060006 ; undefined
   84a30:	00000006 	udf	#6
   84a34:	00000000 	udf	#0
   84a38:	80050000 	.inst	0x80050000 ; undefined
   84a3c:	00000003 	udf	#3
   84a40:	c018800f 	.inst	0xc018800f ; undefined
   84a44:	00300030 	.inst	0x00300030 ; NYI
   84a48:	001e0038 	.inst	0x001e0038 ; undefined
   84a4c:	c0018007 	.inst	0xc0018007 ; undefined
   84a50:	c000c000 	.inst	0xc000c000 ; undefined
   84a54:	8031c000 	.inst	0x8031c000 ; NYI
   84a58:	0000001f 	udf	#31
	...
   84a68:	c038801f 	.inst	0xc038801f ; undefined
   84a6c:	00380030 	.inst	0x00380030 ; NYI
   84a70:	8017001e 	.inst	0x8017001e ; undefined
   84a74:	c030c031 	.inst	0xc030c031 ; undefined
   84a78:	801ec038 	.inst	0x801ec038 ; undefined
   84a7c:	c0018007 	.inst	0xc0018007 ; undefined
   84a80:	c031c000 	.inst	0xc031c000 ; undefined
   84a84:	0000801f 	udf	#32799
	...
   84a90:	0006000b 	.inst	0x0006000b ; undefined
   84a94:	001f0000 	.inst	0x001f0000 ; undefined
   84a98:	00308031 	.inst	0x00308031 ; NYI
   84a9c:	001e0038 	.inst	0x001e0038 ; undefined
   84aa0:	8003000f 	.inst	0x8003000f ; undefined
   84aa4:	80318001 	.inst	0x80318001 ; NYI
   84aa8:	0000001f 	udf	#31
	...
   84ab8:	8031000e 	.inst	0x8031000e ; NYI
   84abc:	404e8020 	.inst	0x404e8020 ; undefined
   84ac0:	40504050 	.inst	0x40504050 ; undefined
   84ac4:	40504050 	.inst	0x40504050 ; undefined
   84ac8:	404e4050 	.inst	0x404e4050 ; undefined
   84acc:	80318020 	.inst	0x80318020 ; NYI
   84ad0:	0000000e 	udf	#14
	...
   84ae0:	8031001f 	.inst	0x8031001f ; NYI
   84ae4:	801f8001 	.inst	0x801f8001 ; undefined
   84ae8:	80318031 	.inst	0x80318031 ; NYI
   84aec:	c01d8033 	.inst	0xc01d8033 ; undefined
	...
   84b10:	8019c00c 	.inst	0x8019c00c ; undefined
   84b14:	00660033 	.inst	0x00660033 ; undefined
   84b18:	00330066 	.inst	0x00330066 ; NYI
   84b1c:	c00c8019 	.inst	0xc00c8019 ; undefined
	...
   84b3c:	4000c07f 	.inst	0x4000c07f ; undefined
   84b40:	40004000 	.inst	0x40004000 ; undefined
	...
   84b58:	20800000 	.inst	0x20800000 ; undefined
   84b5c:	803b404e 	.inst	0x803b404e ; NYI
   84b60:	c0608031 	.inst	0xc0608031 ; undefined
   84b64:	c060c060 	.inst	0xc060c060 ; undefined
   84b68:	803b8031 	.inst	0x803b8031 ; NYI
   84b6c:	2080404e 	.inst	0x2080404e ; undefined
	...
   84b80:	8010000f 	.inst	0x8010000f ; undefined
   84b84:	4029402e 	.inst	0x4029402e ; undefined
   84b88:	4029402e 	.inst	0x4029402e ; undefined
   84b8c:	000f8010 	.inst	0x000f8010 ; undefined
	...
   84ba8:	0000000e 	udf	#14
	...
   84bcc:	000e0000 	.inst	0x000e0000 ; undefined
   84bd0:	00110011 	.inst	0x00110011 ; undefined
   84bd4:	000e0011 	.inst	0x000e0011 ; undefined
	...
   84bfc:	00040000 	.inst	0x00040000 ; undefined
   84c00:	00040004 	.inst	0x00040004 ; undefined
   84c04:	0004c07f 	.inst	0x0004c07f ; undefined
   84c08:	00000004 	udf	#4
   84c0c:	0000c07f 	udf	#49279
	...
   84c20:	8031001f 	.inst	0x8031001f ; NYI
   84c24:	00078001 	.inst	0x00078001 ; undefined
   84c28:	0030001c 	.inst	0x0030001c ; NYI
   84c2c:	803f803f 	.inst	0x803f803f ; NYI
	...
   84c48:	8031001f 	.inst	0x8031001f ; NYI
   84c4c:	000f8001 	.inst	0x000f8001 ; undefined
   84c50:	80018001 	.inst	0x80018001 ; undefined
   84c54:	001f8031 	.inst	0x001f8031 ; undefined
	...
   84c68:	000b0000 	.inst	0x000b0000 ; undefined
   84c6c:	00000006 	udf	#6
   84c70:	c07fc07f 	.inst	0xc07fc07f ; undefined
   84c74:	8001c000 	.inst	0x8001c000 ; undefined
   84c78:	00060003 	.inst	0x00060003 ; undefined
   84c7c:	0018000c 	.inst	0x0018000c ; undefined
   84c80:	00600030 	.inst	0x00600030 ; undefined
   84c84:	c07f0060 	.inst	0xc07f0060 ; undefined
   84c88:	0000c07f 	udf	#49279
	...
   84c9c:	c0300000 	.inst	0xc0300000 ; undefined
   84ca0:	c030c030 	.inst	0xc030c030 ; undefined
   84ca4:	c030c030 	.inst	0xc030c030 ; undefined
   84ca8:	c030c030 	.inst	0xc030c030 ; undefined
   84cac:	c039c030 	.inst	0xc039c030 ; undefined
   84cb0:	0030c03e 	.inst	0x0030c03e ; NYI
   84cb4:	00300030 	.inst	0x00300030 ; NYI
	...
   84cc0:	807c803f 	.inst	0x807c803f ; undefined
   84cc4:	807c807c 	.inst	0x807c807c ; undefined
   84cc8:	801c803c 	.inst	0x801c803c ; undefined
   84ccc:	80048004 	.inst	0x80048004 ; undefined
   84cd0:	80048004 	.inst	0x80048004 ; undefined
   84cd4:	80048004 	.inst	0x80048004 ; undefined
   84cd8:	80048004 	.inst	0x80048004 ; undefined
   84cdc:	00008004 	udf	#32772
	...
   84cf4:	000e000e 	.inst	0x000e000e ; undefined
   84cf8:	0000000e 	udf	#14
	...
   84d10:	0006000b 	.inst	0x0006000b ; undefined
   84d14:	c03f0000 	.inst	0xc03f0000 ; undefined
   84d18:	c001c000 	.inst	0xc001c000 ; undefined
   84d1c:	00078003 	.inst	0x00078003 ; undefined
   84d20:	001c000e 	.inst	0x001c000e ; undefined
   84d24:	00300038 	.inst	0x00300038 ; NYI
   84d28:	0000c03f 	udf	#49215
	...
   84d38:	003c000c 	.inst	0x003c000c ; NYI
   84d3c:	000c000c 	.inst	0x000c000c ; undefined
   84d40:	000c000c 	.inst	0x000c000c ; undefined
   84d44:	003f000c 	.inst	0x003f000c ; NYI
	...
   84d60:	8031001f 	.inst	0x8031001f ; NYI
   84d64:	c060c060 	.inst	0xc060c060 ; undefined
   84d68:	c060c060 	.inst	0xc060c060 ; undefined
   84d6c:	001f8031 	.inst	0x001f8031 ; undefined
	...
   84d90:	00330066 	.inst	0x00330066 ; NYI
   84d94:	c00c8019 	.inst	0xc00c8019 ; undefined
   84d98:	8019c00c 	.inst	0x8019c00c ; undefined
   84d9c:	00660033 	.inst	0x00660033 ; undefined
	...
   84db0:	001be00f 	.inst	0x001be00f ; undefined
   84db4:	00330033 	.inst	0x00330033 ; NYI
   84db8:	00630063 	.inst	0x00630063 ; undefined
   84dbc:	0063e063 	.inst	0x0063e063 ; undefined
   84dc0:	00330063 	.inst	0x00330063 ; NYI
   84dc4:	001b0033 	.inst	0x001b0033 ; undefined
   84dc8:	0000e00f 	udf	#57359
	...
   84ddc:	c03d0000 	.inst	0xc03d0000 ; undefined
   84de0:	60666066 	.inst	0x60666066 ; undefined
   84de4:	e0c760c6 	.inst	0xe0c760c6 ; undefined
   84de8:	00c600c6 	.inst	0x00c600c6 ; undefined
   84dec:	60670066 	.inst	0x60670066 ; undefined
   84df0:	0000c039 	udf	#49209
   84df4:	00000000 	udf	#0
   84df8:	00090000 	.inst	0x00090000 ; undefined
   84dfc:	00000009 	udf	#9
   84e00:	60606060 	.inst	0x60606060 ; undefined
   84e04:	8018c030 	.inst	0x8018c030 ; undefined
   84e08:	000d8019 	.inst	0x000d8019 ; undefined
   84e0c:	00060006 	.inst	0x00060006 ; undefined
   84e10:	00060006 	.inst	0x00060006 ; undefined
   84e14:	00060006 	.inst	0x00060006 ; undefined
   84e18:	00000006 	udf	#6
	...
   84e2c:	00030000 	.inst	0x00030000 ; undefined
   84e30:	00000003 	udf	#3
   84e34:	00030000 	.inst	0x00030000 ; undefined
   84e38:	00030003 	.inst	0x00030003 ; undefined
   84e3c:	00180006 	.inst	0x00180006 ; undefined
   84e40:	00300030 	.inst	0x00300030 ; NYI
   84e44:	801fc038 	.inst	0x801fc038 ; undefined
	...
   84e5c:	0000f0ff 	udf	#61695
	...
   84e70:	00040004 	.inst	0x00040004 ; undefined
   84e74:	00040004 	.inst	0x00040004 ; undefined
   84e78:	00040004 	.inst	0x00040004 ; undefined
   84e7c:	00040004 	.inst	0x00040004 ; undefined
   84e80:	00040004 	.inst	0x00040004 ; undefined
   84e84:	00040004 	.inst	0x00040004 ; undefined
   84e88:	00040004 	.inst	0x00040004 ; undefined
   84e8c:	00040004 	.inst	0x00040004 ; undefined
   84e90:	00040004 	.inst	0x00040004 ; undefined
   84e94:	00040004 	.inst	0x00040004 ; undefined
	...
   84eac:	0004f007 	.inst	0x0004f007 ; undefined
   84eb0:	00040004 	.inst	0x00040004 ; undefined
   84eb4:	00040004 	.inst	0x00040004 ; undefined
   84eb8:	00040004 	.inst	0x00040004 ; undefined
   84ebc:	00040004 	.inst	0x00040004 ; undefined
	...
   84ed4:	000400fc 	.inst	0x000400fc ; undefined
   84ed8:	00040004 	.inst	0x00040004 ; undefined
   84edc:	00040004 	.inst	0x00040004 ; undefined
   84ee0:	00040004 	.inst	0x00040004 ; undefined
   84ee4:	00040004 	.inst	0x00040004 ; undefined
   84ee8:	00040004 	.inst	0x00040004 ; undefined
   84eec:	00040004 	.inst	0x00040004 ; undefined
   84ef0:	00040004 	.inst	0x00040004 ; undefined
   84ef4:	00040004 	.inst	0x00040004 ; undefined
   84ef8:	00040004 	.inst	0x00040004 ; undefined
   84efc:	0000f007 	udf	#61447
	...
   84f10:	00040004 	.inst	0x00040004 ; undefined
   84f14:	00040004 	.inst	0x00040004 ; undefined
   84f18:	00040004 	.inst	0x00040004 ; undefined
   84f1c:	00040004 	.inst	0x00040004 ; undefined
   84f20:	00040004 	.inst	0x00040004 ; undefined
   84f24:	000000fc 	udf	#252
	...
   84f38:	00040004 	.inst	0x00040004 ; undefined
   84f3c:	00040004 	.inst	0x00040004 ; undefined
   84f40:	00040004 	.inst	0x00040004 ; undefined
   84f44:	00040004 	.inst	0x00040004 ; undefined
   84f48:	00040004 	.inst	0x00040004 ; undefined
   84f4c:	0004f007 	.inst	0x0004f007 ; undefined
   84f50:	00040004 	.inst	0x00040004 ; undefined
   84f54:	00040004 	.inst	0x00040004 ; undefined
   84f58:	00040004 	.inst	0x00040004 ; undefined
   84f5c:	00040004 	.inst	0x00040004 ; undefined
   84f60:	00040004 	.inst	0x00040004 ; undefined
   84f64:	00040004 	.inst	0x00040004 ; undefined
   84f68:	00040004 	.inst	0x00040004 ; undefined
   84f6c:	00040004 	.inst	0x00040004 ; undefined
   84f70:	00040004 	.inst	0x00040004 ; undefined
   84f74:	000400fc 	.inst	0x000400fc ; undefined
   84f78:	00040004 	.inst	0x00040004 ; undefined
   84f7c:	00040004 	.inst	0x00040004 ; undefined
   84f80:	00040004 	.inst	0x00040004 ; undefined
   84f84:	00040004 	.inst	0x00040004 ; undefined
	...
   84f9c:	0004f0ff 	.inst	0x0004f0ff ; undefined
   84fa0:	00040004 	.inst	0x00040004 ; undefined
   84fa4:	00040004 	.inst	0x00040004 ; undefined
   84fa8:	00040004 	.inst	0x00040004 ; undefined
   84fac:	00040004 	.inst	0x00040004 ; undefined
   84fb0:	00040004 	.inst	0x00040004 ; undefined
   84fb4:	00040004 	.inst	0x00040004 ; undefined
   84fb8:	00040004 	.inst	0x00040004 ; undefined
   84fbc:	00040004 	.inst	0x00040004 ; undefined
   84fc0:	00040004 	.inst	0x00040004 ; undefined
   84fc4:	0000f0ff 	udf	#61695
	...
   84fd8:	00040004 	.inst	0x00040004 ; undefined
   84fdc:	00040004 	.inst	0x00040004 ; undefined
   84fe0:	00040004 	.inst	0x00040004 ; undefined
   84fe4:	00040004 	.inst	0x00040004 ; undefined
   84fe8:	00040004 	.inst	0x00040004 ; undefined
   84fec:	0004f0ff 	.inst	0x0004f0ff ; undefined
   84ff0:	00040004 	.inst	0x00040004 ; undefined
   84ff4:	00040004 	.inst	0x00040004 ; undefined
   84ff8:	00040004 	.inst	0x00040004 ; undefined
   84ffc:	00040004 	.inst	0x00040004 ; undefined
   85000:	00005055 	udf	#20565
   85004:	0000a0aa 	udf	#41130
   85008:	00005055 	udf	#20565
   8500c:	0000a0aa 	udf	#41130
   85010:	00005055 	udf	#20565
   85014:	0000a0aa 	udf	#41130
   85018:	00005055 	udf	#20565
   8501c:	0000a0aa 	udf	#41130
   85020:	00005055 	udf	#20565
   85024:	0000a0aa 	udf	#41130
   85028:	0000f0ff 	udf	#61695
	...
   85058:	0000f0ff 	udf	#61695
	...
   85098:	0000f0ff 	udf	#61695
	...
   850c4:	f0ff0000 	adrp	x0, fffffffffe088000 <__bss_end+0xfffffffffdffc448>
	...
   850d8:	f0ff0000 	adrp	x0, fffffffffe088000 <__bss_end+0xfffffffffdffc448>
   850dc:	f0ff0000 	adrp	x0, fffffffffe088000 <__bss_end+0xfffffffffdffc448>
	...
   850f0:	000a000a 	.inst	0x000a000a ; undefined
   850f4:	000a000a 	.inst	0x000a000a ; undefined
   850f8:	000a000a 	.inst	0x000a000a ; undefined
   850fc:	000a000a 	.inst	0x000a000a ; undefined
   85100:	000a000a 	.inst	0x000a000a ; undefined
   85104:	000a000a 	.inst	0x000a000a ; undefined
   85108:	000a000a 	.inst	0x000a000a ; undefined
   8510c:	000a000a 	.inst	0x000a000a ; undefined
   85110:	000a000a 	.inst	0x000a000a ; undefined
   85114:	000a000a 	.inst	0x000a000a ; undefined
	...
   85128:	f00f0000 	adrp	x0, 1e088000 <__bss_end+0x1dffc448>
   8512c:	f00b0008 	adrp	x8, 16088000 <__bss_end+0x15ffc448>
   85130:	000a000a 	.inst	0x000a000a ; undefined
   85134:	000a000a 	.inst	0x000a000a ; undefined
   85138:	000a000a 	.inst	0x000a000a ; undefined
   8513c:	000a000a 	.inst	0x000a000a ; undefined
	...
   85150:	00fe0000 	.inst	0x00fe0000 ; undefined
   85154:	00fa0002 	.inst	0x00fa0002 ; undefined
   85158:	000a000a 	.inst	0x000a000a ; undefined
   8515c:	000a000a 	.inst	0x000a000a ; undefined
   85160:	000a000a 	.inst	0x000a000a ; undefined
   85164:	000a000a 	.inst	0x000a000a ; undefined
   85168:	000a000a 	.inst	0x000a000a ; undefined
   8516c:	000a000a 	.inst	0x000a000a ; undefined
   85170:	000a000a 	.inst	0x000a000a ; undefined
   85174:	000a000a 	.inst	0x000a000a ; undefined
   85178:	f00b000a 	adrp	x10, 16088000 <__bss_end+0x15ffc448>
   8517c:	f00f0008 	adrp	x8, 1e088000 <__bss_end+0x1dffc448>
	...
   85190:	000a000a 	.inst	0x000a000a ; undefined
   85194:	000a000a 	.inst	0x000a000a ; undefined
   85198:	000a000a 	.inst	0x000a000a ; undefined
   8519c:	000a000a 	.inst	0x000a000a ; undefined
   851a0:	00fa000a 	.inst	0x00fa000a ; undefined
   851a4:	00fe0002 	.inst	0x00fe0002 ; undefined
	...
   851b8:	000a000a 	.inst	0x000a000a ; undefined
   851bc:	000a000a 	.inst	0x000a000a ; undefined
   851c0:	000a000a 	.inst	0x000a000a ; undefined
   851c4:	000a000a 	.inst	0x000a000a ; undefined
   851c8:	f00b000a 	adrp	x10, 16088000 <__bss_end+0x15ffc448>
   851cc:	f00b0008 	adrp	x8, 16088000 <__bss_end+0x15ffc448>
   851d0:	000a000a 	.inst	0x000a000a ; undefined
   851d4:	000a000a 	.inst	0x000a000a ; undefined
   851d8:	000a000a 	.inst	0x000a000a ; undefined
   851dc:	000a000a 	.inst	0x000a000a ; undefined
   851e0:	000a000a 	.inst	0x000a000a ; undefined
   851e4:	000a000a 	.inst	0x000a000a ; undefined
   851e8:	000a000a 	.inst	0x000a000a ; undefined
   851ec:	000a000a 	.inst	0x000a000a ; undefined
   851f0:	00fa000a 	.inst	0x00fa000a ; undefined
   851f4:	00fa0002 	.inst	0x00fa0002 ; undefined
   851f8:	000a000a 	.inst	0x000a000a ; undefined
   851fc:	000a000a 	.inst	0x000a000a ; undefined
   85200:	000a000a 	.inst	0x000a000a ; undefined
   85204:	000a000a 	.inst	0x000a000a ; undefined
	...
   85218:	f0ff0000 	adrp	x0, fffffffffe088000 <__bss_end+0xfffffffffdffc448>
   8521c:	f0fb0000 	adrp	x0, fffffffff6088000 <__bss_end+0xfffffffff5ffc448>
   85220:	000a000a 	.inst	0x000a000a ; undefined
   85224:	000a000a 	.inst	0x000a000a ; undefined
   85228:	000a000a 	.inst	0x000a000a ; undefined
   8522c:	000a000a 	.inst	0x000a000a ; undefined
   85230:	000a000a 	.inst	0x000a000a ; undefined
   85234:	000a000a 	.inst	0x000a000a ; undefined
   85238:	000a000a 	.inst	0x000a000a ; undefined
   8523c:	000a000a 	.inst	0x000a000a ; undefined
   85240:	f0fb000a 	adrp	x10, fffffffff6088000 <__bss_end+0xfffffffff5ffc448>
   85244:	f0ff0000 	adrp	x0, fffffffffe088000 <__bss_end+0xfffffffffdffc448>
	...
   85258:	000a000a 	.inst	0x000a000a ; undefined
   8525c:	000a000a 	.inst	0x000a000a ; undefined
   85260:	000a000a 	.inst	0x000a000a ; undefined
   85264:	000a000a 	.inst	0x000a000a ; undefined
   85268:	f0fb000a 	adrp	x10, fffffffff6088000 <__bss_end+0xfffffffff5ffc448>
   8526c:	f0fb0000 	adrp	x0, fffffffff6088000 <__bss_end+0xfffffffff5ffc448>
   85270:	000a000a 	.inst	0x000a000a ; undefined
   85274:	000a000a 	.inst	0x000a000a ; undefined
   85278:	000a000a 	.inst	0x000a000a ; undefined
   8527c:	000a000a 	.inst	0x000a000a ; undefined
   85280:	f0fff0ff 	adrp	xzr, ffffffffffea4000 <__bss_end+0xffffffffffe18448>
   85284:	f0fff0ff 	adrp	xzr, ffffffffffea4000 <__bss_end+0xffffffffffe18448>
   85288:	f0fff0ff 	adrp	xzr, ffffffffffea4000 <__bss_end+0xffffffffffe18448>
   8528c:	f0fff0ff 	adrp	xzr, ffffffffffea4000 <__bss_end+0xffffffffffe18448>
   85290:	f0fff0ff 	adrp	xzr, ffffffffffea4000 <__bss_end+0xffffffffffe18448>
   85294:	f0fff0ff 	adrp	xzr, ffffffffffea4000 <__bss_end+0xffffffffffe18448>
   85298:	f0fff0ff 	adrp	xzr, ffffffffffea4000 <__bss_end+0xffffffffffe18448>
   8529c:	f0fff0ff 	adrp	xzr, ffffffffffea4000 <__bss_end+0xffffffffffe18448>
   852a0:	f0fff0ff 	adrp	xzr, ffffffffffea4000 <__bss_end+0xffffffffffe18448>
   852a4:	f0fff0ff 	adrp	xzr, ffffffffffea4000 <__bss_end+0xffffffffffe18448>
	...
   852b0:	00040004 	.inst	0x00040004 ; undefined
   852b4:	001f000e 	.inst	0x001f000e ; undefined
   852b8:	8035001f 	.inst	0x8035001f ; NYI
   852bc:	00048024 	.inst	0x00048024 ; undefined
   852c0:	00040004 	.inst	0x00040004 ; undefined
   852c4:	00040004 	.inst	0x00040004 ; undefined
   852c8:	00000004 	udf	#4
	...
   852d8:	00040004 	.inst	0x00040004 ; undefined
   852dc:	00040004 	.inst	0x00040004 ; undefined
   852e0:	00040004 	.inst	0x00040004 ; undefined
   852e4:	80358024 	.inst	0x80358024 ; NYI
   852e8:	001f001f 	.inst	0x001f001f ; undefined
   852ec:	0004000e 	.inst	0x0004000e ; undefined
   852f0:	00000004 	udf	#4
	...
   85304:	00030000 	.inst	0x00030000 ; undefined
   85308:	001c000e 	.inst	0x001c000e ; undefined
   8530c:	001cf07f 	.inst	0x001cf07f ; undefined
   85310:	0003000e 	.inst	0x0003000e ; undefined
	...
   8532c:	000c0000 	.inst	0x000c0000 ; undefined
   85330:	80030007 	.inst	0x80030007 ; undefined
   85334:	8003e0ff 	.inst	0x8003e0ff ; undefined
   85338:	000c0007 	.inst	0x000c0007 ; undefined
	...
   85350:	0006001c 	.inst	0x0006001c ; undefined
   85354:	001f0000 	.inst	0x001f0000 ; undefined
   85358:	80018033 	.inst	0x80018033 ; undefined
   8535c:	801f8001 	.inst	0x801f8001 ; undefined
   85360:	80618031 	.inst	0x80618031 ; undefined
   85364:	80738061 	.inst	0x80738061 ; undefined
   85368:	0000c03c 	udf	#49212
	...
   85378:	000c0007 	.inst	0x000c0007 ; undefined
   8537c:	001f0000 	.inst	0x001f0000 ; undefined
   85380:	80018033 	.inst	0x80018033 ; undefined
   85384:	801f8001 	.inst	0x801f8001 ; undefined
   85388:	80618031 	.inst	0x80618031 ; undefined
   8538c:	80738061 	.inst	0x80738061 ; undefined
   85390:	0000c03c 	udf	#49212
	...
   853a0:	000b0006 	.inst	0x000b0006 ; undefined
   853a4:	001f0000 	.inst	0x001f0000 ; undefined
   853a8:	80018033 	.inst	0x80018033 ; undefined
   853ac:	801f8001 	.inst	0x801f8001 ; undefined
   853b0:	80618031 	.inst	0x80618031 ; undefined
   853b4:	80738061 	.inst	0x80738061 ; undefined
   853b8:	0000c03c 	udf	#49212
	...
   853c8:	0016000d 	.inst	0x0016000d ; undefined
   853cc:	001f0000 	.inst	0x001f0000 ; undefined
   853d0:	80018033 	.inst	0x80018033 ; undefined
   853d4:	801f8001 	.inst	0x801f8001 ; undefined
   853d8:	80618031 	.inst	0x80618031 ; undefined
   853dc:	80738061 	.inst	0x80738061 ; undefined
   853e0:	0000c03c 	udf	#49212
	...
   853f0:	000a000a 	.inst	0x000a000a ; undefined
   853f4:	001f0000 	.inst	0x001f0000 ; undefined
   853f8:	80018033 	.inst	0x80018033 ; undefined
   853fc:	801f8001 	.inst	0x801f8001 ; undefined
   85400:	80618031 	.inst	0x80618031 ; undefined
   85404:	80738061 	.inst	0x80738061 ; undefined
   85408:	0000c03c 	udf	#49212
	...
   85418:	00090006 	.inst	0x00090006 ; undefined
   8541c:	001f0006 	.inst	0x001f0006 ; undefined
   85420:	80018033 	.inst	0x80018033 ; undefined
   85424:	801f8001 	.inst	0x801f8001 ; undefined
   85428:	80618031 	.inst	0x80618031 ; undefined
   8542c:	80738061 	.inst	0x80738061 ; undefined
   85430:	0000c03c 	udf	#49212
	...
   85444:	c03d0000 	.inst	0xc03d0000 ; undefined
   85448:	60066066 	.inst	0x60066066 ; undefined
   8544c:	e03f6006 	.inst	0xe03f6006 ; undefined
   85450:	00660066 	.inst	0x00660066 ; undefined
   85454:	606f0066 	.inst	0x606f0066 ; undefined
   85458:	0000c031 	udf	#49201
	...
   8546c:	800f0000 	.inst	0x800f0000 ; undefined
   85470:	0030c038 	.inst	0x0030c038 ; NYI
   85474:	00600060 	.inst	0x00600060 ; undefined
   85478:	00600060 	.inst	0x00600060 ; undefined
   8547c:	c0380030 	.inst	0xc0380030 ; undefined
   85480:	0006800f 	.inst	0x0006800f ; undefined
   85484:	000e0003 	.inst	0x000e0003 ; undefined
	...
   85490:	0006001c 	.inst	0x0006001c ; undefined
   85494:	001f0000 	.inst	0x001f0000 ; undefined
   85498:	c0608031 	.inst	0xc0608031 ; undefined
   8549c:	c07fc060 	.inst	0xc07fc060 ; undefined
   854a0:	00600060 	.inst	0x00600060 ; undefined
   854a4:	c0380070 	.inst	0xc0380070 ; undefined
   854a8:	0000801f 	udf	#32799
	...
   854b8:	000c0007 	.inst	0x000c0007 ; undefined
   854bc:	001f0000 	.inst	0x001f0000 ; undefined
   854c0:	c0608031 	.inst	0xc0608031 ; undefined
   854c4:	c07fc060 	.inst	0xc07fc060 ; undefined
   854c8:	00600060 	.inst	0x00600060 ; undefined
   854cc:	c0380070 	.inst	0xc0380070 ; undefined
   854d0:	0000801f 	udf	#32799
	...
   854e0:	000b0006 	.inst	0x000b0006 ; undefined
   854e4:	001f0000 	.inst	0x001f0000 ; undefined
   854e8:	c0608031 	.inst	0xc0608031 ; undefined
   854ec:	c07fc060 	.inst	0xc07fc060 ; undefined
   854f0:	00600060 	.inst	0x00600060 ; undefined
   854f4:	c0380070 	.inst	0xc0380070 ; undefined
   854f8:	0000801f 	udf	#32799
	...
   85508:	000a000a 	.inst	0x000a000a ; undefined
   8550c:	001f0000 	.inst	0x001f0000 ; undefined
   85510:	c0608031 	.inst	0xc0608031 ; undefined
   85514:	c07fc060 	.inst	0xc07fc060 ; undefined
   85518:	00600060 	.inst	0x00600060 ; undefined
   8551c:	c0380070 	.inst	0xc0380070 ; undefined
   85520:	0000801f 	udf	#32799
	...
   85530:	0006001c 	.inst	0x0006001c ; undefined
   85534:	003e0000 	.inst	0x003e0000 ; NYI
   85538:	00060006 	.inst	0x00060006 ; undefined
   8553c:	00060006 	.inst	0x00060006 ; undefined
   85540:	00060006 	.inst	0x00060006 ; undefined
   85544:	00060006 	.inst	0x00060006 ; undefined
   85548:	00000006 	udf	#6
	...
   85558:	000c0007 	.inst	0x000c0007 ; undefined
   8555c:	003e0000 	.inst	0x003e0000 ; NYI
   85560:	00060006 	.inst	0x00060006 ; undefined
   85564:	00060006 	.inst	0x00060006 ; undefined
   85568:	00060006 	.inst	0x00060006 ; undefined
   8556c:	00060006 	.inst	0x00060006 ; undefined
   85570:	00000006 	udf	#6
	...
   85580:	000b0006 	.inst	0x000b0006 ; undefined
   85584:	003e0000 	.inst	0x003e0000 ; NYI
   85588:	00060006 	.inst	0x00060006 ; undefined
   8558c:	00060006 	.inst	0x00060006 ; undefined
   85590:	00060006 	.inst	0x00060006 ; undefined
   85594:	00060006 	.inst	0x00060006 ; undefined
   85598:	00000006 	udf	#6
	...
   855a8:	00120012 	.inst	0x00120012 ; undefined
   855ac:	007e0000 	.inst	0x007e0000 ; undefined
   855b0:	00060006 	.inst	0x00060006 ; undefined
   855b4:	00060006 	.inst	0x00060006 ; undefined
   855b8:	00060006 	.inst	0x00060006 ; undefined
   855bc:	00060006 	.inst	0x00060006 ; undefined
   855c0:	00000006 	udf	#6
	...
   855cc:	00700000 	.inst	0x00700000 ; undefined
   855d0:	0006801d 	.inst	0x0006801d ; undefined
   855d4:	8001001b 	.inst	0x8001001b ; undefined
   855d8:	c039800f 	.inst	0xc039800f ; undefined
   855dc:	c060c030 	.inst	0xc060c030 ; undefined
   855e0:	c060c060 	.inst	0xc060c060 ; undefined
   855e4:	803b8031 	.inst	0x803b8031 ; NYI
   855e8:	0000000e 	udf	#14
	...
   855f8:	0016000d 	.inst	0x0016000d ; undefined
   855fc:	80370000 	.inst	0x80370000 ; NYI
   85600:	c030c039 	.inst	0xc030c039 ; undefined
   85604:	c030c030 	.inst	0xc030c030 ; undefined
   85608:	c030c030 	.inst	0xc030c030 ; undefined
   8560c:	c030c030 	.inst	0xc030c030 ; undefined
   85610:	0000c030 	udf	#49200
	...
   85620:	0006001c 	.inst	0x0006001c ; undefined
   85624:	000e0000 	.inst	0x000e0000 ; undefined
   85628:	8031803b 	.inst	0x8031803b ; NYI
   8562c:	c060c060 	.inst	0xc060c060 ; undefined
   85630:	c060c060 	.inst	0xc060c060 ; undefined
   85634:	803b8031 	.inst	0x803b8031 ; NYI
   85638:	0000000e 	udf	#14
	...
   85648:	000c0007 	.inst	0x000c0007 ; undefined
   8564c:	000e0000 	.inst	0x000e0000 ; undefined
   85650:	8031803b 	.inst	0x8031803b ; NYI
   85654:	c060c060 	.inst	0xc060c060 ; undefined
   85658:	c060c060 	.inst	0xc060c060 ; undefined
   8565c:	803b8031 	.inst	0x803b8031 ; NYI
   85660:	0000000e 	udf	#14
	...
   85670:	000b0006 	.inst	0x000b0006 ; undefined
   85674:	000e0000 	.inst	0x000e0000 ; undefined
   85678:	8031803b 	.inst	0x8031803b ; NYI
   8567c:	c060c060 	.inst	0xc060c060 ; undefined
   85680:	c060c060 	.inst	0xc060c060 ; undefined
   85684:	803b8031 	.inst	0x803b8031 ; NYI
   85688:	0000000e 	udf	#14
	...
   85698:	0016000d 	.inst	0x0016000d ; undefined
   8569c:	000e0000 	.inst	0x000e0000 ; undefined
   856a0:	8031803b 	.inst	0x8031803b ; NYI
   856a4:	c060c060 	.inst	0xc060c060 ; undefined
   856a8:	c060c060 	.inst	0xc060c060 ; undefined
   856ac:	803b8031 	.inst	0x803b8031 ; NYI
   856b0:	0000000e 	udf	#14
	...
   856c0:	000a000a 	.inst	0x000a000a ; undefined
   856c4:	000e0000 	.inst	0x000e0000 ; undefined
   856c8:	8031803b 	.inst	0x8031803b ; NYI
   856cc:	c060c060 	.inst	0xc060c060 ; undefined
   856d0:	c060c060 	.inst	0xc060c060 ; undefined
   856d4:	803b8031 	.inst	0x803b8031 ; NYI
   856d8:	0000000e 	udf	#14
	...
   856ec:	00040000 	.inst	0x00040000 ; undefined
   856f0:	00000004 	udf	#4
   856f4:	c07f0000 	.inst	0xc07f0000 ; undefined
   856f8:	00000000 	udf	#0
   856fc:	00040004 	.inst	0x00040004 ; undefined
	...
   85714:	400e0000 	.inst	0x400e0000 ; undefined
   85718:	8031803b 	.inst	0x8031803b ; NYI
   8571c:	c064c062 	.inst	0xc064c062 ; undefined
   85720:	c068c064 	.inst	0xc068c064 ; undefined
   85724:	803b8031 	.inst	0x803b8031 ; NYI
   85728:	0000004e 	udf	#78
	...
   85738:	0003000e 	.inst	0x0003000e ; undefined
   8573c:	c0300000 	.inst	0xc0300000 ; undefined
   85740:	c030c030 	.inst	0xc030c030 ; undefined
   85744:	c030c030 	.inst	0xc030c030 ; undefined
   85748:	c030c030 	.inst	0xc030c030 ; undefined
   8574c:	c039c030 	.inst	0xc039c030 ; undefined
   85750:	0000c01e 	udf	#49182
	...
   85760:	000c0007 	.inst	0x000c0007 ; undefined
   85764:	c0300000 	.inst	0xc0300000 ; undefined
   85768:	c030c030 	.inst	0xc030c030 ; undefined
   8576c:	c030c030 	.inst	0xc030c030 ; undefined
   85770:	c030c030 	.inst	0xc030c030 ; undefined
   85774:	c039c030 	.inst	0xc039c030 ; undefined
   85778:	0000c01e 	udf	#49182
	...
   85788:	000b0006 	.inst	0x000b0006 ; undefined
   8578c:	c0300000 	.inst	0xc0300000 ; undefined
   85790:	c030c030 	.inst	0xc030c030 ; undefined
   85794:	c030c030 	.inst	0xc030c030 ; undefined
   85798:	c030c030 	.inst	0xc030c030 ; undefined
   8579c:	c039c030 	.inst	0xc039c030 ; undefined
   857a0:	0000c01e 	udf	#49182
	...
   857b0:	00090009 	.inst	0x00090009 ; undefined
   857b4:	c0300000 	.inst	0xc0300000 ; undefined
   857b8:	c030c030 	.inst	0xc030c030 ; undefined
   857bc:	c030c030 	.inst	0xc030c030 ; undefined
   857c0:	c030c030 	.inst	0xc030c030 ; undefined
   857c4:	c039c030 	.inst	0xc039c030 ; undefined
   857c8:	0000c01e 	udf	#49182
	...
   857d8:	00068003 	.inst	0x00068003 ; undefined
   857dc:	c0300000 	.inst	0xc0300000 ; undefined
   857e0:	c030c030 	.inst	0xc030c030 ; undefined
   857e4:	80198018 	.inst	0x80198018 ; undefined
   857e8:	000d8019 	.inst	0x000d8019 ; undefined
   857ec:	0006000f 	.inst	0x0006000f ; undefined
   857f0:	00040006 	.inst	0x00040006 ; undefined
   857f4:	000c000c 	.inst	0x000c000c ; undefined
	...
   85800:	00600060 	.inst	0x00600060 ; undefined
   85804:	006e0060 	.inst	0x006e0060 ; undefined
   85808:	80618073 	.inst	0x80618073 ; undefined
   8580c:	c060c060 	.inst	0xc060c060 ; undefined
   85810:	c060c060 	.inst	0xc060c060 ; undefined
   85814:	80738061 	.inst	0x80738061 ; undefined
   85818:	0060006e 	.inst	0x0060006e ; undefined
   8581c:	00600060 	.inst	0x00600060 ; undefined
	...
   85828:	00090009 	.inst	0x00090009 ; undefined
   8582c:	c0300000 	.inst	0xc0300000 ; undefined
   85830:	c030c030 	.inst	0xc030c030 ; undefined
   85834:	80198018 	.inst	0x80198018 ; undefined
   85838:	000d8019 	.inst	0x000d8019 ; undefined
   8583c:	0006000f 	.inst	0x0006000f ; undefined
   85840:	00040006 	.inst	0x00040006 ; undefined
   85844:	000c000c 	.inst	0x000c000c ; undefined
   85848:	ffbdbfef 	.inst	0xffbdbfef ; undefined
   8584c:	e2ff80cf 	.inst	0xe2ff80cf ; undefined
   85850:	e2ffa089 	.inst	0xe2ffa089 ; undefined
   85854:	e2ffa489 	.inst	0xe2ffa489 ; undefined
   85858:	e2ffa589 	.inst	0xe2ffa589 ; undefined
   8585c:	96e2a096 	bl	fffffffffb92dab4 <__bss_end+0xfffffffffb8a1efc>
   85860:	ae96e2ac 	.inst	0xae96e2ac ; undefined
   85864:	e2bc97e2 	.inst	0xe2bc97e2 ; undefined
   85868:	ace2be97 	ldp	q23, q15, [x20], #-944
   8586c:	8e88e29b 	.inst	0x8e88e29b ; undefined
   85870:	8697e2ff 	.inst	0x8697e2ff ; undefined
   85874:	e2a699e2 	.inst	0xe2a699e2 ; undefined
   85878:	ace2a5ac 	ldp	q12, q9, [x13], #-944
   8587c:	bcc2ffa7 	.inst	0xbcc2ffa7 ; undefined
   85880:	ffbdc2ff 	.inst	0xffbdc2ff ; undefined
   85884:	c2ffbec2 	.inst	0xc2ffbec2 ; undefined
   85888:	a8c2ffa6 	ldp	x6, xzr, [x29], #40
   8588c:	ffb8c2ff 	.inst	0xffb8c2ff ; undefined
   85890:	e2ff92c6 	.inst	0xe2ff92c6 ; undefined
   85894:	e2ffa080 	.inst	0xe2ffa080 ; undefined
   85898:	e2ffa180 	.inst	0xe2ffa180 ; undefined
   8589c:	e2ffb080 	.inst	0xe2ffb080 ; undefined
   858a0:	e2ffa284 	.inst	0xe2ffa284 ; undefined
   858a4:	e2ffa680 	.inst	0xe2ffa680 ; undefined
   858a8:	e2ffb980 	.inst	0xe2ffb980 ; undefined
   858ac:	e2ffba80 	.inst	0xe2ffba80 ; undefined
   858b0:	80e29c80 	.inst	0x80e29c80 ; undefined
   858b4:	b680e29f 	tbz	xzr, #48, 87504 <_ZL4mbox+0x1d4>
   858b8:	9d80e2ff 	.inst	0x9d80e2ff ; undefined
   858bc:	9dcbbaca 	.inst	0x9dcbbaca ; undefined
   858c0:	80e2aecb 	.inst	0x80e2aecb ; undefined
   858c4:	80e2ffb3 	.inst	0x80e2ffb3 ; undefined
   858c8:	b9e2ff9e 	.inst	0xb9e2ff9e ; undefined
   858cc:	b9e2ff82 	.inst	0xb9e2ff82 ; undefined
   858d0:	ff8ecb81 	.inst	0xff8ecb81 ; undefined
   858d4:	c4ff9ec4 	ld1sh	{z4.d}, p7/z, [x22, z31.d, lsl #1]
   858d8:	b0c4ff9f 	adrp	xzr, ffffffff8a076000 <__bss_end+0xffffffff89fea448>
   858dc:	ffb1c4ff 	.inst	0xffb1c4ff ; undefined
   858e0:	c5ff9ec5 	.inst	0xc5ff9ec5 ; undefined
   858e4:	c220ff9f 	.inst	0xc220ff9f ; undefined
   858e8:	8080e2a0 	.inst	0x8080e2a0 ; undefined
   858ec:	e28180e2 	.inst	0xe28180e2 ; undefined
   858f0:	80e28280 	.inst	0x80e28280 ; undefined
   858f4:	8480e283 	prfh	pldl2strm, p0, [z20.s]
   858f8:	e28580e2 	.inst	0xe28580e2 ; undefined
   858fc:	80e28680 	.inst	0x80e28680 ; undefined
   85900:	8880e287 	stlr	w7, [x20]
   85904:	e28980e2 	.inst	0xe28980e2 ; undefined
   85908:	80e28a80 	.inst	0x80e28a80 ; undefined
   8590c:	9f81e2af 	.inst	0x9f81e2af ; undefined
   85910:	22ff21ff 	.inst	0x22ff21ff ; undefined
   85914:	24ff23ff 	cmpls	p15.d, p0/z, z31.d, #124
   85918:	26ff25ff 	.inst	0x26ff25ff ; undefined
   8591c:	b4c227ff 	cbz	xzr, 9e18 <__bss_size+0x9485>
   85920:	bccab9ca 	.inst	0xbccab9ca ; undefined
   85924:	80e28acb 	.inst	0x80e28acb ; undefined
   85928:	b280e299 	.inst	0xb280e299 ; undefined
   8592c:	29ff28ff 	ldp	wzr, w10, [x7, #-8]!
   85930:	81e22aff 	.inst	0x81e22aff ; undefined
   85934:	9788e28e 	bl	fffffffffe2be36c <__bss_end+0xfffffffffe2327b4>
   85938:	2cff2bff 	ldp	s31, s10, [sp], #-8
   8593c:	80e28fcb 	.inst	0x80e28fcb ; undefined
   85940:	c22dff9a 	.inst	0xc22dff9a ; undefined
   85944:	9080e2ad 	adrp	x13, ffffffff01cd9000 <__bss_end+0xffffffff01c4d448>
   85948:	e29180e2 	.inst	0xe29180e2 ; undefined
   8594c:	80e29280 	.inst	0x80e29280 ; undefined
   85950:	8381e293 	.inst	0x8381e293 ; undefined
   85954:	ff9288e2 	.inst	0xff9288e2 ; undefined
   85958:	a480e22e 	ldnt1h	{z14.h}, p0/z, [x17]
   8595c:	81e22fff 	.inst	0x81e22fff ; undefined
   85960:	9588e284 	bl	62be370 <__bss_end+0x62327b8>
   85964:	31ff30ff 	.inst	0x31ff30ff ; undefined
   85968:	33ff32ff 	.inst	0x33ff32ff ; undefined
   8596c:	35ff34ff 	cbnz	wzr, 84008 <_ZL17_systemFontBuffer+0xfe0>
   85970:	37ff36ff 	tbnz	wzr, #31, 8404c <_ZL17_systemFontBuffer+0x1024>
   85974:	39ff38ff 	ldrsb	wzr, [x7, #4046]
   85978:	88e23aff 	.inst	0x88e23aff ; undefined
   8597c:	ff3bffb6 	.inst	0xff3bffb6 ; undefined
   85980:	e23dff3c 	.inst	0xe23dff3c ; undefined
   85984:	3eff80b9 	.inst	0x3eff80b9 ; undefined
   85988:	40ff3fff 	.inst	0x40ff3fff ; undefined
   8598c:	42ff41ff 	.inst	0x42ff41ff ; undefined
   85990:	44ff43ff 	cdot	z31.d, z31.h, z15.h[1], #0
   85994:	46ff45ff 	.inst	0x46ff45ff ; undefined
   85998:	48ff47ff 	.inst	0x48ff47ff ; undefined
   8599c:	4aff49ff 	eon	wzr, w15, wzr, ror #18
   859a0:	84e24bff 	ld1h	{z31.s}, p2/z, [sp, z2.s, sxtw #1]
   859a4:	ff4cffaa 	.inst	0xff4cffaa ; undefined
   859a8:	ff4eff4d 	.inst	0xff4eff4d ; undefined
   859ac:	ff50ff4f 	.inst	0xff50ff4f ; undefined
   859b0:	ff52ff51 	.inst	0xff52ff51 ; undefined
   859b4:	ff54ff53 	.inst	0xff54ff53 ; undefined
   859b8:	ff56ff55 	.inst	0xff56ff55 ; undefined
   859bc:	ff58ff57 	.inst	0xff58ff57 ; undefined
   859c0:	ff5aff59 	.inst	0xff5aff59 ; undefined
   859c4:	e25cff5b 	.inst	0xe25cff5b ; undefined
   859c8:	5dffb5a7 	.inst	0x5dffb5a7 ; undefined
   859cc:	84cb5eff 	ld1h	{z31.s}, p7/z, [x23, z11.s, sxtw]
   859d0:	8ce286cb 	.inst	0x8ce286cb ; undefined
   859d4:	ff5fff83 	.inst	0xff5fff83 ; undefined
   859d8:	cabbca60 	eon	x0, x19, x27, asr #50
   859dc:	e28bcbbd 	.inst	0xe28bcbbd ; undefined
   859e0:	80e29880 	.inst	0x80e29880 ; undefined
   859e4:	b580e29b 	cbnz	x27, fffffffffff87634 <__bss_end+0xffffffffffefba7c>
   859e8:	62ff61ff 	.inst	0x62ff61ff ; undefined
   859ec:	64ff63ff 	.inst	0x64ff63ff ; undefined
   859f0:	66ff65ff 	.inst	0x66ff65ff ; undefined
   859f4:	68ff67ff 	ldpsw	xzr, x25, [sp], #-8
   859f8:	6aff69ff 	bics	wzr, w15, wzr, ror #26
   859fc:	6cff6bff 	ldp	d31, d26, [sp], #-16
   85a00:	6eff6dff 	.inst	0x6eff6dff ; undefined
   85a04:	70ff6fff 	adr	xzr, 84803 <_ZL17_systemFontBuffer+0x17db>
   85a08:	72ff71ff 	.inst	0x72ff71ff ; undefined
   85a0c:	74ff73ff 	.inst	0x74ff73ff ; undefined
   85a10:	76ff75ff 	.inst	0x76ff75ff ; undefined
   85a14:	78ff77ff 	.inst	0x78ff77ff ; undefined
   85a18:	7aff79ff 	.inst	0x7aff79ff ; undefined
   85a1c:	7cff7bff 	.inst	0x7cff7bff ; undefined
   85a20:	ffa388e2 	.inst	0xffa388e2 ; undefined
   85a24:	cb7eff7d 	.inst	0xcb7eff7d ; undefined
   85a28:	80e2ff9c 	.inst	0x80e2ff9c ; undefined
   85a2c:	9988e2a2 	ldapursw	x2, [x21, #142]
   85a30:	ff8f97e2 	.inst	0xff8f97e2 ; undefined
   85a34:	c3ff80c3 	.inst	0xc3ff80c3 ; undefined
   85a38:	82c3ff81 	.inst	0x82c3ff81 ; undefined
   85a3c:	ff83c3ff 	.inst	0xff83c3ff ; undefined
   85a40:	c3ff84c3 	.inst	0xc3ff84c3 ; undefined
   85a44:	ab84e285 	adds	x5, x20, x4, asr #56
   85a48:	ff86c3ff 	.inst	0xff86c3ff ; undefined
   85a4c:	c3ff87c3 	.inst	0xc3ff87c3 ; undefined
   85a50:	89c3ff88 	.inst	0x89c3ff88 ; undefined
   85a54:	ff8ac3ff 	.inst	0xff8ac3ff ; undefined
   85a58:	c3ff8bc3 	.inst	0xc3ff8bc3 ; undefined
   85a5c:	8dc3ff8c 	.inst	0x8dc3ff8c ; undefined
   85a60:	ff8ec3ff 	.inst	0xff8ec3ff ; undefined
   85a64:	c3ff8fc3 	.inst	0xc3ff8fc3 ; undefined
   85a68:	ff90c490 	.inst	0xff90c490 ; undefined
   85a6c:	c3ff91c3 	.inst	0xc3ff91c3 ; undefined
   85a70:	93c3ff92 	extr	x18, x28, x3, #63
   85a74:	ff94c3ff 	.inst	0xff94c3ff ; undefined
   85a78:	c3ff95c3 	.inst	0xc3ff95c3 ; undefined
   85a7c:	97c3ff96 	bl	ffffffffff1858d4 <__bss_end+0xffffffffff0f9d1c>
   85a80:	ff98c3ff 	.inst	0xff98c3ff ; undefined
   85a84:	c3ff99c3 	.inst	0xc3ff99c3 ; undefined
   85a88:	9bc3ff9a 	.inst	0x9bc3ff9a ; undefined
   85a8c:	ff9cc3ff 	.inst	0xff9cc3ff ; undefined
   85a90:	c3ff9dc3 	.inst	0xc3ff9dc3 ; undefined
   85a94:	9fc3ff9e 	.inst	0x9fc3ff9e ; undefined
   85a98:	9296e2ff 	mov	xzr, #0xffffffffffff48e8    	// #-46872
   85a9c:	ffa1c2ff 	.inst	0xffa1c2ff ; undefined
   85aa0:	c2ffa2c2 	.inst	0xc2ffa2c2 ; undefined
   85aa4:	82e2ffa3 	.inst	0x82e2ffa3 ; undefined
   85aa8:	a5c2ffac 	ld3d	{z12.d-z14.d}, p7/z, [x29, #6, mul vl]
   85aac:	ffa0c5ff 	.inst	0xffa0c5ff ; undefined
   85ab0:	c5ffa7c2 	.inst	0xc5ffa7c2 ; undefined
   85ab4:	a9c2ffa1 	ldp	x1, xzr, [x29, #40]!
   85ab8:	ffaac2ff 	.inst	0xffaac2ff ; undefined
   85abc:	c2ffabc2 	.inst	0xc2ffabc2 ; undefined
   85ac0:	a4c2ffac 	ld3h	{z12.h-z14.h}, p7/z, [x29, #6, mul vl]
   85ac4:	ffaec2ff 	.inst	0xffaec2ff ; undefined
   85ac8:	89cbafc2 	.inst	0x89cbafc2 ; undefined
   85acc:	cbb0c2ff 	.inst	0xcbb0c2ff ; undefined
   85ad0:	b1c2ff9a 	.inst	0xb1c2ff9a ; undefined
   85ad4:	ffb2c2ff 	.inst	0xffb2c2ff ; undefined
   85ad8:	c5ffb3c2 	.inst	0xc5ffb3c2 ; undefined
   85adc:	b5c2ffbd 	cbnz	x29, bad0 <__bss_size+0xb13d>
   85ae0:	c2ffbcce 	.inst	0xc2ffbcce ; undefined
   85ae4:	b7c2ffb6 	tbnz	x22, #56, 8bad8 <_ZL11_systemFont+0x328>
   85ae8:	e2a780e2 	.inst	0xe2a780e2 ; undefined
   85aec:	b8e2858b 	.inst	0xb8e2858b ; undefined
   85af0:	bec5ffb1 	.inst	0xbec5ffb1 ; undefined
   85af4:	ffb9c2ff 	.inst	0xffb9c2ff ; undefined
   85af8:	c2ffbac2 	.inst	0xc2ffbac2 ; undefined
   85afc:	92c5ffbb 	mov	x27, #0xffffd002ffffffff    	// #-52763673231361
   85b00:	ff93c5ff 	.inst	0xff93c5ff ; undefined
   85b04:	c2ffb8c5 	.inst	0xc2ffb8c5 ; undefined
   85b08:	94e2ffbf 	bl	3945a04 <__bss_end+0x38b9e4c>
   85b0c:	9480e280 	bl	20be50c <__bss_end+0x2032954>
   85b10:	e29580e2 	.inst	0xe29580e2 ; undefined
   85b14:	e2ffaf8e 	.inst	0xe2ffaf8e ; undefined
   85b18:	e2ff8294 	.inst	0xe2ff8294 ; undefined
   85b1c:	95e28c94 	bl	7928d6c <__bss_end+0x789d1b4>
   85b20:	94e2ffad 	bl	39459d4 <__bss_end+0x38b9e1c>
   85b24:	ae95e290 	.inst	0xae95e290 ; undefined
   85b28:	9494e2ff 	bl	25be724 <__bss_end+0x2532b6c>
   85b2c:	ffb095e2 	.inst	0xffb095e2 ; undefined
   85b30:	e29894e2 	.inst	0xe29894e2 ; undefined
   85b34:	e2ffaf95 	.inst	0xe2ffaf95 ; undefined
   85b38:	e2ff9c94 	.inst	0xe2ff9c94 ; undefined
   85b3c:	e2ffa494 	.inst	0xe2ffa494 ; undefined
   85b40:	e2ffac94 	.inst	0xe2ffac94 ; undefined
   85b44:	e2ffb494 	.inst	0xe2ffb494 ; undefined
   85b48:	e2ffbc94 	.inst	0xe2ffbc94 ; undefined
   85b4c:	e2ff9196 	.inst	0xe2ff9196 ; undefined
   85b50:	80e2ba8e 	.inst	0x80e2ba8e ; undefined
   85b54:	8ee2ffbe 	.inst	0x8ee2ffbe ; undefined
   85b58:	8ee2ffbb 	.inst	0x8ee2ffbb ; undefined
   85b5c:	8ee2ffbc 	.inst	0x8ee2ffbc ; undefined
   85b60:	95e2ffbd 	bl	7945a54 <__bss_end+0x78b9e9c>
   85b64:	8194e290 	.inst	0x8194e290 ; undefined
   85b68:	9195e2ff 	.inst	0x9195e2ff ; undefined
   85b6c:	ff8394e2 	.inst	0xff8394e2 ; undefined
   85b70:	e29495e2 	.inst	0xe29495e2 ; undefined
   85b74:	e2ff8f94 	.inst	0xe2ff8f94 ; undefined
   85b78:	94e29795 	bl	392b9cc <__bss_end+0x389fe14>
   85b7c:	95e2ff93 	bl	79459c8 <__bss_end+0x78b9e10>
   85b80:	9794e29a 	bl	fffffffffe5be5e8 <__bss_end+0xfffffffffe532a30>
   85b84:	9d95e2ff 	.inst	0x9d95e2ff ; undefined
   85b88:	ff9b94e2 	.inst	0xff9b94e2 ; undefined
   85b8c:	e2a095e2 	.inst	0xe2a095e2 ; undefined
   85b90:	e2ffa394 	.inst	0xe2ffa394 ; undefined
   85b94:	94e2a395 	bl	392e9e8 <__bss_end+0x38a2e30>
   85b98:	95e2ffab 	bl	7945a44 <__bss_end+0x78b9e8c>
   85b9c:	b394e2a6 	.inst	0xb394e2a6 ; undefined
   85ba0:	a995e2ff 	stp	xzr, x24, [x23, #344]!
   85ba4:	ffbb94e2 	.inst	0xffbb94e2 ; undefined
   85ba8:	e2ac95e2 	.inst	0xe2ac95e2 ; undefined
   85bac:	e2ff8b95 	.inst	0xe2ff8b95 ; undefined
   85bb0:	e2ff8896 	.inst	0xe2ff8896 ; undefined
   85bb4:	e2ff9186 	.inst	0xe2ff9186 ; undefined
   85bb8:	e2ff9386 	.inst	0xe2ff9386 ; undefined
   85bbc:	e2ff9086 	.inst	0xe2ff9086 ; undefined
   85bc0:	c3ff9286 	.inst	0xc3ff9286 ; undefined
   85bc4:	a1c3ffa0 	.inst	0xa1c3ffa0 ; undefined
   85bc8:	ffa2c3ff 	.inst	0xffa2c3ff ; undefined
   85bcc:	c3ffa3c3 	.inst	0xc3ffa3c3 ; undefined
   85bd0:	a5c3ffa4 	ld3d	{z4.d-z6.d}, p7/z, [x29, #9, mul vl]
   85bd4:	ffa6c3ff 	.inst	0xffa6c3ff ; undefined
   85bd8:	c3ffa7c3 	.inst	0xc3ffa7c3 ; undefined
   85bdc:	a9c3ffa8 	ldp	x8, xzr, [x29, #56]!
   85be0:	ffaac3ff 	.inst	0xffaac3ff ; undefined
   85be4:	c3ffabc3 	.inst	0xc3ffabc3 ; undefined
   85be8:	adc3ffac 	ldp	q12, q31, [x29, #112]!
   85bec:	ffaec3ff 	.inst	0xffaec3ff ; undefined
   85bf0:	c3ffafc3 	.inst	0xc3ffafc3 ; undefined
   85bf4:	b1c3ffb0 	.inst	0xb1c3ffb0 ; undefined
   85bf8:	ffb2c3ff 	.inst	0xffb2c3ff ; undefined
   85bfc:	c3ffb3c3 	.inst	0xc3ffb3c3 ; undefined
   85c00:	b5c3ffb4 	cbnz	x20, dbf4 <__bss_size+0xd261>
   85c04:	ffb6c3ff 	.inst	0xffb6c3ff ; undefined
   85c08:	c3ffb7c3 	.inst	0xc3ffb7c3 ; undefined
   85c0c:	b9c3ffb8 	.inst	0xb9c3ffb8 ; undefined
   85c10:	ffbac3ff 	.inst	0xffbac3ff ; undefined
   85c14:	c3ffbbc3 	.inst	0xc3ffbbc3 ; undefined
   85c18:	bdc3ffbc 	.inst	0xbdc3ffbc ; undefined
   85c1c:	ffbec3ff 	.inst	0xffbec3ff ; undefined
   85c20:	00ffbfc3 	.inst	0x00ffbfc3 ; undefined
   85c24:	00000000 	udf	#0
   85c28:	6e6b6e75 	umin	v21.8h, v19.8h, v11.8h
   85c2c:	006e776f 	.inst	0x006e776f ; undefined
   85c30:	61746146 	.inst	0x61746146 ; undefined
   85c34:	7245206c 	.inst	0x7245206c ; undefined
   85c38:	3a726f72 	.inst	0x3a726f72 ; undefined
   85c3c:	00000020 	udf	#32
   85c40:	63657845 	.inst	0x63657845 ; undefined
   85c44:	6e697475 	uabd	v21.8h, v3.8h, v9.8h
   85c48:	6f432067 	umlal2	v7.4s, v3.8h, v3.h[0]
   85c4c:	49206572 	.inst	0x49206572 ; undefined
   85c50:	00203a44 	.inst	0x00203a44 ; NYI
   85c54:	00000000 	udf	#0
   85c58:	6c6c6143 	ldnp	d3, d24, [x10, #-320]
   85c5c:	61745320 	.inst	0x61745320 ; undefined
   85c60:	003a6b63 	.inst	0x003a6b63 ; NYI
   85c64:	00000000 	udf	#0
   85c68:	203a2040 	.inst	0x203a2040 ; undefined
   85c6c:	00000000 	udf	#0
   85c70:	00003c20 	udf	#15392
   85c74:	00000000 	udf	#0
   85c78:	0000002b 	udf	#43
   85c7c:	00000000 	udf	#0
   85c80:	0000003e 	udf	#62
   85c84:	00000000 	udf	#0
   85c88:	206e6152 	.inst	0x206e6152 ; undefined
   85c8c:	2074756f 	.inst	0x2074756f ; undefined
   85c90:	4d20666f 	.inst	0x4d20666f ; undefined
   85c94:	726f6d65 	.inst	0x726f6d65 ; undefined
   85c98:	00000079 	udf	#121
   85c9c:	00000000 	udf	#0
   85ca0:	6e6b6e55 	umin	v21.8h, v18.8h, v11.8h
   85ca4:	206e776f 	.inst	0x206e776f ; undefined
   85ca8:	6f727265 	fcmla	v5.8h, v19.8h, v18.h[1], #270
   85cac:	636f2072 	.inst	0x636f2072 ; undefined
   85cb0:	72727563 	.inst	0x72727563 ; undefined
   85cb4:	00006465 	udf	#25701
   85cb8:	2008bbb8 	.inst	0x2008bbb8 ; undefined
   85cbc:	00000000 	udf	#0
   85cc0:	4f495047 	.inst	0x4f495047 ; undefined
   85cc4:	766e6920 	.inst	0x766e6920 ; undefined
   85cc8:	64696c61 	.inst	0x64696c61 ; undefined
	...

Disassembly of section .data:

0000000000085ccd <_funcmap>:
   85ccd:	30303030 	adr	x16, e62d2 <__bss_end+0x5a71a>
   85cd1:	30303030 	adr	x16, e62d6 <__bss_end+0x5a71e>
   85cd5:	38303030 	ldsetb	w16, w16, [x1]
   85cd9:	30303030 	adr	x16, e62de <__bss_end+0x5a726>
   85cdd:	735f3c20 	.inst	0x735f3c20 ; undefined
   85ce1:	74726174 	.inst	0x74726174 ; undefined
   85ce5:	300a3a3e 	adr	x30, 9a42a <__bss_end+0xe872>
   85ce9:	30303030 	adr	x16, e62ee <__bss_end+0x5a736>
   85ced:	30303030 	adr	x16, e62f2 <__bss_end+0x5a73a>
   85cf1:	30383030 	adr	x16, f62f6 <__bss_end+0x6a73e>
   85cf5:	20303530 	.inst	0x20303530 ; undefined
   85cf9:	69616d3c 	ldpsw	x28, x27, [x9, #-248]
   85cfd:	6f635f6e 	.inst	0x6f635f6e ; undefined
   85d01:	325f6572 	.inst	0x325f6572 ; undefined
   85d05:	300a3a3e 	adr	x30, 9a44a <__bss_end+0xe892>
   85d09:	30303030 	adr	x16, e630e <__bss_end+0x5a756>
   85d0d:	30303030 	adr	x16, e6312 <__bss_end+0x5a75a>
   85d11:	30383030 	adr	x16, f6316 <__bss_end+0x6a75e>
   85d15:	20303630 	.inst	0x20303630 ; undefined
   85d19:	69616d3c 	ldpsw	x28, x27, [x9, #-248]
   85d1d:	6f635f6e 	.inst	0x6f635f6e ; undefined
   85d21:	335f6572 	.inst	0x335f6572 ; undefined
   85d25:	300a3a3e 	adr	x30, 9a46a <__bss_end+0xe8b2>
   85d29:	30303030 	adr	x16, e632e <__bss_end+0x5a776>
   85d2d:	30303030 	adr	x16, e6332 <__bss_end+0x5a77a>
   85d31:	30383030 	adr	x16, f6336 <__bss_end+0x6a77e>
   85d35:	20303730 	.inst	0x20303730 ; undefined
   85d39:	69616d3c 	ldpsw	x28, x27, [x9, #-248]
   85d3d:	6f635f6e 	.inst	0x6f635f6e ; undefined
   85d41:	345f6572 	cbz	w18, 1449ed <__bss_end+0xb8e35>
   85d45:	300a3a3e 	adr	x30, 9a48a <__bss_end+0xe8d2>
   85d49:	30303030 	adr	x16, e634e <__bss_end+0x5a796>
   85d4d:	30303030 	adr	x16, e6352 <__bss_end+0x5a79a>
   85d51:	30383030 	adr	x16, f6356 <__bss_end+0x6a79e>
   85d55:	20303830 	.inst	0x20303830 ; undefined
   85d59:	69616d3c 	ldpsw	x28, x27, [x9, #-248]
   85d5d:	0a3a3e6e 	bic	w14, w19, w26, lsl #15
   85d61:	30303030 	adr	x16, e6366 <__bss_end+0x5a7ae>
   85d65:	30303030 	adr	x16, e636a <__bss_end+0x5a7b2>
   85d69:	38303030 	ldsetb	w16, w16, [x1]
   85d6d:	30373530 	adr	x16, f4412 <__bss_end+0x6885a>
   85d71:	475f3c20 	.inst	0x475f3c20 ; undefined
   85d75:	41424f4c 	.inst	0x41424f4c ; undefined
   85d79:	735f5f4c 	.inst	0x735f5f4c ; undefined
   85d7d:	495f6275 	.inst	0x495f6275 ; undefined
   85d81:	69616d5f 	ldpsw	xzr, x27, [x10, #-248]
   85d85:	0a3a3e6e 	bic	w14, w19, w26, lsl #15
   85d89:	30303030 	adr	x16, e638e <__bss_end+0x5a7d6>
   85d8d:	30303030 	adr	x16, e6392 <__bss_end+0x5a7da>
   85d91:	38303030 	ldsetb	w16, w16, [x1]
   85d95:	30383530 	adr	x16, f643a <__bss_end+0x6a882>
   85d99:	5a5f3c20 	.inst	0x5a5f3c20 ; undefined
   85d9d:	5234314e 	eor	w14, w10, #0x1fff000
   85da1:	614d4950 	.inst	0x614d4950 ; undefined
   85da5:	6e696863 	.inst	0x6e696863 ; undefined
   85da9:	666e4965 	.inst	0x666e4965 ; undefined
   85dad:	4531436f 	.inst	0x4531436f ; undefined
   85db1:	0a3a3e76 	bic	w22, w19, w26, lsl #15
   85db5:	30303030 	adr	x16, e63ba <__bss_end+0x5a802>
   85db9:	30303030 	adr	x16, e63be <__bss_end+0x5a806>
   85dbd:	38303030 	ldsetb	w16, w16, [x1]
   85dc1:	30623530 	adr	x16, 14a466 <__bss_end+0xbe8ae>
   85dc5:	5a5f3c20 	.inst	0x5a5f3c20 ; undefined
   85dc9:	5330314e 	.inst	0x5330314e ; undefined
   85dcd:	6b636174 	.inst	0x6b636174 ; undefined
   85dd1:	63617274 	.inst	0x63617274 ; undefined
   85dd5:	45314365 	.inst	0x45314365 ; undefined
   85dd9:	0a3a3e76 	bic	w22, w19, w26, lsl #15
   85ddd:	30303030 	adr	x16, e63e2 <__bss_end+0x5a82a>
   85de1:	30303030 	adr	x16, e63e6 <__bss_end+0x5a82e>
   85de5:	38303030 	ldsetb	w16, w16, [x1]
   85de9:	30343630 	adr	x16, ee4ae <__bss_end+0x628f6>
   85ded:	5a5f3c20 	.inst	0x5a5f3c20 ; undefined
   85df1:	6e693431 	cmhi	v17.8h, v1.8h, v9.8h
   85df5:	79537469 	ldrh	w9, [x3, #2490]
   85df9:	6d657473 	ldp	d19, d29, [x3, #-432]
   85dfd:	6f666e49 	.inst	0x6f666e49 ; undefined
   85e01:	0a3a3e76 	bic	w22, w19, w26, lsl #15
   85e05:	30303030 	adr	x16, e640a <__bss_end+0x5a852>
   85e09:	30303030 	adr	x16, e640e <__bss_end+0x5a856>
   85e0d:	38303030 	ldsetb	w16, w16, [x1]
   85e11:	30383630 	adr	x16, f64d6 <__bss_end+0x6a91e>
   85e15:	5a5f3c20 	.inst	0x5a5f3c20 ; undefined
   85e19:	65673331 	fmls	z17.h, p4/m, z25.h, z7.h
   85e1d:	73795374 	.inst	0x73795374 ; undefined
   85e21:	496d6574 	.inst	0x496d6574 ; undefined
   85e25:	766f666e 	.inst	0x766f666e ; undefined
   85e29:	300a3a3e 	adr	x30, 9a56e <__bss_end+0xe9b6>
   85e2d:	30303030 	adr	x16, e6432 <__bss_end+0x5a87a>
   85e31:	30303030 	adr	x16, e6436 <__bss_end+0x5a87e>
   85e35:	30383030 	adr	x16, f643a <__bss_end+0x6a882>
   85e39:	20306136 	.inst	0x20306136 ; undefined
   85e3d:	395a5f3c 	ldrb	w28, [x25, #1687]
   85e41:	43746567 	.inst	0x43746567 ; undefined
   85e45:	4965726f 	.inst	0x4965726f ; undefined
   85e49:	3a3e7664 	.inst	0x3a3e7664 ; undefined
   85e4d:	3030300a 	adr	x10, e644e <__bss_end+0x5a896>
   85e51:	30303030 	adr	x16, e6456 <__bss_end+0x5a89e>
   85e55:	30303030 	adr	x16, e645a <__bss_end+0x5a8a2>
   85e59:	62363038 	.inst	0x62363038 ; undefined
   85e5d:	5f3c2030 	.inst	0x5f3c2030 ; undefined
   85e61:	33314e5a 	.inst	0x33314e5a ; undefined
   85e65:	636e7546 	.inst	0x636e7546 ; undefined
   85e69:	6e6f6974 	.inst	0x6e6f6974 ; undefined
   85e6d:	6562614c 	fnmls	z12.h, p0/m, z10.h, z2.h
   85e71:	4531436c 	.inst	0x4531436c ; undefined
   85e75:	0a3a3e76 	bic	w22, w19, w26, lsl #15
   85e79:	30303030 	adr	x16, e647e <__bss_end+0x5a8c6>
   85e7d:	30303030 	adr	x16, e6482 <__bss_end+0x5a8ca>
   85e81:	38303030 	ldsetb	w16, w16, [x1]
   85e85:	30303730 	adr	x16, e656a <__bss_end+0x5a9b2>
   85e89:	5a5f3c20 	.inst	0x5a5f3c20 ; undefined
   85e8d:	4633314e 	.inst	0x4633314e ; undefined
   85e91:	74636e75 	.inst	0x74636e75 ; undefined
   85e95:	4c6e6f69 	.inst	0x4c6e6f69 ; undefined
   85e99:	6c656261 	ldnp	d1, d24, [x19, #-432]
   85e9d:	6a453143 	ands	w3, w10, w5, lsr #12
   85ea1:	300a3a3e 	adr	x30, 9a5e6 <__bss_end+0xea2e>
   85ea5:	30303030 	adr	x16, e64aa <__bss_end+0x5a8f2>
   85ea9:	30303030 	adr	x16, e64ae <__bss_end+0x5a8f6>
   85ead:	30383030 	adr	x16, f64b2 <__bss_end+0x6a8fa>
   85eb1:	20306138 	.inst	0x20306138 ; undefined
   85eb5:	6572663c 	fnmls	z28.h, p1/m, z17.h, z18.h
   85eb9:	0a3a3e65 	bic	w5, w19, w26, lsl #15
   85ebd:	30303030 	adr	x16, e64c2 <__bss_end+0x5a90a>
   85ec1:	30303030 	adr	x16, e64c6 <__bss_end+0x5a90e>
   85ec5:	38303030 	ldsetb	w16, w16, [x1]
   85ec9:	30623830 	adr	x16, 14a5ce <__bss_end+0xbea16>
   85ecd:	5a5f3c20 	.inst	0x5a5f3c20 ; undefined
   85ed1:	65733032 	fmls	z18.h, p4/m, z1.h, z19.h
   85ed5:	73795374 	.inst	0x73795374 ; undefined
   85ed9:	466d6574 	.inst	0x466d6574 ; undefined
   85edd:	656d6172 	fnmls	z18.h, p0/m, z11.h, z13.h
   85ee1:	66667562 	.inst	0x66667562 ; undefined
   85ee5:	31317265 	adds	w5, w19, #0xc5c
   85ee9:	6d617246 	ldp	d6, d28, [x18, #-496]
   85eed:	66756265 	.inst	0x66756265 ; undefined
   85ef1:	3e726566 	.inst	0x3e726566 ; undefined
   85ef5:	30300a3a 	adr	x26, e603a <__bss_end+0x5a482>
   85ef9:	30303030 	adr	x16, e64fe <__bss_end+0x5a946>
   85efd:	30303030 	adr	x16, e6502 <__bss_end+0x5a94a>
   85f01:	38303830 	.inst	0x38303830 ; undefined
   85f05:	3c203063 	.inst	0x3c203063 ; undefined
   85f09:	30325a5f 	adr	xzr, eaa52 <__bss_end+0x5ee9a>
   85f0d:	53746567 	.inst	0x53746567 ; undefined
   85f11:	65747379 	fnmls	z25.h, p4/m, z27.h, z20.h
   85f15:	6172466d 	.inst	0x6172466d ; undefined
   85f19:	7562656d 	.inst	0x7562656d ; undefined
   85f1d:	72656666 	.inst	0x72656666 ; undefined
   85f21:	0a3a3e76 	bic	w22, w19, w26, lsl #15
   85f25:	30303030 	adr	x16, e652a <__bss_end+0x5a972>
   85f29:	30303030 	adr	x16, e652e <__bss_end+0x5a976>
   85f2d:	38303030 	ldsetb	w16, w16, [x1]
   85f31:	30643830 	adr	x16, 14e636 <__bss_end+0xc2a7e>
   85f35:	5a5f3c20 	.inst	0x5a5f3c20 ; undefined
   85f39:	61726335 	.inst	0x61726335 ; undefined
   85f3d:	53366873 	.inst	0x53366873 ; undefined
   85f41:	6e697274 	uabdl2	v20.4s, v19.8h, v9.8h
   85f45:	0a3a3e67 	bic	w7, w19, w26, lsl #15
   85f49:	30303030 	adr	x16, e654e <__bss_end+0x5a996>
   85f4d:	30303030 	adr	x16, e6552 <__bss_end+0x5a99a>
   85f51:	38303030 	ldsetb	w16, w16, [x1]
   85f55:	30346330 	adr	x16, eebba <__bss_end+0x63002>
   85f59:	616d3c20 	.inst	0x616d3c20 ; undefined
   85f5d:	636f6c6c 	.inst	0x636f6c6c ; undefined
   85f61:	300a3a3e 	adr	x30, 9a6a6 <__bss_end+0xeaee>
   85f65:	30303030 	adr	x16, e656a <__bss_end+0x5a9b2>
   85f69:	30303030 	adr	x16, e656e <__bss_end+0x5a9b6>
   85f6d:	30383030 	adr	x16, f6572 <__bss_end+0x6a9ba>
   85f71:	20306563 	.inst	0x20306563 ; undefined
   85f75:	355a5f3c 	cbnz	w28, 13ab59 <__bss_end+0xaefa1>
   85f79:	73617263 	.inst	0x73617263 ; undefined
   85f7d:	3a3e7668 	.inst	0x3a3e7668 ; undefined
   85f81:	3030300a 	adr	x10, e6582 <__bss_end+0x5a9ca>
   85f85:	30303030 	adr	x16, e658a <__bss_end+0x5a9d2>
   85f89:	30303030 	adr	x16, e658e <__bss_end+0x5a9d6>
   85f8d:	30643038 	adr	x24, 14e592 <__bss_end+0xc29da>
   85f91:	5f3c2030 	.inst	0x5f3c2030 ; undefined
   85f95:	616d355a 	.inst	0x616d355a ; undefined
   85f99:	6a636967 	bics	w7, w11, w3, lsr #26
   85f9d:	300a3a3e 	adr	x30, 9a6e2 <__bss_end+0xeb2a>
   85fa1:	30303030 	adr	x16, e65a6 <__bss_end+0x5a9ee>
   85fa5:	30303030 	adr	x16, e65aa <__bss_end+0x5a9f2>
   85fa9:	30383030 	adr	x16, f65ae <__bss_end+0x6a9f6>
   85fad:	20303164 	.inst	0x20303164 ; undefined
   85fb1:	6d656d3c 	ldp	d28, d27, [x9, #-432]
   85fb5:	3e797063 	.inst	0x3e797063 ; undefined
   85fb9:	30300a3a 	adr	x26, e60fe <__bss_end+0x5a546>
   85fbd:	30303030 	adr	x16, e65c2 <__bss_end+0x5aa0a>
   85fc1:	30303030 	adr	x16, e65c6 <__bss_end+0x5aa0e>
   85fc5:	65303830 	.inst	0x65303830 ; undefined
   85fc9:	3c203030 	.inst	0x3c203030 ; undefined
   85fcd:	4f4c475f 	.inst	0x4f4c475f ; undefined
   85fd1:	5f4c4142 	.inst	0x5f4c4142 ; undefined
   85fd5:	6275735f 	.inst	0x6275735f ; undefined
   85fd9:	5f5f495f 	.inst	0x5f5f495f ; undefined
   85fdd:	34314e5a 	cbz	w26, e89a5 <__bss_end+0x5cded>
   85fe1:	4d495052 	.inst	0x4d495052 ; undefined
   85fe5:	69686361 	ldpsw	x1, x24, [x27, #-192]
   85fe9:	6e49656e 	.inst	0x6e49656e ; undefined
   85fed:	32436f66 	.inst	0x32436f66 ; undefined
   85ff1:	3a3e7645 	.inst	0x3a3e7645 ; undefined
   85ff5:	3030300a 	adr	x10, e65f6 <__bss_end+0x5aa3e>
   85ff9:	30303030 	adr	x16, e65fe <__bss_end+0x5aa46>
   85ffd:	30303030 	adr	x16, e6602 <__bss_end+0x5aa4a>
   86001:	36653038 	tbz	w24, #12, 80605 <_ZN10StacktraceC1Ev+0x55>
   86005:	5f3c2030 	.inst	0x5f3c2030 ; undefined
   86009:	6d33315a 	stp	d26, d12, [x10, #-208]
   8600d:	75736165 	.inst	0x75736165 ; undefined
   86011:	74536572 	.inst	0x74536572 ; undefined
   86015:	676e6972 	.inst	0x676e6972 ; undefined
   86019:	3a3e6350 	.inst	0x3a3e6350 ; undefined
   8601d:	3030300a 	adr	x10, e661e <__bss_end+0x5aa66>
   86021:	30303030 	adr	x16, e6626 <__bss_end+0x5aa6e>
   86025:	30303030 	adr	x16, e662a <__bss_end+0x5aa72>
   86029:	39653038 	ldrb	w24, [x1, #2380]
   8602d:	5f3c2030 	.inst	0x5f3c2030 ; undefined
   86031:	53364e5a 	.inst	0x53364e5a ; undefined
   86035:	6e697274 	uabdl2	v20.4s, v19.8h, v9.8h
   86039:	45314467 	.inst	0x45314467 ; undefined
   8603d:	0a3a3e76 	bic	w22, w19, w26, lsl #15
   86041:	30303030 	adr	x16, e6646 <__bss_end+0x5aa8e>
   86045:	30303030 	adr	x16, e664a <__bss_end+0x5aa92>
   86049:	38303030 	ldsetb	w16, w16, [x1]
   8604d:	30626530 	adr	x16, 14acf2 <__bss_end+0xbf13a>
   86051:	5a5f3c20 	.inst	0x5a5f3c20 ; undefined
   86055:	7453364e 	.inst	0x7453364e ; undefined
   86059:	676e6972 	.inst	0x676e6972 ; undefined
   8605d:	69453143 	ldpsw	x3, x12, [x10, #40]
   86061:	300a3a3e 	adr	x30, 9a7a6 <__bss_end+0xebee>
   86065:	30303030 	adr	x16, e666a <__bss_end+0x5aab2>
   86069:	30303030 	adr	x16, e666e <__bss_end+0x5aab6>
   8606d:	30383030 	adr	x16, f6672 <__bss_end+0x6aaba>
   86071:	20303066 	.inst	0x20303066 ; undefined
   86075:	4e5a5f3c 	.inst	0x4e5a5f3c ; undefined
   86079:	72745336 	.inst	0x72745336 ; undefined
   8607d:	43676e69 	.inst	0x43676e69 ; undefined
   86081:	4b524531 	sub	w17, w9, w18, lsr #17
   86085:	3a3e5f53 	.inst	0x3a3e5f53 ; undefined
   86089:	3030300a 	adr	x10, e668a <__bss_end+0x5aad2>
   8608d:	30303030 	adr	x16, e6692 <__bss_end+0x5aada>
   86091:	30303030 	adr	x16, e6696 <__bss_end+0x5aade>
   86095:	61663038 	.inst	0x61663038 ; undefined
   86099:	5f3c2030 	.inst	0x5f3c2030 ; undefined
   8609d:	53364e5a 	.inst	0x53364e5a ; undefined
   860a1:	6e697274 	uabdl2	v20.4s, v19.8h, v9.8h
   860a5:	45314367 	.inst	0x45314367 ; undefined
   860a9:	0a3a3e76 	bic	w22, w19, w26, lsl #15
   860ad:	30303030 	adr	x16, e66b2 <__bss_end+0x5aafa>
   860b1:	30303030 	adr	x16, e66b6 <__bss_end+0x5aafe>
   860b5:	38303030 	ldsetb	w16, w16, [x1]
   860b9:	30626630 	adr	x16, 14ad7e <__bss_end+0xbf1c6>
   860bd:	5a5f3c20 	.inst	0x5a5f3c20 ; undefined
   860c1:	7453364e 	.inst	0x7453364e ; undefined
   860c5:	676e6972 	.inst	0x676e6972 ; undefined
   860c9:	50453143 	adr	x3, 1106f3 <__bss_end+0x84b3b>
   860cd:	3a3e634b 	.inst	0x3a3e634b ; undefined
   860d1:	3030300a 	adr	x10, e66d2 <__bss_end+0x5ab1a>
   860d5:	30303030 	adr	x16, e66da <__bss_end+0x5ab22>
   860d9:	30303030 	adr	x16, e66de <__bss_end+0x5ab26>
   860dd:	64663038 	.inst	0x64663038 ; undefined
   860e1:	5f3c2030 	.inst	0x5f3c2030 ; undefined
   860e5:	53364e5a 	.inst	0x53364e5a ; undefined
   860e9:	6e697274 	uabdl2	v20.4s, v19.8h, v9.8h
   860ed:	45314367 	.inst	0x45314367 ; undefined
   860f1:	69634b50 	ldpsw	x16, x18, [x26, #-232]
   860f5:	300a3a3e 	adr	x30, 9a83a <__bss_end+0xec82>
   860f9:	30303030 	adr	x16, e66fe <__bss_end+0x5ab46>
   860fd:	30303030 	adr	x16, e6702 <__bss_end+0x5ab4a>
   86101:	30383030 	adr	x16, f6706 <__bss_end+0x6ab4e>
   86105:	20306566 	.inst	0x20306566 ; undefined
   86109:	4e5a5f3c 	.inst	0x4e5a5f3c ; undefined
   8610d:	72745336 	.inst	0x72745336 ; undefined
   86111:	70676e69 	adr	x9, 154ee0 <__bss_end+0xc9328>
   86115:	5f53456c 	.inst	0x5f53456c ; undefined
   86119:	300a3a3e 	adr	x30, 9a85e <__bss_end+0xeca6>
   8611d:	30303030 	adr	x16, e6722 <__bss_end+0x5ab6a>
   86121:	30303030 	adr	x16, e6726 <__bss_end+0x5ab6e>
   86125:	31383030 	adds	w16, w1, #0xe0c
   86129:	20303131 	.inst	0x20303131 ; undefined
   8612d:	4e5a5f3c 	.inst	0x4e5a5f3c ; undefined
   86131:	72745336 	.inst	0x72745336 ; undefined
   86135:	39676e69 	ldrb	w9, [x19, #2523]
   86139:	4c746547 	.inst	0x4c746547 ; undefined
   8613d:	74676e65 	.inst	0x74676e65 ; undefined
   86141:	3e764568 	.inst	0x3e764568 ; undefined
   86145:	30300a3a 	adr	x26, e628a <__bss_end+0x5a6d2>
   86149:	30303030 	adr	x16, e674e <__bss_end+0x5ab96>
   8614d:	30303030 	adr	x16, e6752 <__bss_end+0x5ab9a>
   86151:	31313830 	adds	w16, w1, #0xc4e
   86155:	3c203036 	.inst	0x3c203036 ; undefined
   86159:	364e5a5f 	tbz	wzr, #9, 82ca1 <_ZN7Mailbox18AddRequestPropertyEjj+0x21>
   8615d:	69727453 	ldpsw	x19, x29, [x2, #-112]
   86161:	5236676e 	eor	w14, w27, #0xfffffc0f
   86165:	766f6d65 	.inst	0x766f6d65 ; undefined
   86169:	3e694565 	.inst	0x3e694565 ; undefined
   8616d:	30300a3a 	adr	x26, e62b2 <__bss_end+0x5a6fa>
   86171:	30303030 	adr	x16, e6776 <__bss_end+0x5abbe>
   86175:	30303030 	adr	x16, e677a <__bss_end+0x5abc2>
   86179:	31313830 	adds	w16, w1, #0xc4e
   8617d:	3c203038 	.inst	0x3c203038 ; undefined
   86181:	364e5a5f 	tbz	wzr, #9, 82cc9 <_ZN7Mailbox18AddRequestPropertyEjj+0x49>
   86185:	69727453 	ldpsw	x19, x29, [x2, #-112]
   86189:	5339676e 	.inst	0x5339676e ; undefined
   8618d:	74736275 	.inst	0x74736275 ; undefined
   86191:	676e6972 	.inst	0x676e6972 ; undefined
   86195:	3a3e6945 	.inst	0x3a3e6945 ; undefined
   86199:	3030300a 	adr	x10, e679a <__bss_end+0x5abe2>
   8619d:	30303030 	adr	x16, e67a2 <__bss_end+0x5abea>
   861a1:	30303030 	adr	x16, e67a6 <__bss_end+0x5abee>
   861a5:	66313138 	.inst	0x66313138 ; undefined
   861a9:	5f3c2030 	.inst	0x5f3c2030 ; undefined
   861ad:	53364e5a 	.inst	0x53364e5a ; undefined
   861b1:	6e697274 	uabdl2	v20.4s, v19.8h, v9.8h
   861b5:	75533967 	.inst	0x75533967 ; undefined
   861b9:	72747362 	.inst	0x72747362 ; undefined
   861bd:	45676e69 	raddhnt	z9.b, z19.h, z7.h
   861c1:	3a3e6969 	.inst	0x3a3e6969 ; undefined
   861c5:	3030300a 	adr	x10, e67c6 <__bss_end+0x5ac0e>
   861c9:	30303030 	adr	x16, e67ce <__bss_end+0x5ac16>
   861cd:	30303030 	adr	x16, e67d2 <__bss_end+0x5ac1a>
   861d1:	31323138 	adds	w24, w9, #0xc8c
   861d5:	5f3c2030 	.inst	0x5f3c2030 ; undefined
   861d9:	53364e5a 	.inst	0x53364e5a ; undefined
   861dd:	6e697274 	uabdl2	v20.4s, v19.8h, v9.8h
   861e1:	6f543867 	fcmla	v7.8h, v3.8h, v20.h[2], #90
   861e5:	746e4955 	.inst	0x746e4955 ; undefined
   861e9:	32453436 	.inst	0x32453436 ; undefined
   861ed:	72745332 	.inst	0x72745332 ; undefined
   861f1:	43676e69 	.inst	0x43676e69 ; undefined
   861f5:	65766e6f 	fnmls	z15.h, p3/m, z19.h, z22.h
   861f9:	6f697372 	fcmla	v18.8h, v27.8h, v9.h[1], #270
   861fd:	726f466e 	.inst	0x726f466e ; undefined
   86201:	3e74616d 	.inst	0x3e74616d ; undefined
   86205:	30300a3a 	adr	x26, e634a <__bss_end+0x5a792>
   86209:	30303030 	adr	x16, e680e <__bss_end+0x5ac56>
   8620d:	30303030 	adr	x16, e6812 <__bss_end+0x5ac5a>
   86211:	33313830 	.inst	0x33313830 ; undefined
   86215:	3c203061 	.inst	0x3c203061 ; undefined
   86219:	34315a5f 	cbz	wzr, e8d61 <__bss_end+0x5d1a9>
   8621d:	73726150 	.inst	0x73726150 ; undefined
   86221:	746e4965 	.inst	0x746e4965 ; undefined
   86225:	616e6942 	.inst	0x616e6942 ; undefined
   86229:	696a7972 	ldpsw	x18, x30, [x11, #-176]
   8622d:	300a3a3e 	adr	x30, 9a972 <__bss_end+0xedba>
   86231:	30303030 	adr	x16, e6836 <__bss_end+0x5ac7e>
   86235:	30303030 	adr	x16, e683a <__bss_end+0x5ac82>
   86239:	31383030 	adds	w16, w1, #0xe0c
   8623d:	20303434 	.inst	0x20303434 ; undefined
   86241:	315a5f3c 	adds	w28, w25, #0x697, lsl #12
   86245:	72615031 	.inst	0x72615031 ; undefined
   86249:	6e496573 	.inst	0x6e496573 ; undefined
   8624d:	78654874 	ldrh	w20, [x3, w5, uxtw]
   86251:	3a3e696a 	.inst	0x3a3e696a ; undefined
   86255:	3030300a 	adr	x10, e6856 <__bss_end+0x5ac9e>
   86259:	30303030 	adr	x16, e685e <__bss_end+0x5aca6>
   8625d:	30303030 	adr	x16, e6862 <__bss_end+0x5acaa>
   86261:	30353138 	adr	x24, f0886 <__bss_end+0x64cce>
   86265:	5f3c2030 	.inst	0x5f3c2030 ; undefined
   86269:	53364e5a 	.inst	0x53364e5a ; undefined
   8626d:	6e697274 	uabdl2	v20.4s, v19.8h, v9.8h
   86271:	61503867 	.inst	0x61503867 ; undefined
   86275:	49657372 	.inst	0x49657372 ; undefined
   86279:	6945746e 	ldpsw	x14, x29, [x3, #40]
   8627d:	74533232 	.inst	0x74533232 ; undefined
   86281:	676e6972 	.inst	0x676e6972 ; undefined
   86285:	766e6f43 	.inst	0x766e6f43 ; undefined
   86289:	69737265 	ldpsw	x5, x28, [x19, #-104]
   8628d:	6f466e6f 	.inst	0x6f466e6f ; undefined
   86291:	74616d72 	.inst	0x74616d72 ; undefined
   86295:	300a3a3e 	adr	x30, 9a9da <__bss_end+0xee22>
   86299:	30303030 	adr	x16, e689e <__bss_end+0x5ace6>
   8629d:	30303030 	adr	x16, e68a2 <__bss_end+0x5acea>
   862a1:	31383030 	adds	w16, w1, #0xe0c
   862a5:	20303837 	.inst	0x20303837 ; undefined
   862a9:	4e5a5f3c 	.inst	0x4e5a5f3c ; undefined
   862ad:	72745336 	.inst	0x72745336 ; undefined
   862b1:	38676e69 	.inst	0x38676e69 ; undefined
   862b5:	73726150 	.inst	0x73726150 ; undefined
   862b9:	746e4965 	.inst	0x746e4965 ; undefined
   862bd:	32326a45 	orr	w5, w18, #0xffffc1ff
   862c1:	69727453 	ldpsw	x19, x29, [x2, #-112]
   862c5:	6f43676e 	sqshlu	v14.2d, v27.2d, #3
   862c9:	7265766e 	.inst	0x7265766e ; undefined
   862cd:	6e6f6973 	.inst	0x6e6f6973 ; undefined
   862d1:	6d726f46 	ldp	d6, d27, [x26, #-224]
   862d5:	3a3e7461 	.inst	0x3a3e7461 ; undefined
   862d9:	3030300a 	adr	x10, e68da <__bss_end+0x5ad22>
   862dd:	30303030 	adr	x16, e68e2 <__bss_end+0x5ad2a>
   862e1:	30303030 	adr	x16, e68e6 <__bss_end+0x5ad2e>
   862e5:	66393138 	.inst	0x66393138 ; undefined
   862e9:	5f3c2030 	.inst	0x5f3c2030 ; undefined
   862ed:	5035315a 	adr	x26, f0917 <__bss_end+0x64d5f>
   862f1:	65737261 	fnmls	z1.h, p4/m, z19.h, z19.h
   862f5:	676e6f4c 	.inst	0x676e6f4c ; undefined
   862f9:	616e6942 	.inst	0x616e6942 ; undefined
   862fd:	696d7972 	ldpsw	x18, x30, [x11, #-152]
   86301:	300a3a3e 	adr	x30, 9aa46 <__bss_end+0xee8e>
   86305:	30303030 	adr	x16, e690a <__bss_end+0x5ad52>
   86309:	30303030 	adr	x16, e690e <__bss_end+0x5ad56>
   8630d:	31383030 	adds	w16, w1, #0xe0c
   86311:	20303961 	.inst	0x20303961 ; undefined
   86315:	315a5f3c 	adds	w28, w25, #0x697, lsl #12
   86319:	72615032 	.inst	0x72615032 ; undefined
   8631d:	6f4c6573 	sqshlu	v19.2d, v11.2d, #12
   86321:	6548676e 	fcmeq	p14.h, p1/z, z27.h, z8.h
   86325:	3e696d78 	.inst	0x3e696d78 ; undefined
   86329:	30300a3a 	adr	x26, e646e <__bss_end+0x5a8b6>
   8632d:	30303030 	adr	x16, e6932 <__bss_end+0x5ad7a>
   86331:	30303030 	adr	x16, e6936 <__bss_end+0x5ad7e>
   86335:	62313830 	.inst	0x62313830 ; undefined
   86339:	3c203035 	.inst	0x3c203035 ; undefined
   8633d:	364e5a5f 	tbz	wzr, #9, 82e85 <_ZN7Mailbox18AddRequestPropertyEjjjjj+0x85>
   86341:	69727453 	ldpsw	x19, x29, [x2, #-112]
   86345:	5039676e 	adr	x14, f9033 <__bss_end+0x6d47b>
   86349:	65737261 	fnmls	z1.h, p4/m, z19.h, z19.h
   8634d:	676e6f4c 	.inst	0x676e6f4c ; undefined
   86351:	32326c45 	orr	w5, w2, #0xffffc3ff
   86355:	69727453 	ldpsw	x19, x29, [x2, #-112]
   86359:	6f43676e 	sqshlu	v14.2d, v27.2d, #3
   8635d:	7265766e 	.inst	0x7265766e ; undefined
   86361:	6e6f6973 	.inst	0x6e6f6973 ; undefined
   86365:	6d726f46 	ldp	d6, d27, [x26, #-224]
   86369:	3e697461 	.inst	0x3e697461 ; undefined
   8636d:	30300a3a 	adr	x26, e64b2 <__bss_end+0x5a8fa>
   86371:	30303030 	adr	x16, e6976 <__bss_end+0x5adbe>
   86375:	30303030 	adr	x16, e697a <__bss_end+0x5adc2>
   86379:	64313830 	.inst	0x64313830 ; undefined
   8637d:	3c203039 	.inst	0x3c203039 ; undefined
   86381:	364e5a5f 	tbz	wzr, #9, 82ec9 <_ZN7Mailbox4PackEv+0x19>
   86385:	69727453 	ldpsw	x19, x29, [x2, #-112]
   86389:	5039676e 	adr	x14, f9077 <__bss_end+0x6d4bf>
   8638d:	65737261 	fnmls	z1.h, p4/m, z19.h, z19.h
   86391:	676e6f4c 	.inst	0x676e6f4c ; undefined
   86395:	32326d45 	orr	w5, w10, #0xffffc3ff
   86399:	69727453 	ldpsw	x19, x29, [x2, #-112]
   8639d:	6f43676e 	sqshlu	v14.2d, v27.2d, #3
   863a1:	7265766e 	.inst	0x7265766e ; undefined
   863a5:	6e6f6973 	.inst	0x6e6f6973 ; undefined
   863a9:	6d726f46 	ldp	d6, d27, [x26, #-224]
   863ad:	3e697461 	.inst	0x3e697461 ; undefined
   863b1:	30300a3a 	adr	x26, e64f6 <__bss_end+0x5a93e>
   863b5:	30303030 	adr	x16, e69ba <__bss_end+0x5ae02>
   863b9:	30303030 	adr	x16, e69be <__bss_end+0x5ae06>
   863bd:	66313830 	.inst	0x66313830 ; undefined
   863c1:	3c203061 	.inst	0x3c203061 ; undefined
   863c5:	384e5a5f 	ldtrb	wzr, [x18, #229]
   863c9:	656d6954 	fnmls	z20.h, p2/m, z10.h, z13.h
   863cd:	6e617053 	uabdl2	v19.4s, v2.8h, v1.8h
   863d1:	6d453143 	ldp	d3, d12, [x10, #80]
   863d5:	300a3a3e 	adr	x30, 9ab1a <__bss_end+0xef62>
   863d9:	30303030 	adr	x16, e69de <__bss_end+0x5ae26>
   863dd:	30303030 	adr	x16, e69e2 <__bss_end+0x5ae2a>
   863e1:	31383030 	adds	w16, w1, #0xe0c
   863e5:	20306266 	.inst	0x20306266 ; undefined
   863e9:	4e5a5f3c 	.inst	0x4e5a5f3c ; undefined
   863ed:	6d695438 	ldp	d24, d21, [x1, #-368]
   863f1:	61705365 	.inst	0x61705365 ; undefined
   863f5:	4531436e 	.inst	0x4531436e ; undefined
   863f9:	6954386d 	ldpsw	x13, x14, [x3, #160]
   863fd:	6e55656d 	.inst	0x6e55656d ; undefined
   86401:	3a3e7469 	.inst	0x3a3e7469 ; undefined
   86405:	3030300a 	adr	x10, e6a06 <__bss_end+0x5ae4e>
   86409:	30303030 	adr	x16, e6a0e <__bss_end+0x5ae56>
   8640d:	30303030 	adr	x16, e6a12 <__bss_end+0x5ae5a>
   86411:	62303238 	.inst	0x62303238 ; undefined
   86415:	5f3c2030 	.inst	0x5f3c2030 ; undefined
   86419:	54384e5a 	.inst	0x54384e5a ; undefined
   8641d:	53656d69 	.inst	0x53656d69 ; undefined
   86421:	316e6170 	adds	w16, w11, #0xb98, lsl #12
   86425:	74654734 	.inst	0x74654734 ; undefined
   86429:	72727543 	.inst	0x72727543 ; undefined
   8642d:	54746e65 	b.pl	16f1f9 <__bss_end+0xe3641>  // b.nfrst
   86431:	45656d69 	raddhnt	z9.b, z11.h, z5.h
   86435:	0a3a3e76 	bic	w22, w19, w26, lsl #15
   86439:	30303030 	adr	x16, e6a3e <__bss_end+0x5ae86>
   8643d:	30303030 	adr	x16, e6a42 <__bss_end+0x5ae8a>
   86441:	38303030 	ldsetb	w16, w16, [x1]
   86445:	30643032 	adr	x18, 14ea4a <__bss_end+0xc2e92>
   86449:	5a5f3c20 	.inst	0x5a5f3c20 ; undefined
   8644d:	6954384e 	.inst	0x6954384e ; undefined
   86451:	7053656d 	adr	x13, 12d100 <__bss_end+0xa1548>
   86455:	53386e61 	.inst	0x53386e61 ; undefined
   86459:	576e6970 	.inst	0x576e6970 ; undefined
   8645d:	45746961 	raddhnb	z1.b, z11.h, z20.h
   86461:	0a3a3e76 	bic	w22, w19, w26, lsl #15
   86465:	30303030 	adr	x16, e6a6a <__bss_end+0x5aeb2>
   86469:	30303030 	adr	x16, e6a6e <__bss_end+0x5aeb6>
   8646d:	38303030 	ldsetb	w16, w16, [x1]
   86471:	30313132 	adr	x18, e8a96 <__bss_end+0x5cede>
   86475:	5a5f3c20 	.inst	0x5a5f3c20 ; undefined
   86479:	5350384e 	.inst	0x5350384e ; undefined
   8647d:	6f463246 	fcmla	v6.8h, v18.8h, v6.h[0], #90
   86481:	3143746e 	adds	w14, w3, #0xdd, lsl #12
   86485:	3e635045 	.inst	0x3e635045 ; undefined
   86489:	30300a3a 	adr	x26, e65ce <__bss_end+0x5aa16>
   8648d:	30303030 	adr	x16, e6a92 <__bss_end+0x5aeda>
   86491:	30303030 	adr	x16, e6a96 <__bss_end+0x5aede>
   86495:	31323830 	adds	w16, w1, #0xc8e
   86499:	3c203038 	.inst	0x3c203038 ; undefined
   8649d:	384e5a5f 	ldtrb	wzr, [x18, #229]
   864a1:	32465350 	.inst	0x32465350 ; undefined
   864a5:	746e6f46 	.inst	0x746e6f46 ; undefined
   864a9:	76453143 	.inst	0x76453143 ; undefined
   864ad:	300a3a3e 	adr	x30, 9abf2 <__bss_end+0xf03a>
   864b1:	30303030 	adr	x16, e6ab6 <__bss_end+0x5aefe>
   864b5:	30303030 	adr	x16, e6aba <__bss_end+0x5af02>
   864b9:	32383030 	orr	w16, w1, #0x1fff00
   864bd:	20303931 	.inst	0x20303931 ; undefined
   864c1:	4e5a5f3c 	.inst	0x4e5a5f3c ; undefined
   864c5:	46535038 	.inst	0x46535038 ; undefined
   864c9:	6e6f4632 	ushl	v18.8h, v17.8h, v15.8h
   864cd:	48373174 	.inst	0x48373174 ; undefined
   864d1:	68437361 	.inst	0x68437361 ; undefined
   864d5:	63617261 	.inst	0x63617261 ; undefined
   864d9:	47726574 	.inst	0x47726574 ; undefined
   864dd:	6870796c 	.inst	0x6870796c ; undefined
   864e1:	3a3e6345 	.inst	0x3a3e6345 ; undefined
   864e5:	3030300a 	adr	x10, e6ae6 <__bss_end+0x5af2e>
   864e9:	30303030 	adr	x16, e6aee <__bss_end+0x5af36>
   864ed:	30303030 	adr	x16, e6af2 <__bss_end+0x5af3a>
   864f1:	63313238 	.inst	0x63313238 ; undefined
   864f5:	5f3c2030 	.inst	0x5f3c2030 ; undefined
   864f9:	50384e5a 	adr	x26, f6ec3 <__bss_end+0x6b30b>
   864fd:	46324653 	.inst	0x46324653 ; undefined
   86501:	38746e6f 	.inst	0x38746e6f ; undefined
   86505:	47746547 	.inst	0x47746547 ; undefined
   86509:	6870796c 	.inst	0x6870796c ; undefined
   8650d:	3a3e6345 	.inst	0x3a3e6345 ; undefined
   86511:	3030300a 	adr	x10, e6b12 <__bss_end+0x5af5a>
   86515:	30303030 	adr	x16, e6b1a <__bss_end+0x5af62>
   86519:	30303030 	adr	x16, e6b1e <__bss_end+0x5af66>
   8651d:	66313238 	.inst	0x66313238 ; undefined
   86521:	5f3c2030 	.inst	0x5f3c2030 ; undefined
   86525:	50354e5a 	adr	x26, f0eef <__bss_end+0x65337>
   86529:	746e696f 	.inst	0x746e696f ; undefined
   8652d:	76453143 	.inst	0x76453143 ; undefined
   86531:	300a3a3e 	adr	x30, 9ac76 <__bss_end+0xf0be>
   86535:	30303030 	adr	x16, e6b3a <__bss_end+0x5af82>
   86539:	30303030 	adr	x16, e6b3e <__bss_end+0x5af86>
   8653d:	32383030 	orr	w16, w1, #0x1fff00
   86541:	20303032 	.inst	0x20303032 ; undefined
   86545:	4e5a5f3c 	.inst	0x4e5a5f3c ; undefined
   86549:	696f5035 	ldpsw	x21, x20, [x1, #-136]
   8654d:	3143746e 	adds	w14, w3, #0xdd, lsl #12
   86551:	3e696945 	.inst	0x3e696945 ; undefined
   86555:	30300a3a 	adr	x26, e669a <__bss_end+0x5aae2>
   86559:	30303030 	adr	x16, e6b5e <__bss_end+0x5afa6>
   8655d:	30303030 	adr	x16, e6b62 <__bss_end+0x5afaa>
   86561:	32323830 	orr	w16, w1, #0x1fffc000
   86565:	3c203031 	.inst	0x3c203031 ; undefined
   86569:	344e5a5f 	cbz	wzr, 1230b1 <__bss_end+0x974f9>
   8656d:	657a6953 	fnmls	z19.h, p2/m, z10.h, z26.h
   86571:	76453143 	.inst	0x76453143 ; undefined
   86575:	300a3a3e 	adr	x30, 9acba <__bss_end+0xf102>
   86579:	30303030 	adr	x16, e6b7e <__bss_end+0x5afc6>
   8657d:	30303030 	adr	x16, e6b82 <__bss_end+0x5afca>
   86581:	32383030 	orr	w16, w1, #0x1fff00
   86585:	20303232 	.inst	0x20303232 ; undefined
   86589:	4e5a5f3c 	.inst	0x4e5a5f3c ; undefined
   8658d:	7a695334 	.inst	0x7a695334 ; undefined
   86591:	45314365 	.inst	0x45314365 ; undefined
   86595:	3a3e6969 	.inst	0x3a3e6969 ; undefined
   86599:	3030300a 	adr	x10, e6b9a <__bss_end+0x5afe2>
   8659d:	30303030 	adr	x16, e6ba2 <__bss_end+0x5afea>
   865a1:	30303030 	adr	x16, e6ba6 <__bss_end+0x5afee>
   865a5:	33323238 	.inst	0x33323238 ; undefined
   865a9:	5f3c2030 	.inst	0x5f3c2030 ; undefined
   865ad:	52394e5a 	eor	w26, w18, #0x7ffff80
   865b1:	61746365 	.inst	0x61746365 ; undefined
   865b5:	656c676e 	fnmls	z14.h, p1/m, z27.h, z12.h
   865b9:	76453143 	.inst	0x76453143 ; undefined
   865bd:	300a3a3e 	adr	x30, 9ad02 <__bss_end+0xf14a>
   865c1:	30303030 	adr	x16, e6bc6 <__bss_end+0x5b00e>
   865c5:	30303030 	adr	x16, e6bca <__bss_end+0x5b012>
   865c9:	32383030 	orr	w16, w1, #0x1fff00
   865cd:	20303432 	.inst	0x20303432 ; undefined
   865d1:	4e5a5f3c 	.inst	0x4e5a5f3c ; undefined
   865d5:	63655239 	.inst	0x63655239 ; undefined
   865d9:	676e6174 	.inst	0x676e6174 ; undefined
   865dd:	3143656c 	adds	w12, w11, #0xd9, lsl #12
   865e1:	69696945 	ldpsw	x5, x26, [x10, #-184]
   865e5:	0a3a3e69 	bic	w9, w19, w26, lsl #15
   865e9:	30303030 	adr	x16, e6bee <__bss_end+0x5b036>
   865ed:	30303030 	adr	x16, e6bf2 <__bss_end+0x5b03a>
   865f1:	38303030 	ldsetb	w16, w16, [x1]
   865f5:	30353232 	adr	x18, f0c3a <__bss_end+0x65082>
   865f9:	5a5f3c20 	.inst	0x5a5f3c20 ; undefined
   865fd:	6f43354e 	ursra	v14.2d, v10.2d, #61
   86601:	43726f6c 	.inst	0x43726f6c ; undefined
   86605:	63634531 	.inst	0x63634531 ; undefined
   86609:	0a3a3e63 	bic	w3, w19, w26, lsl #15
   8660d:	30303030 	adr	x16, e6c12 <__bss_end+0x5b05a>
   86611:	30303030 	adr	x16, e6c16 <__bss_end+0x5b05e>
   86615:	38303030 	ldsetb	w16, w16, [x1]
   86619:	30373232 	adr	x18, f4c5e <__bss_end+0x690a6>
   8661d:	5a5f3c20 	.inst	0x5a5f3c20 ; undefined
   86621:	6f43354e 	ursra	v14.2d, v10.2d, #61
   86625:	43726f6c 	.inst	0x43726f6c ; undefined
   86629:	63634531 	.inst	0x63634531 ; undefined
   8662d:	3a3e6363 	.inst	0x3a3e6363 ; undefined
   86631:	3030300a 	adr	x10, e6c32 <__bss_end+0x5b07a>
   86635:	30303030 	adr	x16, e6c3a <__bss_end+0x5b082>
   86639:	30303030 	adr	x16, e6c3e <__bss_end+0x5b086>
   8663d:	39323238 	strb	w24, [x17, #3212]
   86641:	5f3c2030 	.inst	0x5f3c2030 ; undefined
   86645:	43354e5a 	.inst	0x43354e5a ; undefined
   86649:	726f6c6f 	.inst	0x726f6c6f ; undefined
   8664d:	74656734 	.inst	0x74656734 ; undefined
   86651:	3e764552 	.inst	0x3e764552 ; undefined
   86655:	30300a3a 	adr	x26, e679a <__bss_end+0x5abe2>
   86659:	30303030 	adr	x16, e6c5e <__bss_end+0x5b0a6>
   8665d:	30303030 	adr	x16, e6c62 <__bss_end+0x5b0aa>
   86661:	32323830 	orr	w16, w1, #0x1fffc000
   86665:	3c203061 	.inst	0x3c203061 ; undefined
   86669:	354e5a5f 	cbnz	wzr, 1231b1 <__bss_end+0x975f9>
   8666d:	6f6c6f43 	.inst	0x6f6c6f43 ; undefined
   86671:	65733472 	fmls	z18.h, p5/m, z3.h, z19.h
   86675:	63455274 	.inst	0x63455274 ; undefined
   86679:	300a3a3e 	adr	x30, 9adbe <__bss_end+0xf206>
   8667d:	30303030 	adr	x16, e6c82 <__bss_end+0x5b0ca>
   86681:	30303030 	adr	x16, e6c86 <__bss_end+0x5b0ce>
   86685:	32383030 	orr	w16, w1, #0x1fff00
   86689:	20306232 	.inst	0x20306232 ; undefined
   8668d:	4e5a5f3c 	.inst	0x4e5a5f3c ; undefined
   86691:	6c6f4335 	ldnp	d21, d16, [x25, #-272]
   86695:	6734726f 	.inst	0x6734726f ; undefined
   86699:	45477465 	smullt	z5.h, z3.b, z7.b
   8669d:	0a3a3e76 	bic	w22, w19, w26, lsl #15
   866a1:	30303030 	adr	x16, e6ca6 <__bss_end+0x5b0ee>
   866a5:	30303030 	adr	x16, e6caa <__bss_end+0x5b0f2>
   866a9:	38303030 	ldsetb	w16, w16, [x1]
   866ad:	30633232 	adr	x18, 14ccf2 <__bss_end+0xc113a>
   866b1:	5a5f3c20 	.inst	0x5a5f3c20 ; undefined
   866b5:	6f43354e 	ursra	v14.2d, v10.2d, #61
   866b9:	34726f6c 	cbz	w12, 16b4a5 <__bss_end+0xdf8ed>
   866bd:	47746573 	.inst	0x47746573 ; undefined
   866c1:	3a3e6345 	.inst	0x3a3e6345 ; undefined
   866c5:	3030300a 	adr	x10, e6cc6 <__bss_end+0x5b10e>
   866c9:	30303030 	adr	x16, e6cce <__bss_end+0x5b116>
   866cd:	30303030 	adr	x16, e6cd2 <__bss_end+0x5b11a>
   866d1:	64323238 	.inst	0x64323238 ; undefined
   866d5:	5f3c2030 	.inst	0x5f3c2030 ; undefined
   866d9:	43354e5a 	.inst	0x43354e5a ; undefined
   866dd:	726f6c6f 	.inst	0x726f6c6f ; undefined
   866e1:	74656734 	.inst	0x74656734 ; undefined
   866e5:	3e764542 	.inst	0x3e764542 ; undefined
   866e9:	30300a3a 	adr	x26, e682e <__bss_end+0x5ac76>
   866ed:	30303030 	adr	x16, e6cf2 <__bss_end+0x5b13a>
   866f1:	30303030 	adr	x16, e6cf6 <__bss_end+0x5b13e>
   866f5:	32323830 	orr	w16, w1, #0x1fffc000
   866f9:	3c203065 	.inst	0x3c203065 ; undefined
   866fd:	354e5a5f 	cbnz	wzr, 123245 <__bss_end+0x9768d>
   86701:	6f6c6f43 	.inst	0x6f6c6f43 ; undefined
   86705:	65733472 	fmls	z18.h, p5/m, z3.h, z19.h
   86709:	63454274 	.inst	0x63454274 ; undefined
   8670d:	300a3a3e 	adr	x30, 9ae52 <__bss_end+0xf29a>
   86711:	30303030 	adr	x16, e6d16 <__bss_end+0x5b15e>
   86715:	30303030 	adr	x16, e6d1a <__bss_end+0x5b162>
   86719:	32383030 	orr	w16, w1, #0x1fff00
   8671d:	20306632 	.inst	0x20306632 ; undefined
   86721:	4e5a5f3c 	.inst	0x4e5a5f3c ; undefined
   86725:	6c6f4335 	ldnp	d21, d16, [x25, #-272]
   86729:	6734726f 	.inst	0x6734726f ; undefined
   8672d:	45417465 	smullt	z5.h, z3.b, z1.b
   86731:	0a3a3e76 	bic	w22, w19, w26, lsl #15
   86735:	30303030 	adr	x16, e6d3a <__bss_end+0x5b182>
   86739:	30303030 	adr	x16, e6d3e <__bss_end+0x5b186>
   8673d:	38303030 	ldsetb	w16, w16, [x1]
   86741:	30303332 	adr	x18, e6da6 <__bss_end+0x5b1ee>
   86745:	5a5f3c20 	.inst	0x5a5f3c20 ; undefined
   86749:	6f43354e 	ursra	v14.2d, v10.2d, #61
   8674d:	34726f6c 	cbz	w12, 16b539 <__bss_end+0xdf981>
   86751:	41746573 	.inst	0x41746573 ; undefined
   86755:	3a3e6345 	.inst	0x3a3e6345 ; undefined
   86759:	3030300a 	adr	x10, e6d5a <__bss_end+0x5b1a2>
   8675d:	30303030 	adr	x16, e6d62 <__bss_end+0x5b1aa>
   86761:	30303030 	adr	x16, e6d66 <__bss_end+0x5b1ae>
   86765:	31333238 	adds	w24, w17, #0xccc
   86769:	5f3c2030 	.inst	0x5f3c2030 ; undefined
   8676d:	47384e5a 	.inst	0x47384e5a ; undefined
   86771:	68706172 	.inst	0x68706172 ; undefined
   86775:	43736369 	.inst	0x43736369 ; undefined
   86779:	31314531 	adds	w17, w9, #0xc51
   8677d:	6d617246 	ldp	d6, d28, [x18, #-496]
   86781:	66756265 	.inst	0x66756265 ; undefined
   86785:	3e726566 	.inst	0x3e726566 ; undefined
   86789:	30300a3a 	adr	x26, e68ce <__bss_end+0x5ad16>
   8678d:	30303030 	adr	x16, e6d92 <__bss_end+0x5b1da>
   86791:	30303030 	adr	x16, e6d96 <__bss_end+0x5b1de>
   86795:	33323830 	.inst	0x33323830 ; undefined
   86799:	3c203032 	.inst	0x3c203032 ; undefined
   8679d:	384e5a5f 	ldtrb	wzr, [x18, #229]
   867a1:	70617247 	adr	x7, 1495ec <__bss_end+0xbda34>
   867a5:	73636968 	.inst	0x73636968 ; undefined
   867a9:	65473331 	fminv	h17, p4, z25.h
   867ad:	66754274 	.inst	0x66754274 ; undefined
   867b1:	53726566 	.inst	0x53726566 ; undefined
   867b5:	45657a69 	rsubhnb	z9.b, z19.h, z5.h
   867b9:	0a3a3e76 	bic	w22, w19, w26, lsl #15
   867bd:	30303030 	adr	x16, e6dc2 <__bss_end+0x5b20a>
   867c1:	30303030 	adr	x16, e6dc6 <__bss_end+0x5b20e>
   867c5:	38303030 	ldsetb	w16, w16, [x1]
   867c9:	30333332 	adr	x18, ece2e <__bss_end+0x61276>
   867cd:	5a5f3c20 	.inst	0x5a5f3c20 ; undefined
   867d1:	7247384e 	.inst	0x7247384e ; undefined
   867d5:	69687061 	ldpsw	x1, x28, [x3, #-192]
   867d9:	46347363 	.inst	0x46347363 ; undefined
   867dd:	456c6c69 	raddhnt	z9.b, z3.h, z12.h
   867e1:	6c6f4335 	ldnp	d21, d16, [x25, #-272]
   867e5:	3a3e726f 	.inst	0x3a3e726f ; undefined
   867e9:	3030300a 	adr	x10, e6dea <__bss_end+0x5b232>
   867ed:	30303030 	adr	x16, e6df2 <__bss_end+0x5b23a>
   867f1:	30303030 	adr	x16, e6df6 <__bss_end+0x5b23e>
   867f5:	66333238 	.inst	0x66333238 ; undefined
   867f9:	5f3c2030 	.inst	0x5f3c2030 ; undefined
   867fd:	47384e5a 	.inst	0x47384e5a ; undefined
   86801:	68706172 	.inst	0x68706172 ; undefined
   86805:	31736369 	adds	w9, w27, #0xcd8, lsl #12
   86809:	6c694633 	ldnp	d19, d17, [x17, #-368]
   8680d:	6365526c 	.inst	0x6365526c ; undefined
   86811:	676e6174 	.inst	0x676e6174 ; undefined
   86815:	3945656c 	ldrb	w12, [x11, #345]
   86819:	74636552 	.inst	0x74636552 ; undefined
   8681d:	6c676e61 	ldnp	d1, d27, [x19, #-400]
   86821:	6f433565 	ursra	v5.2d, v11.2d, #61
   86825:	3e726f6c 	.inst	0x3e726f6c ; undefined
   86829:	30300a3a 	adr	x26, e696e <__bss_end+0x5adb6>
   8682d:	30303030 	adr	x16, e6e32 <__bss_end+0x5b27a>
   86831:	30303030 	adr	x16, e6e36 <__bss_end+0x5b27e>
   86835:	35323830 	cbnz	w16, eaf39 <__bss_end+0x5f381>
   86839:	3c203032 	.inst	0x3c203032 ; undefined
   8683d:	384e5a5f 	ldtrb	wzr, [x18, #229]
   86841:	70617247 	adr	x7, 14968c <__bss_end+0xbdad4>
   86845:	73636968 	.inst	0x73636968 ; undefined
   86849:	61724438 	.inst	0x61724438 ; undefined
   8684d:	61684377 	.inst	0x61684377 ; undefined
   86851:	38504572 	ldrb	w18, [x11], #-252
   86855:	32465350 	.inst	0x32465350 ; undefined
   86859:	746e6f46 	.inst	0x746e6f46 ; undefined
   8685d:	696f5035 	ldpsw	x21, x20, [x1, #-136]
   86861:	3563746e 	cbnz	w14, 14d6ed <__bss_end+0xc1b35>
   86865:	6f6c6f43 	.inst	0x6f6c6f43 ; undefined
   86869:	0a3a3e72 	bic	w18, w19, w26, lsl #15
   8686d:	30303030 	adr	x16, e6e72 <__bss_end+0x5b2ba>
   86871:	30303030 	adr	x16, e6e76 <__bss_end+0x5b2be>
   86875:	38303030 	ldsetb	w16, w16, [x1]
   86879:	30333632 	adr	x18, ecf3e <__bss_end+0x61386>
   8687d:	5a5f3c20 	.inst	0x5a5f3c20 ; undefined
   86881:	7247384e 	.inst	0x7247384e ; undefined
   86885:	69687061 	ldpsw	x1, x28, [x3, #-192]
   86889:	30317363 	adr	x3, e96f6 <__bss_end+0x5db3e>
   8688d:	77617244 	.inst	0x77617244 ; undefined
   86891:	69727453 	ldpsw	x19, x29, [x2, #-112]
   86895:	5045676e 	adr	x14, 111583 <__bss_end+0x859cb>
   86899:	46535038 	.inst	0x46535038 ; undefined
   8689d:	6e6f4632 	ushl	v18.8h, v17.8h, v15.8h
   868a1:	6f503574 	ursra	v20.2d, v11.2d, #48
   868a5:	36746e69 	tbz	w9, #14, 7f671 <__bss_size+0x7ecde>
   868a9:	69727453 	ldpsw	x19, x29, [x2, #-112]
   868ad:	4335676e 	.inst	0x4335676e ; undefined
   868b1:	726f6c6f 	.inst	0x726f6c6f ; undefined
   868b5:	300a3a3e 	adr	x30, 9affa <__bss_end+0xf442>
   868b9:	30303030 	adr	x16, e6ebe <__bss_end+0x5b306>
   868bd:	30303030 	adr	x16, e6ec2 <__bss_end+0x5b30a>
   868c1:	32383030 	orr	w16, w1, #0x1fff00
   868c5:	20303437 	.inst	0x20303437 ; undefined
   868c9:	4e5a5f3c 	.inst	0x4e5a5f3c ; undefined
   868cd:	72463131 	.inst	0x72463131 ; undefined
   868d1:	62656d61 	.inst	0x62656d61 ; undefined
   868d5:	65666675 	fnmls	z21.h, p1/m, z19.h, z6.h
   868d9:	45314372 	.inst	0x45314372 ; undefined
   868dd:	0a3a3e76 	bic	w22, w19, w26, lsl #15
   868e1:	30303030 	adr	x16, e6ee6 <__bss_end+0x5b32e>
   868e5:	30303030 	adr	x16, e6eea <__bss_end+0x5b332>
   868e9:	38303030 	ldsetb	w16, w16, [x1]
   868ed:	30353732 	adr	x18, f0fd2 <__bss_end+0x6541a>
   868f1:	5a5f3c20 	.inst	0x5a5f3c20 ; undefined
   868f5:	4631314e 	.inst	0x4631314e ; undefined
   868f9:	656d6172 	fnmls	z18.h, p0/m, z11.h, z13.h
   868fd:	66667562 	.inst	0x66667562 ; undefined
   86901:	31437265 	adds	w5, w19, #0xdc, lsl #12
   86905:	3e696945 	.inst	0x3e696945 ; undefined
   86909:	30300a3a 	adr	x26, e6a4e <__bss_end+0x5ae96>
   8690d:	30303030 	adr	x16, e6f12 <__bss_end+0x5b35a>
   86911:	30303030 	adr	x16, e6f16 <__bss_end+0x5b35e>
   86915:	38323830 	.inst	0x38323830 ; undefined
   86919:	3c203037 	.inst	0x3c203037 ; undefined
   8691d:	314e5a5f 	cmn	w18, #0x396, lsl #12
   86921:	49504730 	.inst	0x49504730 ; undefined
   86925:	6e61484f 	uqxtn2	v15.8h, v2.4s
   86929:	43656c64 	.inst	0x43656c64 ; undefined
   8692d:	3e764531 	.inst	0x3e764531 ; undefined
   86931:	30300a3a 	adr	x26, e6a76 <__bss_end+0x5aebe>
   86935:	30303030 	adr	x16, e6f3a <__bss_end+0x5b382>
   86939:	30303030 	adr	x16, e6f3e <__bss_end+0x5b386>
   8693d:	38323830 	.inst	0x38323830 ; undefined
   86941:	3c203038 	.inst	0x3c203038 ; undefined
   86945:	314e5a5f 	cmn	w18, #0x396, lsl #12
   86949:	49504730 	.inst	0x49504730 ; undefined
   8694d:	6e61484f 	uqxtn2	v15.8h, v2.4s
   86951:	43656c64 	.inst	0x43656c64 ; undefined
   86955:	3e694531 	.inst	0x3e694531 ; undefined
   86959:	30300a3a 	adr	x26, e6a9e <__bss_end+0x5aee6>
   8695d:	30303030 	adr	x16, e6f62 <__bss_end+0x5b3aa>
   86961:	30303030 	adr	x16, e6f66 <__bss_end+0x5b3ae>
   86965:	39323830 	strb	w16, [x1, #3214]
   86969:	3c203063 	.inst	0x3c203063 ; undefined
   8696d:	314e5a5f 	cmn	w18, #0x396, lsl #12
   86971:	49504730 	.inst	0x49504730 ; undefined
   86975:	6e61484f 	uqxtn2	v15.8h, v2.4s
   86979:	36656c64 	tbz	w4, #12, 81705 <_ZN6String8ParseIntEi22StringConversionFormat+0x205>
   8697d:	50746553 	adr	x19, 16f627 <__bss_end+0xe3a6f>
   86981:	69456e69 	ldpsw	x9, x27, [x19, #40]
   86985:	300a3a3e 	adr	x30, 9b0ca <__bss_end+0xf512>
   86989:	30303030 	adr	x16, e6f8e <__bss_end+0x5b3d6>
   8698d:	30303030 	adr	x16, e6f92 <__bss_end+0x5b3da>
   86991:	32383030 	orr	w16, w1, #0x1fff00
   86995:	20303062 	.inst	0x20303062 ; undefined
   86999:	4e5a5f3c 	.inst	0x4e5a5f3c ; undefined
   8699d:	50473031 	adr	x17, 114fa3 <__bss_end+0x893eb>
   869a1:	61484f49 	.inst	0x61484f49 ; undefined
   869a5:	656c646e 	fnmls	z14.h, p1/m, z3.h, z12.h
   869a9:	74655338 	.inst	0x74655338 ; undefined
   869ad:	75706e49 	.inst	0x75706e49 ; undefined
   869b1:	3e764574 	.inst	0x3e764574 ; undefined
   869b5:	30300a3a 	adr	x26, e6afa <__bss_end+0x5af42>
   869b9:	30303030 	adr	x16, e6fbe <__bss_end+0x5b406>
   869bd:	30303030 	adr	x16, e6fc2 <__bss_end+0x5b40a>
   869c1:	62323830 	.inst	0x62323830 ; undefined
   869c5:	3c203032 	.inst	0x3c203032 ; undefined
   869c9:	314e5a5f 	cmn	w18, #0x396, lsl #12
   869cd:	49504730 	.inst	0x49504730 ; undefined
   869d1:	6e61484f 	uqxtn2	v15.8h, v2.4s
   869d5:	39656c64 	ldrb	w4, [x3, #2395]
   869d9:	4f746553 	.inst	0x4f746553 ; undefined
   869dd:	75707475 	.inst	0x75707475 ; undefined
   869e1:	3e764574 	.inst	0x3e764574 ; undefined
   869e5:	30300a3a 	adr	x26, e6b2a <__bss_end+0x5af72>
   869e9:	30303030 	adr	x16, e6fee <__bss_end+0x5b436>
   869ed:	30303030 	adr	x16, e6ff2 <__bss_end+0x5b43a>
   869f1:	62323830 	.inst	0x62323830 ; undefined
   869f5:	3c203039 	.inst	0x3c203039 ; undefined
   869f9:	314e5a5f 	cmn	w18, #0x396, lsl #12
   869fd:	49504730 	.inst	0x49504730 ; undefined
   86a01:	6e61484f 	uqxtn2	v15.8h, v2.4s
   86a05:	35656c64 	cbnz	w4, 151791 <__bss_end+0xc5bd9>
   86a09:	74697257 	.inst	0x74697257 ; undefined
   86a0d:	3e624565 	.inst	0x3e624565 ; undefined
   86a11:	30300a3a 	adr	x26, e6b56 <__bss_end+0x5af9e>
   86a15:	30303030 	adr	x16, e701a <__bss_end+0x5b462>
   86a19:	30303030 	adr	x16, e701e <__bss_end+0x5b466>
   86a1d:	62323830 	.inst	0x62323830 ; undefined
   86a21:	3c203064 	.inst	0x3c203064 ; undefined
   86a25:	314e5a5f 	cmn	w18, #0x396, lsl #12
   86a29:	49504730 	.inst	0x49504730 ; undefined
   86a2d:	6e61484f 	uqxtn2	v15.8h, v2.4s
   86a31:	38656c64 	.inst	0x38656c64 ; undefined
   86a35:	63417349 	.inst	0x63417349 ; undefined
   86a39:	65766974 	fnmls	z20.h, p2/m, z11.h, z22.h
   86a3d:	3a3e7645 	.inst	0x3a3e7645 ; undefined
   86a41:	3030300a 	adr	x10, e7042 <__bss_end+0x5b48a>
   86a45:	30303030 	adr	x16, e704a <__bss_end+0x5b492>
   86a49:	30303030 	adr	x16, e704e <__bss_end+0x5b496>
   86a4d:	66623238 	.inst	0x66623238 ; undefined
   86a51:	5f3c2030 	.inst	0x5f3c2030 ; undefined
   86a55:	4d374e5a 	.inst	0x4d374e5a ; undefined
   86a59:	626c6961 	.inst	0x626c6961 ; undefined
   86a5d:	3143786f 	adds	w15, w3, #0xde, lsl #12
   86a61:	3a3e7645 	.inst	0x3a3e7645 ; undefined
   86a65:	3030300a 	adr	x10, e7066 <__bss_end+0x5b4ae>
   86a69:	30303030 	adr	x16, e706e <__bss_end+0x5b4b6>
   86a6d:	30303030 	adr	x16, e7072 <__bss_end+0x5b4ba>
   86a71:	32633238 	.inst	0x32633238 ; undefined
   86a75:	5f3c2030 	.inst	0x5f3c2030 ; undefined
   86a79:	4d374e5a 	.inst	0x4d374e5a ; undefined
   86a7d:	626c6961 	.inst	0x626c6961 ; undefined
   86a81:	5235786f 	eor	w15, w3, #0xfffffbff
   86a85:	74657365 	.inst	0x74657365 ; undefined
   86a89:	3a3e7645 	.inst	0x3a3e7645 ; undefined
   86a8d:	3030300a 	adr	x10, e708e <__bss_end+0x5b4d6>
   86a91:	30303030 	adr	x16, e7096 <__bss_end+0x5b4de>
   86a95:	30303030 	adr	x16, e709a <__bss_end+0x5b4e2>
   86a99:	35633238 	cbnz	w24, 14d0dd <__bss_end+0xc1525>
   86a9d:	5f3c2030 	.inst	0x5f3c2030 ; undefined
   86aa1:	4d374e5a 	.inst	0x4d374e5a ; undefined
   86aa5:	626c6961 	.inst	0x626c6961 ; undefined
   86aa9:	4137786f 	.inst	0x4137786f ; undefined
   86aad:	61446464 	.inst	0x61446464 ; undefined
   86ab1:	6a456174 	ands	w20, w11, w5, lsr #24
   86ab5:	300a3a3e 	adr	x30, 9b1fa <__bss_end+0xf642>
   86ab9:	30303030 	adr	x16, e70be <__bss_end+0x5b506>
   86abd:	30303030 	adr	x16, e70c2 <__bss_end+0x5b50a>
   86ac1:	32383030 	orr	w16, w1, #0x1fff00
   86ac5:	20303863 	.inst	0x20303863 ; undefined
   86ac9:	4e5a5f3c 	.inst	0x4e5a5f3c ; undefined
   86acd:	69614d37 	ldpsw	x23, x19, [x9, #-248]
   86ad1:	786f626c 	ldumaxlh	w15, w12, [x19]
   86ad5:	64413831 	fcmla	z17.h, p6/m, z1.h, z1.h, #90
   86ad9:	71655264 	subs	w4, w19, #0x954, lsl #12
   86add:	74736575 	.inst	0x74736575 ; undefined
   86ae1:	706f7250 	adr	x16, 16592c <__bss_end+0xd9d74>
   86ae5:	79747265 	ldrh	w5, [x19, #6712]
   86ae9:	3e6a6a45 	.inst	0x3e6a6a45 ; undefined
   86aed:	30300a3a 	adr	x26, e6c32 <__bss_end+0x5b07a>
   86af1:	30303030 	adr	x16, e70f6 <__bss_end+0x5b53e>
   86af5:	30303030 	adr	x16, e70fa <__bss_end+0x5b542>
   86af9:	63323830 	.inst	0x63323830 ; undefined
   86afd:	3c203066 	.inst	0x3c203066 ; undefined
   86b01:	374e5a5f 	tbnz	wzr, #9, 83649 <_ZL17_systemFontBuffer+0x621>
   86b05:	6c69614d 	ldnp	d13, d24, [x10, #-368]
   86b09:	31786f62 	adds	w2, w27, #0xe1b, lsl #12
   86b0d:	64644138 	bfdot	z24.s, z9.h, z4.h[0]
   86b11:	75716552 	.inst	0x75716552 ; undefined
   86b15:	50747365 	adr	x5, 16f983 <__bss_end+0xe3dcb>
   86b19:	65706f72 	fnmls	z18.h, p3/m, z27.h, z16.h
   86b1d:	45797472 	subhnt	z18.b, z3.h, z25.h
   86b21:	3e6a6a6a 	.inst	0x3e6a6a6a ; undefined
   86b25:	30300a3a 	adr	x26, e6c6a <__bss_end+0x5b0b2>
   86b29:	30303030 	adr	x16, e712e <__bss_end+0x5b576>
   86b2d:	30303030 	adr	x16, e7132 <__bss_end+0x5b57a>
   86b31:	64323830 	.inst	0x64323830 ; undefined
   86b35:	3c203037 	.inst	0x3c203037 ; undefined
   86b39:	374e5a5f 	tbnz	wzr, #9, 83681 <_ZL17_systemFontBuffer+0x659>
   86b3d:	6c69614d 	ldnp	d13, d24, [x10, #-368]
   86b41:	31786f62 	adds	w2, w27, #0xe1b, lsl #12
   86b45:	64644138 	bfdot	z24.s, z9.h, z4.h[0]
   86b49:	75716552 	.inst	0x75716552 ; undefined
   86b4d:	50747365 	adr	x5, 16f9bb <__bss_end+0xe3e03>
   86b51:	65706f72 	fnmls	z18.h, p3/m, z27.h, z16.h
   86b55:	45797472 	subhnt	z18.b, z3.h, z25.h
   86b59:	6a6a6a6a 	bics	w10, w19, w10, lsr #26
   86b5d:	300a3a3e 	adr	x30, 9b2a2 <__bss_end+0xf6ea>
   86b61:	30303030 	adr	x16, e7166 <__bss_end+0x5b5ae>
   86b65:	30303030 	adr	x16, e716a <__bss_end+0x5b5b2>
   86b69:	32383030 	orr	w16, w1, #0x1fff00
   86b6d:	20303065 	.inst	0x20303065 ; undefined
   86b71:	4e5a5f3c 	.inst	0x4e5a5f3c ; undefined
   86b75:	69614d37 	ldpsw	x23, x19, [x9, #-248]
   86b79:	786f626c 	ldumaxlh	w15, w12, [x19]
   86b7d:	64413831 	fcmla	z17.h, p6/m, z1.h, z1.h, #90
   86b81:	71655264 	subs	w4, w19, #0x954, lsl #12
   86b85:	74736575 	.inst	0x74736575 ; undefined
   86b89:	706f7250 	adr	x16, 1659d4 <__bss_end+0xd9e1c>
   86b8d:	79747265 	ldrh	w5, [x19, #6712]
   86b91:	6a6a6a45 	bics	w5, w18, w10, lsr #26
   86b95:	3a3e6a6a 	.inst	0x3a3e6a6a ; undefined
   86b99:	3030300a 	adr	x10, e719a <__bss_end+0x5b5e2>
   86b9d:	30303030 	adr	x16, e71a2 <__bss_end+0x5b5ea>
   86ba1:	30303030 	adr	x16, e71a6 <__bss_end+0x5b5ee>
   86ba5:	62653238 	.inst	0x62653238 ; undefined
   86ba9:	5f3c2030 	.inst	0x5f3c2030 ; undefined
   86bad:	4d374e5a 	.inst	0x4d374e5a ; undefined
   86bb1:	626c6961 	.inst	0x626c6961 ; undefined
   86bb5:	5034786f 	adr	x15, efac3 <__bss_end+0x63f0b>
   86bb9:	456b6361 	addhnb	z1.b, z27.h, z11.h
   86bbd:	0a3a3e76 	bic	w22, w19, w26, lsl #15
   86bc1:	30303030 	adr	x16, e71c6 <__bss_end+0x5b60e>
   86bc5:	30303030 	adr	x16, e71ca <__bss_end+0x5b612>
   86bc9:	38303030 	ldsetb	w16, w16, [x1]
   86bcd:	30656532 	adr	x18, 151872 <__bss_end+0xc5cba>
   86bd1:	5a5f3c20 	.inst	0x5a5f3c20 ; undefined
   86bd5:	614d374e 	.inst	0x614d374e ; undefined
   86bd9:	6f626c69 	.inst	0x6f626c69 ; undefined
   86bdd:	72573578 	.inst	0x72573578 ; undefined
   86be1:	45657469 	subhnt	z9.b, z3.h, z5.h
   86be5:	0a3a3e76 	bic	w22, w19, w26, lsl #15
   86be9:	30303030 	adr	x16, e71ee <__bss_end+0x5b636>
   86bed:	30303030 	adr	x16, e71f2 <__bss_end+0x5b63a>
   86bf1:	38303030 	ldsetb	w16, w16, [x1]
   86bf5:	30666532 	adr	x18, 15389a <__bss_end+0xc7ce2>
   86bf9:	5a5f3c20 	.inst	0x5a5f3c20 ; undefined
   86bfd:	5331314e 	.inst	0x5331314e ; undefined
   86c01:	65747379 	fnmls	z25.h, p4/m, z27.h, z20.h
   86c05:	6d69546d 	ldp	d13, d21, [x3, #-368]
   86c09:	34317265 	cbz	w5, e9a55 <__bss_end+0x5de9d>
   86c0d:	53746547 	.inst	0x53746547 ; undefined
   86c11:	65747379 	fnmls	z25.h, p4/m, z27.h, z20.h
   86c15:	6d69546d 	ldp	d13, d21, [x3, #-368]
   86c19:	76457265 	.inst	0x76457265 ; undefined
   86c1d:	300a3a3e 	adr	x30, 9b362 <__bss_end+0xf7aa>
   86c21:	30303030 	adr	x16, e7226 <__bss_end+0x5b66e>
   86c25:	30303030 	adr	x16, e722a <__bss_end+0x5b672>
   86c29:	32383030 	orr	w16, w1, #0x1fff00
   86c2d:	20303066 	.inst	0x20303066 ; undefined
   86c31:	4e5a5f3c 	.inst	0x4e5a5f3c ; undefined
   86c35:	79533131 	ldrh	w17, [x9, #2456]
   86c39:	6d657473 	ldp	d19, d29, [x3, #-432]
   86c3d:	656d6954 	fnmls	z20.h, p2/m, z10.h, z13.h
   86c41:	47333272 	.inst	0x47333272 ; undefined
   86c45:	79537465 	ldrh	w5, [x3, #2490]
   86c49:	6d657473 	ldp	d19, d29, [x3, #-432]
   86c4d:	656d6954 	fnmls	z20.h, p2/m, z10.h, z13.h
   86c51:	65724672 	fnmla	z18.h, p1/m, z19.h, z18.h
   86c55:	6e657571 	uabd	v17.8h, v11.8h, v5.8h
   86c59:	76457963 	.inst	0x76457963 ; undefined
   86c5d:	300a3a3e 	adr	x30, 9b3a2 <__bss_end+0xf7ea>
   86c61:	30303030 	adr	x16, e7266 <__bss_end+0x5b6ae>
   86c65:	30303030 	adr	x16, e726a <__bss_end+0x5b6b2>
   86c69:	32383030 	orr	w16, w1, #0x1fff00
   86c6d:	20303166 	.inst	0x20303166 ; undefined
   86c71:	4e5a5f3c 	.inst	0x4e5a5f3c ; undefined
   86c75:	79533131 	ldrh	w17, [x9, #2456]
   86c79:	6d657473 	ldp	d19, d29, [x3, #-432]
   86c7d:	656d6954 	fnmls	z20.h, p2/m, z10.h, z13.h
   86c81:	47333172 	.inst	0x47333172 ; undefined
   86c85:	79537465 	ldrh	w5, [x3, #2490]
   86c89:	6d657473 	ldp	d19, d29, [x3, #-432]
   86c8d:	656d6954 	fnmls	z20.h, p2/m, z10.h, z13.h
   86c91:	3a3e7645 	.inst	0x3a3e7645 ; undefined
   86c95:	3030300a 	adr	x10, e7296 <__bss_end+0x5b6de>
   86c99:	30303030 	adr	x16, e729e <__bss_end+0x5b6e6>
   86c9d:	30303030 	adr	x16, e72a2 <__bss_end+0x5b6ea>
   86ca1:	35663238 	cbnz	w24, 1532e5 <__bss_end+0xc772d>
   86ca5:	5f3c2030 	.inst	0x5f3c2030 ; undefined
   86ca9:	6734315a 	.inst	0x6734315a ; undefined
   86cad:	75467465 	.inst	0x75467465 ; undefined
   86cb1:	6974636e 	ldpsw	x14, x24, [x27, #-96]
   86cb5:	614d6e6f 	.inst	0x614d6e6f ; undefined
   86cb9:	3a3e7670 	.inst	0x3a3e7670 ; undefined
   86cbd:	3030300a 	adr	x10, e72be <__bss_end+0x5b706>
   86cc1:	30303030 	adr	x16, e72c6 <__bss_end+0x5b70e>
   86cc5:	30303030 	adr	x16, e72ca <__bss_end+0x5b712>
   86cc9:	36663238 	tbz	w24, #12, 8330d <_ZL17_systemFontBuffer+0x2e5>
   86ccd:	5f3c2030 	.inst	0x5f3c2030 ; undefined
   86cd1:	7333315a 	.inst	0x7333315a ; undefined
   86cd5:	79537465 	ldrh	w5, [x3, #2490]
   86cd9:	6d657473 	ldp	d19, d29, [x3, #-432]
   86cdd:	746e6f46 	.inst	0x746e6f46 ; undefined
   86ce1:	46535038 	.inst	0x46535038 ; undefined
   86ce5:	6e6f4632 	ushl	v18.8h, v17.8h, v15.8h
   86ce9:	0a3a3e74 	bic	w20, w19, w26, lsl #15
   86ced:	30303030 	adr	x16, e72f2 <__bss_end+0x5b73a>
   86cf1:	30303030 	adr	x16, e72f6 <__bss_end+0x5b73e>
   86cf5:	38303030 	ldsetb	w16, w16, [x1]
   86cf9:	30396632 	adr	x18, f99be <__bss_end+0x6de06>
   86cfd:	5a5f3c20 	.inst	0x5a5f3c20 ; undefined
   86d01:	65673331 	fmls	z17.h, p4/m, z25.h, z7.h
   86d05:	73795374 	.inst	0x73795374 ; undefined
   86d09:	466d6574 	.inst	0x466d6574 ; undefined
   86d0d:	76746e6f 	.inst	0x76746e6f ; undefined
   86d11:	300a3a3e 	adr	x30, 9b456 <__bss_end+0xf89e>
   86d15:	30303030 	adr	x16, e731a <__bss_end+0x5b762>
   86d19:	30303030 	adr	x16, e731e <__bss_end+0x5b766>
   86d1d:	32383030 	orr	w16, w1, #0x1fff00
   86d21:	20306366 	.inst	0x20306366 ; undefined
   86d25:	4c475f3c 	.inst	0x4c475f3c ; undefined
   86d29:	4c41424f 	.inst	0x4c41424f ; undefined
   86d2d:	75735f5f 	.inst	0x75735f5f ; undefined
   86d31:	5f495f62 	.inst	0x5f495f62 ; undefined
   86d35:	33315a5f 	.inst	0x33315a5f ; undefined
   86d39:	53746573 	.inst	0x53746573 ; undefined
   86d3d:	65747379 	fnmls	z25.h, p4/m, z27.h, z20.h
   86d41:	6e6f466d 	ushl	v13.8h, v19.8h, v15.8h
   86d45:	53503874 	.inst	0x53503874 ; undefined
   86d49:	6f463246 	fcmla	v6.8h, v18.8h, v6.h[0], #90
   86d4d:	3a3e746e 	.inst	0x3a3e746e ; undefined
   86d51:	3030300a 	adr	x10, e7352 <__bss_end+0x5b79a>
   86d55:	30303030 	adr	x16, e735a <__bss_end+0x5b7a2>
   86d59:	30303030 	adr	x16, e735e <__bss_end+0x5b7a6>
   86d5d:	64663238 	.inst	0x64663238 ; undefined
   86d61:	5f3c2030 	.inst	0x5f3c2030 ; undefined
   86d65:	37314c5a 	tbnz	w26, #6, 896ed <_ZL4mbox+0xf6d>
   86d69:	7379735f 	.inst	0x7379735f ; undefined
   86d6d:	466d6574 	.inst	0x466d6574 ; undefined
   86d71:	42746e6f 	.inst	0x42746e6f ; undefined
   86d75:	65666675 	fnmls	z21.h, p1/m, z19.h, z6.h
   86d79:	78302d72 	.inst	0x78302d72 ; undefined
   86d7d:	3a3e3835 	.inst	0x3a3e3835 ; undefined
   86d81:	3030300a 	adr	x10, e7382 <__bss_end+0x5b7ca>
   86d85:	30303030 	adr	x16, e738a <__bss_end+0x5b7d2>
   86d89:	30303030 	adr	x16, e738e <__bss_end+0x5b7d6>
   86d8d:	32303338 	orr	w24, w25, #0x1fff0000
   86d91:	5f3c2038 	.inst	0x5f3c2038 ; undefined
   86d95:	37314c5a 	tbnz	w26, #6, 8971d <_ZL4mbox+0xf9d>
   86d99:	7379735f 	.inst	0x7379735f ; undefined
   86d9d:	466d6574 	.inst	0x466d6574 ; undefined
   86da1:	42746e6f 	.inst	0x42746e6f ; undefined
   86da5:	65666675 	fnmls	z21.h, p1/m, z19.h, z6.h
   86da9:	0a3a3e72 	bic	w18, w19, w26, lsl #15
   86dad:	30303030 	adr	x16, e73b2 <__bss_end+0x5b7fa>
   86db1:	30303030 	adr	x16, e73b6 <__bss_end+0x5b7fe>
   86db5:	38303030 	ldsetb	w16, w16, [x1]
   86db9:	30646335 	adr	x21, 14fa1e <__bss_end+0xc3e66>
   86dbd:	692e3c20 	stgp	x0, x15, [x1, #-576]
   86dc1:	5f74696e 	.inst	0x5f74696e ; undefined
   86dc5:	61727261 	.inst	0x61727261 ; undefined
   86dc9:	0a3a3e79 	bic	w25, w19, w26, lsl #15
   86dcd:	30303030 	adr	x16, e73d2 <__bss_end+0x5b81a>
   86dd1:	30303030 	adr	x16, e73d6 <__bss_end+0x5b81e>
   86dd5:	38303030 	ldsetb	w16, w16, [x1]
   86dd9:	30666335 	adr	x21, 153a3e <__bss_end+0xc7e86>
   86ddd:	5a5f3c20 	.inst	0x5a5f3c20 ; undefined
   86de1:	5f31314c 	.inst	0x5f31314c ; undefined
   86de5:	74737973 	.inst	0x74737973 ; undefined
   86de9:	6f466d65 	.inst	0x6f466d65 ; undefined
   86ded:	3a3e746e 	.inst	0x3a3e746e ; undefined
   86df1:	3030300a 	adr	x10, e73f2 <__bss_end+0x5b83a>
   86df5:	30303030 	adr	x16, e73fa <__bss_end+0x5b842>
   86df9:	30303030 	adr	x16, e73fe <__bss_end+0x5b846>
   86dfd:	30313638 	adr	x24, e94c2 <__bss_end+0x5d90a>
   86e01:	5f3c2030 	.inst	0x5f3c2030 ; undefined
   86e05:	6d344c5a 	stp	d26, d19, [x2, #-192]
   86e09:	3e786f62 	.inst	0x3e786f62 ; undefined
   86e0d:	30300a3a 	adr	x26, e6f52 <__bss_end+0x5b39a>
   86e11:	30303030 	adr	x16, e7416 <__bss_end+0x5b85e>
   86e15:	30303030 	adr	x16, e741a <__bss_end+0x5b862>
   86e19:	31373830 	adds	w16, w1, #0xdce
   86e1d:	3c203031 	.inst	0x3c203031 ; undefined
   86e21:	314c5a5f 	cmn	w18, #0x316, lsl #12
   86e25:	79735f31 	ldrh	w17, [x25, #6574]
   86e29:	6d657473 	ldp	d19, d29, [x3, #-432]
   86e2d:	6f666e49 	.inst	0x6f666e49 ; undefined
   86e31:	300a3a3e 	adr	x30, 9b576 <__bss_end+0xf9be>
   86e35:	30303030 	adr	x16, e743a <__bss_end+0x5b882>
   86e39:	30303030 	adr	x16, e743e <__bss_end+0x5b886>
   86e3d:	37383030 	tbnz	w16, #7, 87441 <_ZL4mbox+0x111>
   86e41:	20303331 	.inst	0x20303331 ; undefined
   86e45:	4c5a5f3c 	.inst	0x4c5a5f3c ; undefined
   86e49:	735f3831 	.inst	0x735f3831 ; undefined
   86e4d:	65747379 	fnmls	z25.h, p4/m, z27.h, z20.h
   86e51:	6172466d 	.inst	0x6172466d ; undefined
   86e55:	7562656d 	.inst	0x7562656d ; undefined
   86e59:	72656666 	.inst	0x72656666 ; undefined
   86e5d:	300a3a3e 	adr	x30, 9b5a2 <__bss_end+0xf9ea>
   86e61:	30303030 	adr	x16, e7466 <__bss_end+0x5b8ae>
   86e65:	30303030 	adr	x16, e746a <__bss_end+0x5b8b2>
   86e69:	37383030 	tbnz	w16, #7, 8746d <_ZL4mbox+0x13d>
   86e6d:	20303431 	.inst	0x20303431 ; undefined
   86e71:	4c5a5f3c 	.inst	0x4c5a5f3c ; undefined
   86e75:	735f3131 	.inst	0x735f3131 ; undefined
   86e79:	65747379 	fnmls	z25.h, p4/m, z27.h, z20.h
   86e7d:	6e6f466d 	ushl	v13.8h, v19.8h, v15.8h
   86e81:	0a3a3e74 	bic	w20, w19, w26, lsl #15
   86e85:	30303030 	adr	x16, e748a <__bss_end+0x5b8d2>
   86e89:	30303030 	adr	x16, e748e <__bss_end+0x5b8d6>
   86e8d:	38303030 	ldsetb	w16, w16, [x1]
   86e91:	30353537 	adr	x23, f1536 <__bss_end+0x6597e>
   86e95:	5a5f3c20 	.inst	0x5a5f3c20 ; undefined
   86e99:	626d344c 	.inst	0x626d344c ; undefined
   86e9d:	3a3e786f 	.inst	0x3a3e786f ; undefined
   86ea1:	3030300a 	adr	x10, e74a2 <__bss_end+0x5b8ea>
   86ea5:	30303030 	adr	x16, e74aa <__bss_end+0x5b8f2>
   86ea9:	30303030 	adr	x16, e74ae <__bss_end+0x5b8f6>
   86ead:	36353838 	tbz	w24, #6, 815b1 <_ZN6String8ParseIntEi22StringConversionFormat+0xb1>
   86eb1:	5f3c2030 	.inst	0x5f3c2030 ; undefined
   86eb5:	6d344c5a 	stp	d26, d19, [x2, #-192]
   86eb9:	3e786f62 	.inst	0x3e786f62 ; undefined
   86ebd:	30300a3a 	adr	x26, e7002 <__bss_end+0x5b44a>
   86ec1:	30303030 	adr	x16, e74c6 <__bss_end+0x5b90e>
   86ec5:	30303030 	adr	x16, e74ca <__bss_end+0x5b912>
   86ec9:	35393830 	cbnz	w16, f95cd <__bss_end+0x6da15>
   86ecd:	3c203037 	.inst	0x3c203037 ; undefined
   86ed1:	344c5a5f 	cbz	wzr, 11fa19 <__bss_end+0x93e61>
   86ed5:	786f626d 	ldumaxlh	w15, w13, [x19]
   86ed9:	300a3a3e 	adr	x30, 9b61e <__bss_end+0xfa66>
   86edd:	30303030 	adr	x16, e74e2 <__bss_end+0x5b92a>
   86ee1:	30303030 	adr	x16, e74e6 <__bss_end+0x5b92e>
   86ee5:	61383030 	.inst	0x61383030 ; undefined
   86ee9:	20303835 	.inst	0x20303835 ; undefined
   86eed:	4c5a5f3c 	.inst	0x4c5a5f3c ; undefined
   86ef1:	735f3131 	.inst	0x735f3131 ; undefined
   86ef5:	65747379 	fnmls	z25.h, p4/m, z27.h, z20.h
   86ef9:	6e6f466d 	ushl	v13.8h, v19.8h, v15.8h
   86efd:	0a3a3e74 	bic	w20, w19, w26, lsl #15

Disassembly of section .init_array:

0000000000086f08 <.init_array>:
   86f08:	00080570 	.inst	0x00080570 ; undefined
   86f0c:	00000000 	udf	#0
   86f10:	00080e00 	.inst	0x00080e00 ; undefined
   86f14:	00000000 	udf	#0
   86f18:	00082fc0 	.inst	0x00082fc0 ; undefined
   86f1c:	00000000 	udf	#0

Disassembly of section .bss:

0000000000086f20 <_ZL11_systemFont>:
	...

0000000000087330 <_ZL4mbox>:
	...

0000000000088340 <_ZL11_systemInfo>:
	...

0000000000088360 <_ZL18_systemFramebuffer>:
	...

0000000000088370 <_ZL11_systemFont>:
	...

0000000000088780 <_ZL4mbox>:
	...

0000000000089790 <_ZL4mbox>:
	...

000000000008a7a0 <_ZL4mbox>:
	...

000000000008b7b0 <_ZL11_systemFont>:
	...
