
build/kernel8.elf:     file format elf64-littleaarch64


Disassembly of section .text:

0000000000080000 <_start>:
   80000:	d53800a1 	mrs	x1, mpidr_el1
   80004:	92400421 	and	x1, x1, #0x3
   80008:	b4000121 	cbz	x1, 8002c <_start+0x2c>
   8000c:	f100043f 	cmp	x1, #0x1
   80010:	54000200 	b.eq	80050 <main_core_2>  // b.none
   80014:	f100083f 	cmp	x1, #0x2
   80018:	54000240 	b.eq	80060 <main_core_3>  // b.none
   8001c:	f1000c3f 	cmp	x1, #0x3
   80020:	54000280 	b.eq	80070 <main_core_4>  // b.none
   80024:	d503205f 	wfe
   80028:	17ffffff 	b	80024 <_start+0x24>
   8002c:	580000a1 	ldr	x1, 80040 <_start+0x40>
   80030:	9100003f 	mov	sp, x1
   80034:	94000013 	bl	80080 <main>
   80038:	17fffffb 	b	80024 <_start+0x24>
   8003c:	00000000 	udf	#0
   80040:	00080000 	.inst	0x00080000 ; undefined
	...

0000000000080050 <main_core_2>:
   80050:	14000000 	b	80050 <main_core_2>
   80054:	d503201f 	nop
   80058:	d503201f 	nop
   8005c:	d503201f 	nop

0000000000080060 <main_core_3>:
   80060:	14000000 	b	80060 <main_core_3>
   80064:	d503201f 	nop
   80068:	d503201f 	nop
   8006c:	d503201f 	nop

0000000000080070 <main_core_4>:
   80070:	14000000 	b	80070 <main_core_4>
	...

0000000000080080 <main>:
   80080:	d11243ff 	sub	sp, sp, #0x490
   80084:	910223e0 	add	x0, sp, #0x88
   80088:	a9007bfd 	stp	x29, x30, [sp]
   8008c:	910003fd 	mov	x29, sp
   80090:	a90153f3 	stp	x19, x20, [sp, #16]
   80094:	910223f3 	add	x19, sp, #0x88
   80098:	910523f4 	add	x20, sp, #0x148
   8009c:	f90013f5 	str	x21, [sp, #32]
   800a0:	94000098 	bl	80300 <_ZN8RPIBoardC1Ev>
   800a4:	a9489fe6 	ldp	x6, x7, [sp, #136]
   800a8:	90000023 	adrp	x3, 84000 <_ZL17_systemFontBuffer+0x2080>
   800ac:	912f0063 	add	x3, x3, #0xbc0
   800b0:	52803c02 	mov	w2, #0x1e0                 	// #480
   800b4:	a94997e4 	ldp	x4, x5, [sp, #152]
   800b8:	91008075 	add	x21, x3, #0x20
   800bc:	9100e3e0 	add	x0, sp, #0x38
   800c0:	52805001 	mov	w1, #0x280                 	// #640
   800c4:	a9001c66 	stp	x6, x7, [x3]
   800c8:	a9011464 	stp	x4, x5, [x3, #16]
   800cc:	940005cd 	bl	81800 <_ZN11FramebufferC1Eii>
   800d0:	910223e0 	add	x0, sp, #0x88
   800d4:	b0000001 	adrp	x1, 81000 <_ZN6String9ParseLongEm22StringConversionFormati+0x40>
   800d8:	913e0021 	add	x1, x1, #0xf80
   800dc:	94000439 	bl	811c0 <_ZN8PSF2FontC1EPc>
   800e0:	910223e1 	add	x1, sp, #0x88
   800e4:	d2808102 	mov	x2, #0x408                 	// #1032
   800e8:	aa1503e0 	mov	x0, x21
   800ec:	940000c1 	bl	803f0 <memcpy>
   800f0:	a9438fe2 	ldp	x2, x3, [sp, #56]
   800f4:	910123e0 	add	x0, sp, #0x48
   800f8:	aa0203e1 	mov	x1, x2
   800fc:	aa0303e2 	mov	x2, x3
   80100:	940004b4 	bl	813d0 <_ZN8GraphicsC1E11Framebuffer>
   80104:	52800403 	mov	w3, #0x20                  	// #32
   80108:	aa1303e0 	mov	x0, x19
   8010c:	2a0303e2 	mov	w2, w3
   80110:	2a0303e1 	mov	w1, w3
   80114:	9400047f 	bl	81310 <_ZN5ColorC1Eccc>
   80118:	b9408be1 	ldr	w1, [sp, #136]
   8011c:	910123e0 	add	x0, sp, #0x48
   80120:	940004b4 	bl	813f0 <_ZN8Graphics4FillE5Color>
   80124:	52800804 	mov	w4, #0x40                  	// #64
   80128:	52800f42 	mov	w2, #0x7a                  	// #122
   8012c:	aa1303e0 	mov	x0, x19
   80130:	2a0203e1 	mov	w1, w2
   80134:	52800f03 	mov	w3, #0x78                  	// #120
   80138:	94000472 	bl	81300 <_ZN9RectangleC1Eiiii>
   8013c:	12800b43 	mov	w3, #0xffffffa5            	// #-91
   80140:	910163e0 	add	x0, sp, #0x58
   80144:	2a0303e2 	mov	w2, w3
   80148:	2a0303e1 	mov	w1, w3
   8014c:	94000471 	bl	81310 <_ZN5ColorC1Eccc>
   80150:	a94897e4 	ldp	x4, x5, [sp, #136]
   80154:	910123e0 	add	x0, sp, #0x48
   80158:	b9405be3 	ldr	w3, [sp, #88]
   8015c:	aa0403e1 	mov	x1, x4
   80160:	aa0503e2 	mov	x2, x5
   80164:	940004d3 	bl	814b0 <_ZN8Graphics13FillRectangleE9Rectangle5Color>
   80168:	52800402 	mov	w2, #0x20                  	// #32
   8016c:	910163e0 	add	x0, sp, #0x58
   80170:	2a0203e1 	mov	w1, w2
   80174:	94000453 	bl	812c0 <_ZN5PointC1Eii>
   80178:	aa1303e8 	mov	x8, x19
   8017c:	52800001 	mov	w1, #0x0                   	// #0
   80180:	52800400 	mov	w0, #0x20                  	// #32
   80184:	9400023f 	bl	80a80 <_ZN6String8ParseIntEi22StringConversionFormat>
   80188:	12800003 	mov	w3, #0xffffffff            	// #-1
   8018c:	9100c3e0 	add	x0, sp, #0x30
   80190:	2a0303e2 	mov	w2, w3
   80194:	2a0303e1 	mov	w1, w3
   80198:	9400045e 	bl	81310 <_ZN5ColorC1Eccc>
   8019c:	b94033e4 	ldr	w4, [sp, #48]
   801a0:	aa1503e1 	mov	x1, x21
   801a4:	f9402fe2 	ldr	x2, [sp, #88]
   801a8:	aa1303e3 	mov	x3, x19
   801ac:	910123e0 	add	x0, sp, #0x48
   801b0:	94000550 	bl	816f0 <_ZN8Graphics10DrawStringEP8PSF2Font5Point6String5Color>
   801b4:	aa1303e0 	mov	x0, x19
   801b8:	94000172 	bl	80780 <_ZN6StringD1Ev>
   801bc:	aa1303e0 	mov	x0, x19
   801c0:	9100c273 	add	x19, x19, #0x30
   801c4:	940005d7 	bl	81920 <_ZN10GPIOHandleC1Ev>
   801c8:	eb14027f 	cmp	x19, x20
   801cc:	54ffff81 	b.ne	801bc <main+0x13c>  // b.any
   801d0:	910163e0 	add	x0, sp, #0x58
   801d4:	528002c1 	mov	w1, #0x16                  	// #22
   801d8:	940005d6 	bl	81930 <_ZN10GPIOHandleC1Ei>
   801dc:	910463f3 	add	x19, sp, #0x118
   801e0:	a9459fe6 	ldp	x6, x7, [sp, #88]
   801e4:	910163e0 	add	x0, sp, #0x58
   801e8:	a94697e4 	ldp	x4, x5, [sp, #104]
   801ec:	528002e1 	mov	w1, #0x17                  	// #23
   801f0:	a9478fe2 	ldp	x2, x3, [sp, #120]
   801f4:	a9089fe6 	stp	x6, x7, [sp, #136]
   801f8:	a90997e4 	stp	x4, x5, [sp, #152]
   801fc:	a90a8fe2 	stp	x2, x3, [sp, #168]
   80200:	940005cc 	bl	81930 <_ZN10GPIOHandleC1Ei>
   80204:	a9458fe2 	ldp	x2, x3, [sp, #88]
   80208:	a90b8fe2 	stp	x2, x3, [sp, #184]
   8020c:	910163e0 	add	x0, sp, #0x58
   80210:	a94697e4 	ldp	x4, x5, [sp, #104]
   80214:	52800301 	mov	w1, #0x18                  	// #24
   80218:	a9478fe2 	ldp	x2, x3, [sp, #120]
   8021c:	a90c97e4 	stp	x4, x5, [sp, #200]
   80220:	a90d8fe2 	stp	x2, x3, [sp, #216]
   80224:	940005c3 	bl	81930 <_ZN10GPIOHandleC1Ei>
   80228:	a94697e4 	ldp	x4, x5, [sp, #104]
   8022c:	a90f97e4 	stp	x4, x5, [sp, #248]
   80230:	910163e0 	add	x0, sp, #0x58
   80234:	a9458fe2 	ldp	x2, x3, [sp, #88]
   80238:	a90e8fe2 	stp	x2, x3, [sp, #232]
   8023c:	910803e4 	add	x4, sp, #0x200
   80240:	a9478fe2 	ldp	x2, x3, [sp, #120]
   80244:	52800281 	mov	w1, #0x14                  	// #20
   80248:	a9308c82 	stp	x2, x3, [x4, #-248]
   8024c:	940005b9 	bl	81930 <_ZN10GPIOHandleC1Ei>
   80250:	910803e6 	add	x6, sp, #0x200
   80254:	528002a1 	mov	w1, #0x15                  	// #21
   80258:	a9458fe2 	ldp	x2, x3, [sp, #88]
   8025c:	910163e0 	add	x0, sp, #0x58
   80260:	a9318cc2 	stp	x2, x3, [x6, #-232]
   80264:	a94697e4 	ldp	x4, x5, [sp, #104]
   80268:	a9011664 	stp	x4, x5, [x19, #16]
   8026c:	a9478fe2 	ldp	x2, x3, [sp, #120]
   80270:	a9020e62 	stp	x2, x3, [x19, #32]
   80274:	940005af 	bl	81930 <_ZN10GPIOHandleC1Ei>
   80278:	910163e0 	add	x0, sp, #0x58
   8027c:	9400064d 	bl	81bb0 <_ZN10GPIOHandle8SetInputEv>
   80280:	910223e0 	add	x0, sp, #0x88
   80284:	94000653 	bl	81bd0 <_ZN10GPIOHandle9SetOutputEv>
   80288:	9102e3e0 	add	x0, sp, #0xb8
   8028c:	94000651 	bl	81bd0 <_ZN10GPIOHandle9SetOutputEv>
   80290:	9103a3e0 	add	x0, sp, #0xe8
   80294:	9400064f 	bl	81bd0 <_ZN10GPIOHandle9SetOutputEv>
   80298:	aa1303e0 	mov	x0, x19
   8029c:	9400064d 	bl	81bd0 <_ZN10GPIOHandle9SetOutputEv>
   802a0:	910223f3 	add	x19, sp, #0x88
   802a4:	910163e0 	add	x0, sp, #0x58
   802a8:	94000666 	bl	81c40 <_ZN10GPIOHandle8IsActiveEv>
   802ac:	2a0003e1 	mov	w1, w0
   802b0:	aa1303e0 	mov	x0, x19
   802b4:	9100c273 	add	x19, x19, #0x30
   802b8:	94000652 	bl	81c00 <_ZN10GPIOHandle5WriteEb>
   802bc:	eb14027f 	cmp	x19, x20
   802c0:	54ffff21 	b.ne	802a4 <main+0x224>  // b.any
   802c4:	17fffff7 	b	802a0 <main+0x220>
   802c8:	d503201f 	nop
   802cc:	d503201f 	nop

00000000000802d0 <_GLOBAL__sub_I_main>:
   802d0:	a9be7bfd 	stp	x29, x30, [sp, #-32]!
   802d4:	910003fd 	mov	x29, sp
   802d8:	f9000bf3 	str	x19, [sp, #16]
   802dc:	90000033 	adrp	x19, 84000 <_ZL17_systemFontBuffer+0x2080>
   802e0:	912f0273 	add	x19, x19, #0xbc0
   802e4:	aa1303e0 	mov	x0, x19
   802e8:	94000006 	bl	80300 <_ZN8RPIBoardC1Ev>
   802ec:	91008260 	add	x0, x19, #0x20
   802f0:	f9400bf3 	ldr	x19, [sp, #16]
   802f4:	a8c27bfd 	ldp	x29, x30, [sp], #32
   802f8:	140003ce 	b	81230 <_ZN8PSF2FontC1Ev>
   802fc:	00000000 	udf	#0

0000000000080300 <_ZN8RPIBoardC1Ev>:
   80300:	b0000042 	adrp	x2, 89000 <_ZL4mbox+0xf40>
   80304:	91034041 	add	x1, x2, #0xd0
   80308:	90000023 	adrp	x3, 84000 <_ZL17_systemFontBuffer+0x2080>
   8030c:	f945c064 	ldr	x4, [x3, #2944]
   80310:	52a40003 	mov	w3, #0x20000000            	// #536870912
   80314:	b9000003 	str	w3, [x0]
   80318:	a9009001 	stp	x1, x4, [x0, #8]
   8031c:	f9000c01 	str	x1, [x0, #24]
   80320:	b900d043 	str	w3, [x2, #208]
   80324:	7900083f 	strh	wzr, [x1, #4]
   80328:	d65f03c0 	ret
   8032c:	d503201f 	nop

0000000000080330 <malloc>:
   80330:	d0000021 	adrp	x1, 86000 <_ZL12_systemBoard>
   80334:	91000021 	add	x1, x1, #0x0
   80338:	11001802 	add	w2, w0, #0x6
   8033c:	31000c00 	adds	w0, w0, #0x3
   80340:	1a804042 	csel	w2, w2, w0, mi  // mi = first
   80344:	a9409420 	ldp	x0, x5, [x1, #8]
   80348:	121e7444 	and	w4, w2, #0xfffffffc
   8034c:	d503201f 	nop
   80350:	39401003 	ldrb	w3, [x0, #4]
   80354:	b9400002 	ldr	w2, [x0]
   80358:	6b02009f 	cmp	w4, w2
   8035c:	93407c41 	sxtw	x1, w2
   80360:	35000043 	cbnz	w3, 80368 <malloc+0x38>
   80364:	540000ed 	b.le	80380 <malloc+0x50>
   80368:	91001021 	add	x1, x1, #0x4
   8036c:	8b010000 	add	x0, x0, x1
   80370:	eb0000bf 	cmp	x5, x0
   80374:	54fffee8 	b.hi	80350 <malloc+0x20>  // b.pmore
   80378:	d2800000 	mov	x0, #0x0                   	// #0
   8037c:	d65f03c0 	ret
   80380:	39401403 	ldrb	w3, [x0, #5]
   80384:	52800021 	mov	w1, #0x1                   	// #1
   80388:	39001001 	strb	w1, [x0, #4]
   8038c:	35000123 	cbnz	w3, 803b0 <malloc+0x80>
   80390:	93407c83 	sxtw	x3, w4
   80394:	39001401 	strb	w1, [x0, #5]
   80398:	91001063 	add	x3, x3, #0x4
   8039c:	b9000004 	str	w4, [x0]
   803a0:	8b030001 	add	x1, x0, x3
   803a4:	4b040042 	sub	w2, w2, w4
   803a8:	b8236802 	str	w2, [x0, x3]
   803ac:	7900083f 	strh	wzr, [x1, #4]
   803b0:	91001000 	add	x0, x0, #0x4
   803b4:	d65f03c0 	ret
   803b8:	d503201f 	nop
   803bc:	d503201f 	nop

00000000000803c0 <free>:
   803c0:	3900001f 	strb	wzr, [x0]
   803c4:	d65f03c0 	ret
   803c8:	d503201f 	nop
   803cc:	d503201f 	nop

00000000000803d0 <_Z5crashv>:
   803d0:	14000000 	b	803d0 <_Z5crashv>
   803d4:	d503201f 	nop
   803d8:	d503201f 	nop
   803dc:	d503201f 	nop

00000000000803e0 <_Z5magicj>:
   803e0:	5ac00800 	rev	w0, w0
   803e4:	d65f03c0 	ret
   803e8:	d503201f 	nop
   803ec:	d503201f 	nop

00000000000803f0 <memcpy>:
   803f0:	b4000622 	cbz	x2, 804b4 <memcpy+0xc4>
   803f4:	91000424 	add	x4, x1, #0x1
   803f8:	d1000445 	sub	x5, x2, #0x1
   803fc:	cb040004 	sub	x4, x0, x4
   80400:	aa010003 	orr	x3, x0, x1
   80404:	f100189f 	cmp	x4, #0x6
   80408:	92400863 	and	x3, x3, #0x7
   8040c:	fa4988a0 	ccmp	x5, #0x9, #0x0, hi  // hi = pmore
   80410:	fa408860 	ccmp	x3, #0x0, #0x0, hi  // hi = pmore
   80414:	54000521 	b.ne	804b8 <memcpy+0xc8>  // b.any
   80418:	927df045 	and	x5, x2, #0xfffffffffffffff8
   8041c:	d2800003 	mov	x3, #0x0                   	// #0
   80420:	f8636824 	ldr	x4, [x1, x3]
   80424:	f8236804 	str	x4, [x0, x3]
   80428:	91002063 	add	x3, x3, #0x8
   8042c:	eb05007f 	cmp	x3, x5
   80430:	54ffff81 	b.ne	80420 <memcpy+0x30>  // b.any
   80434:	927df043 	and	x3, x2, #0xfffffffffffffff8
   80438:	92400844 	and	x4, x2, #0x7
   8043c:	eb03005f 	cmp	x2, x3
   80440:	8b030025 	add	x5, x1, x3
   80444:	8b030002 	add	x2, x0, x3
   80448:	54000360 	b.eq	804b4 <memcpy+0xc4>  // b.none
   8044c:	38636821 	ldrb	w1, [x1, x3]
   80450:	f100049f 	cmp	x4, #0x1
   80454:	38236801 	strb	w1, [x0, x3]
   80458:	540002e0 	b.eq	804b4 <memcpy+0xc4>  // b.none
   8045c:	394004a0 	ldrb	w0, [x5, #1]
   80460:	f100089f 	cmp	x4, #0x2
   80464:	39000440 	strb	w0, [x2, #1]
   80468:	54000260 	b.eq	804b4 <memcpy+0xc4>  // b.none
   8046c:	394008a0 	ldrb	w0, [x5, #2]
   80470:	f1000c9f 	cmp	x4, #0x3
   80474:	39000840 	strb	w0, [x2, #2]
   80478:	540001e0 	b.eq	804b4 <memcpy+0xc4>  // b.none
   8047c:	39400ca0 	ldrb	w0, [x5, #3]
   80480:	f100109f 	cmp	x4, #0x4
   80484:	39000c40 	strb	w0, [x2, #3]
   80488:	54000160 	b.eq	804b4 <memcpy+0xc4>  // b.none
   8048c:	394010a0 	ldrb	w0, [x5, #4]
   80490:	f100149f 	cmp	x4, #0x5
   80494:	39001040 	strb	w0, [x2, #4]
   80498:	540000e0 	b.eq	804b4 <memcpy+0xc4>  // b.none
   8049c:	394014a0 	ldrb	w0, [x5, #5]
   804a0:	f100189f 	cmp	x4, #0x6
   804a4:	39001440 	strb	w0, [x2, #5]
   804a8:	54000060 	b.eq	804b4 <memcpy+0xc4>  // b.none
   804ac:	394018a0 	ldrb	w0, [x5, #6]
   804b0:	39001840 	strb	w0, [x2, #6]
   804b4:	d65f03c0 	ret
   804b8:	d2800003 	mov	x3, #0x0                   	// #0
   804bc:	d503201f 	nop
   804c0:	38636824 	ldrb	w4, [x1, x3]
   804c4:	38236804 	strb	w4, [x0, x3]
   804c8:	91000463 	add	x3, x3, #0x1
   804cc:	eb03005f 	cmp	x2, x3
   804d0:	54ffff81 	b.ne	804c0 <memcpy+0xd0>  // b.any
   804d4:	d65f03c0 	ret
	...

00000000000804e0 <_GLOBAL__sub_I__ZN8RPIBoardC2Ev>:
   804e0:	d0000024 	adrp	x4, 86000 <_ZL12_systemBoard>
   804e4:	91000080 	add	x0, x4, #0x0
   804e8:	b0000042 	adrp	x2, 89000 <_ZL4mbox+0xf40>
   804ec:	91034041 	add	x1, x2, #0xd0
   804f0:	90000023 	adrp	x3, 84000 <_ZL17_systemFontBuffer+0x2080>
   804f4:	f945c065 	ldr	x5, [x3, #2944]
   804f8:	52a40003 	mov	w3, #0x20000000            	// #536870912
   804fc:	b900d043 	str	w3, [x2, #208]
   80500:	b9000083 	str	w3, [x4]
   80504:	7900083f 	strh	wzr, [x1, #4]
   80508:	a9009401 	stp	x1, x5, [x0, #8]
   8050c:	f9000c01 	str	x1, [x0, #24]
   80510:	d65f03c0 	ret
	...

0000000000080520 <_ZN6String9ParseLongEl22StringConversionFormati.constprop.0>:
   80520:	a9bd7bfd 	stp	x29, x30, [sp, #-48]!
   80524:	910003fd 	mov	x29, sp
   80528:	a9025bf5 	stp	x21, x22, [sp, #32]
   8052c:	aa0803f5 	mov	x21, x8
   80530:	aa0003f6 	mov	x22, x0
   80534:	34000681 	cbz	w1, 80604 <_ZN6String9ParseLongEl22StringConversionFormati.constprop.0+0xe4>
   80538:	7100083f 	cmp	w1, #0x2
   8053c:	540009c0 	b.eq	80674 <_ZN6String9ParseLongEl22StringConversionFormati.constprop.0+0x154>  // b.none
   80540:	a90153f3 	stp	x19, x20, [sp, #16]
   80544:	aa0003e1 	mov	x1, x0
   80548:	52800014 	mov	w20, #0x0                   	// #0
   8054c:	b7f80560 	tbnz	x0, #63, 805f8 <_ZN6String9ParseLongEl22StringConversionFormati.constprop.0+0xd8>
   80550:	b202e7e0 	mov	x0, #0xcccccccccccccccc    	// #-3689348814741910324
   80554:	2a0103f3 	mov	w19, w1
   80558:	f29999a0 	movk	x0, #0xcccd
   8055c:	d503201f 	nop
   80560:	9bc07c22 	umulh	x2, x1, x0
   80564:	f100243f 	cmp	x1, #0x9
   80568:	11000694 	add	w20, w20, #0x1
   8056c:	d343fc41 	lsr	x1, x2, #3
   80570:	54ffff8c 	b.gt	80560 <_ZN6String9ParseLongEl22StringConversionFormati.constprop.0+0x40>
   80574:	2a1403e0 	mov	w0, w20
   80578:	97ffff6e 	bl	80330 <malloc>
   8057c:	93407e84 	sxtw	x4, w20
   80580:	b203e7e5 	mov	x5, #0x6666666666666666    	// #7378697629483820646
   80584:	d1000484 	sub	x4, x4, #0x1
   80588:	93407e63 	sxtw	x3, w19
   8058c:	8b040004 	add	x4, x0, x4
   80590:	f28ccce5 	movk	x5, #0x6667
   80594:	d503201f 	nop
   80598:	9b457c61 	smulh	x1, x3, x5
   8059c:	f100247f 	cmp	x3, #0x9
   805a0:	9342fc21 	asr	x1, x1, #2
   805a4:	cb83fc21 	sub	x1, x1, x3, asr #63
   805a8:	8b010822 	add	x2, x1, x1, lsl #2
   805ac:	cb020462 	sub	x2, x3, x2, lsl #1
   805b0:	aa0103e3 	mov	x3, x1
   805b4:	1100c041 	add	w1, w2, #0x30
   805b8:	381ff481 	strb	w1, [x4], #-1
   805bc:	54fffeec 	b.gt	80598 <_ZN6String9ParseLongEl22StringConversionFormati.constprop.0+0x78>
   805c0:	b7f80176 	tbnz	x22, #63, 805ec <_ZN6String9ParseLongEl22StringConversionFormati.constprop.0+0xcc>
   805c4:	52800021 	mov	w1, #0x1                   	// #1
   805c8:	f90002a0 	str	x0, [x21]
   805cc:	b9000ab4 	str	w20, [x21, #8]
   805d0:	390032a1 	strb	w1, [x21, #12]
   805d4:	97ffff7b 	bl	803c0 <free>
   805d8:	aa1503e0 	mov	x0, x21
   805dc:	a94153f3 	ldp	x19, x20, [sp, #16]
   805e0:	a9425bf5 	ldp	x21, x22, [sp, #32]
   805e4:	a8c37bfd 	ldp	x29, x30, [sp], #48
   805e8:	d65f03c0 	ret
   805ec:	528005a1 	mov	w1, #0x2d                  	// #45
   805f0:	39000081 	strb	w1, [x4]
   805f4:	17fffff4 	b	805c4 <_ZN6String9ParseLongEl22StringConversionFormati.constprop.0+0xa4>
   805f8:	cb0003e1 	neg	x1, x0
   805fc:	52800034 	mov	w20, #0x1                   	// #1
   80600:	17ffffd4 	b	80550 <_ZN6String9ParseLongEl22StringConversionFormati.constprop.0+0x30>
   80604:	12800000 	mov	w0, #0xffffffff            	// #-1
   80608:	b9000900 	str	w0, [x8, #8]
   8060c:	3900311f 	strb	wzr, [x8, #12]
   80610:	52800400 	mov	w0, #0x20                  	// #32
   80614:	97ffff47 	bl	80330 <malloc>
   80618:	f90002a0 	str	x0, [x21]
   8061c:	52800406 	mov	w6, #0x20                  	// #32
   80620:	52800022 	mov	w2, #0x1                   	// #1
   80624:	d2800001 	mov	x1, #0x0                   	// #0
   80628:	52b00005 	mov	w5, #0x80000000            	// #-2147483648
   8062c:	52800604 	mov	w4, #0x30                  	// #48
   80630:	52800623 	mov	w3, #0x31                  	// #49
   80634:	b9000aa6 	str	w6, [x21, #8]
   80638:	390032a2 	strb	w2, [x21, #12]
   8063c:	14000002 	b	80644 <_ZN6String9ParseLongEl22StringConversionFormati.constprop.0+0x124>
   80640:	f94002a0 	ldr	x0, [x21]
   80644:	1ac124a2 	lsr	w2, w5, w1
   80648:	93407c42 	sxtw	x2, w2
   8064c:	ea16005f 	tst	x2, x22
   80650:	1a841062 	csel	w2, w3, w4, ne  // ne = any
   80654:	38216802 	strb	w2, [x0, x1]
   80658:	91000421 	add	x1, x1, #0x1
   8065c:	f100803f 	cmp	x1, #0x20
   80660:	54ffff01 	b.ne	80640 <_ZN6String9ParseLongEl22StringConversionFormati.constprop.0+0x120>  // b.any
   80664:	aa1503e0 	mov	x0, x21
   80668:	a9425bf5 	ldp	x21, x22, [sp, #32]
   8066c:	a8c37bfd 	ldp	x29, x30, [sp], #48
   80670:	d65f03c0 	ret
   80674:	12800000 	mov	w0, #0xffffffff            	// #-1
   80678:	b9000900 	str	w0, [x8, #8]
   8067c:	3900311f 	strb	wzr, [x8, #12]
   80680:	52800100 	mov	w0, #0x8                   	// #8
   80684:	97ffff2b 	bl	80330 <malloc>
   80688:	f90002a0 	str	x0, [x21]
   8068c:	d35cfec3 	lsr	x3, x22, #28
   80690:	d3586ec2 	ubfx	x2, x22, #24, #4
   80694:	12001c61 	and	w1, w3, #0xff
   80698:	7100287f 	cmp	w3, #0xa
   8069c:	1100c027 	add	w7, w1, #0x30
   806a0:	1100dc23 	add	w3, w1, #0x37
   806a4:	12001c61 	and	w1, w3, #0xff
   806a8:	12001ce7 	and	w7, w7, #0xff
   806ac:	1a8130e7 	csel	w7, w7, w1, cc  // cc = lo, ul, last
   806b0:	1100dc48 	add	w8, w2, #0x37
   806b4:	d3545ec1 	ubfx	x1, x22, #20, #4
   806b8:	f100285f 	cmp	x2, #0xa
   806bc:	1100c042 	add	w2, w2, #0x30
   806c0:	1100c025 	add	w5, w1, #0x30
   806c4:	1a883048 	csel	w8, w2, w8, cc  // cc = lo, ul, last
   806c8:	1100dc22 	add	w2, w1, #0x37
   806cc:	f100283f 	cmp	x1, #0xa
   806d0:	d3504ec1 	ubfx	x1, x22, #16, #4
   806d4:	1a8230a5 	csel	w5, w5, w2, cc  // cc = lo, ul, last
   806d8:	1100c024 	add	w4, w1, #0x30
   806dc:	1100dc22 	add	w2, w1, #0x37
   806e0:	f100283f 	cmp	x1, #0xa
   806e4:	d34c3ec1 	ubfx	x1, x22, #12, #4
   806e8:	1a823084 	csel	w4, w4, w2, cc  // cc = lo, ul, last
   806ec:	1100dc23 	add	w3, w1, #0x37
   806f0:	f100283f 	cmp	x1, #0xa
   806f4:	1100c022 	add	w2, w1, #0x30
   806f8:	d3482ec1 	ubfx	x1, x22, #8, #4
   806fc:	1a833043 	csel	w3, w2, w3, cc  // cc = lo, ul, last
   80700:	1100dc26 	add	w6, w1, #0x37
   80704:	f100283f 	cmp	x1, #0xa
   80708:	1100c022 	add	w2, w1, #0x30
   8070c:	d3441ec1 	ubfx	x1, x22, #4, #4
   80710:	1a863042 	csel	w2, w2, w6, cc  // cc = lo, ul, last
   80714:	92400ecb 	and	x11, x22, #0xf
   80718:	1100dc26 	add	w6, w1, #0x37
   8071c:	f100283f 	cmp	x1, #0xa
   80720:	12000ed6 	and	w22, w22, #0xf
   80724:	1100c021 	add	w1, w1, #0x30
   80728:	5280010a 	mov	w10, #0x8                   	// #8
   8072c:	1a863021 	csel	w1, w1, w6, cc  // cc = lo, ul, last
   80730:	52800029 	mov	w9, #0x1                   	// #1
   80734:	1100c2c6 	add	w6, w22, #0x30
   80738:	f100257f 	cmp	x11, #0x9
   8073c:	1100ded6 	add	w22, w22, #0x37
   80740:	b9000aaa 	str	w10, [x21, #8]
   80744:	390032a9 	strb	w9, [x21, #12]
   80748:	1a8682c6 	csel	w6, w22, w6, hi  // hi = pmore
   8074c:	39000007 	strb	w7, [x0]
   80750:	39000408 	strb	w8, [x0, #1]
   80754:	39000805 	strb	w5, [x0, #2]
   80758:	39000c04 	strb	w4, [x0, #3]
   8075c:	39001003 	strb	w3, [x0, #4]
   80760:	39001402 	strb	w2, [x0, #5]
   80764:	39001801 	strb	w1, [x0, #6]
   80768:	39001c06 	strb	w6, [x0, #7]
   8076c:	aa1503e0 	mov	x0, x21
   80770:	a9425bf5 	ldp	x21, x22, [sp, #32]
   80774:	a8c37bfd 	ldp	x29, x30, [sp], #48
   80778:	d65f03c0 	ret
   8077c:	d503201f 	nop

0000000000080780 <_ZN6StringD1Ev>:
   80780:	39403001 	ldrb	w1, [x0, #12]
   80784:	35000041 	cbnz	w1, 8078c <_ZN6StringD1Ev+0xc>
   80788:	d65f03c0 	ret
   8078c:	f9400000 	ldr	x0, [x0]
   80790:	17ffff0c 	b	803c0 <free>
   80794:	d503201f 	nop
   80798:	d503201f 	nop
   8079c:	d503201f 	nop

00000000000807a0 <_ZN6StringC1Ei>:
   807a0:	a9be7bfd 	stp	x29, x30, [sp, #-32]!
   807a4:	12800002 	mov	w2, #0xffffffff            	// #-1
   807a8:	910003fd 	mov	x29, sp
   807ac:	a90153f3 	stp	x19, x20, [sp, #16]
   807b0:	aa0003f3 	mov	x19, x0
   807b4:	2a0103f4 	mov	w20, w1
   807b8:	2a0103e0 	mov	w0, w1
   807bc:	b9000a62 	str	w2, [x19, #8]
   807c0:	3900327f 	strb	wzr, [x19, #12]
   807c4:	97fffedb 	bl	80330 <malloc>
   807c8:	f9000260 	str	x0, [x19]
   807cc:	52800021 	mov	w1, #0x1                   	// #1
   807d0:	b9000a74 	str	w20, [x19, #8]
   807d4:	39003261 	strb	w1, [x19, #12]
   807d8:	a94153f3 	ldp	x19, x20, [sp, #16]
   807dc:	a8c27bfd 	ldp	x29, x30, [sp], #32
   807e0:	d65f03c0 	ret
   807e4:	d503201f 	nop
   807e8:	d503201f 	nop
   807ec:	d503201f 	nop

00000000000807f0 <_ZN6StringC1EPKc>:
   807f0:	12800002 	mov	w2, #0xffffffff            	// #-1
   807f4:	f9000001 	str	x1, [x0]
   807f8:	b9000802 	str	w2, [x0, #8]
   807fc:	3900301f 	strb	wzr, [x0, #12]
   80800:	d65f03c0 	ret
   80804:	d503201f 	nop
   80808:	d503201f 	nop
   8080c:	d503201f 	nop

0000000000080810 <_ZN6StringC1EPKci>:
   80810:	f9000001 	str	x1, [x0]
   80814:	b9000802 	str	w2, [x0, #8]
   80818:	3900301f 	strb	wzr, [x0, #12]
   8081c:	d65f03c0 	ret

0000000000080820 <_ZN6String9GetLengthEv>:
   80820:	aa0003e3 	mov	x3, x0
   80824:	b9400800 	ldr	w0, [x0, #8]
   80828:	3100041f 	cmn	w0, #0x1
   8082c:	54000040 	b.eq	80834 <_ZN6String9GetLengthEv+0x14>  // b.none
   80830:	d65f03c0 	ret
   80834:	f9400061 	ldr	x1, [x3]
   80838:	39400020 	ldrb	w0, [x1]
   8083c:	34000100 	cbz	w0, 8085c <_ZN6String9GetLengthEv+0x3c>
   80840:	52800000 	mov	w0, #0x0                   	// #0
   80844:	d503201f 	nop
   80848:	38401c22 	ldrb	w2, [x1, #1]!
   8084c:	11000400 	add	w0, w0, #0x1
   80850:	35ffffc2 	cbnz	w2, 80848 <_ZN6String9GetLengthEv+0x28>
   80854:	b9000860 	str	w0, [x3, #8]
   80858:	d65f03c0 	ret
   8085c:	52800000 	mov	w0, #0x0                   	// #0
   80860:	b9000860 	str	w0, [x3, #8]
   80864:	17fffffd 	b	80858 <_ZN6String9GetLengthEv+0x38>
   80868:	d503201f 	nop
   8086c:	d503201f 	nop

0000000000080870 <_ZN6String6RemoveEi>:
   80870:	aa0003e2 	mov	x2, x0
   80874:	aa0803e0 	mov	x0, x8
   80878:	f9400042 	ldr	x2, [x2]
   8087c:	f9000102 	str	x2, [x8]
   80880:	b9000901 	str	w1, [x8, #8]
   80884:	3900311f 	strb	wzr, [x8, #12]
   80888:	d65f03c0 	ret
   8088c:	d503201f 	nop

0000000000080890 <_ZN6String9SubstringEi>:
   80890:	aa0003e5 	mov	x5, x0
   80894:	aa0803e0 	mov	x0, x8
   80898:	f94000a3 	ldr	x3, [x5]
   8089c:	b94008a2 	ldr	w2, [x5, #8]
   808a0:	8b21c066 	add	x6, x3, w1, sxtw
   808a4:	3100045f 	cmn	w2, #0x1
   808a8:	540000c0 	b.eq	808c0 <_ZN6String9SubstringEi+0x30>  // b.none
   808ac:	4b010042 	sub	w2, w2, w1
   808b0:	f9000006 	str	x6, [x0]
   808b4:	b9000802 	str	w2, [x0, #8]
   808b8:	3900301f 	strb	wzr, [x0, #12]
   808bc:	d65f03c0 	ret
   808c0:	39400062 	ldrb	w2, [x3]
   808c4:	34000182 	cbz	w2, 808f4 <_ZN6String9SubstringEi+0x64>
   808c8:	52800002 	mov	w2, #0x0                   	// #0
   808cc:	d503201f 	nop
   808d0:	38401c64 	ldrb	w4, [x3, #1]!
   808d4:	11000442 	add	w2, w2, #0x1
   808d8:	35ffffc4 	cbnz	w4, 808d0 <_ZN6String9SubstringEi+0x40>
   808dc:	b90008a2 	str	w2, [x5, #8]
   808e0:	4b010042 	sub	w2, w2, w1
   808e4:	f9000006 	str	x6, [x0]
   808e8:	b9000802 	str	w2, [x0, #8]
   808ec:	3900301f 	strb	wzr, [x0, #12]
   808f0:	d65f03c0 	ret
   808f4:	52800002 	mov	w2, #0x0                   	// #0
   808f8:	b90008a2 	str	w2, [x5, #8]
   808fc:	17fffff9 	b	808e0 <_ZN6String9SubstringEi+0x50>

0000000000080900 <_ZN6String9SubstringEii>:
   80900:	aa0003e3 	mov	x3, x0
   80904:	aa0803e0 	mov	x0, x8
   80908:	f9400063 	ldr	x3, [x3]
   8090c:	b9000902 	str	w2, [x8, #8]
   80910:	3900311f 	strb	wzr, [x8, #12]
   80914:	8b21c061 	add	x1, x3, w1, sxtw
   80918:	f9000101 	str	x1, [x8]
   8091c:	d65f03c0 	ret

0000000000080920 <_Z14ParseIntBinaryji>:
   80920:	a9bd7bfd 	stp	x29, x30, [sp, #-48]!
   80924:	12800002 	mov	w2, #0xffffffff            	// #-1
   80928:	910003fd 	mov	x29, sp
   8092c:	a90153f3 	stp	x19, x20, [sp, #16]
   80930:	aa0803f3 	mov	x19, x8
   80934:	2a0103f4 	mov	w20, w1
   80938:	f90013f5 	str	x21, [sp, #32]
   8093c:	2a0003f5 	mov	w21, w0
   80940:	b9000902 	str	w2, [x8, #8]
   80944:	2a0103e0 	mov	w0, w1
   80948:	3900311f 	strb	wzr, [x8, #12]
   8094c:	97fffe79 	bl	80330 <malloc>
   80950:	f9000260 	str	x0, [x19]
   80954:	52800021 	mov	w1, #0x1                   	// #1
   80958:	b9000a74 	str	w20, [x19, #8]
   8095c:	39003261 	strb	w1, [x19, #12]
   80960:	7100029f 	cmp	w20, #0x0
   80964:	5400020d 	b.le	809a4 <_Z14ParseIntBinaryji+0x84>
   80968:	51000686 	sub	w6, w20, #0x1
   8096c:	d2800002 	mov	x2, #0x0                   	// #0
   80970:	52800025 	mov	w5, #0x1                   	// #1
   80974:	52800604 	mov	w4, #0x30                  	// #48
   80978:	52800621 	mov	w1, #0x31                  	// #49
   8097c:	14000002 	b	80984 <_Z14ParseIntBinaryji+0x64>
   80980:	f9400260 	ldr	x0, [x19]
   80984:	4b0200c3 	sub	w3, w6, w2
   80988:	1ac320a3 	lsl	w3, w5, w3
   8098c:	6a15007f 	tst	w3, w21
   80990:	1a841023 	csel	w3, w1, w4, ne  // ne = any
   80994:	38226803 	strb	w3, [x0, x2]
   80998:	91000442 	add	x2, x2, #0x1
   8099c:	6b02029f 	cmp	w20, w2
   809a0:	54ffff0c 	b.gt	80980 <_Z14ParseIntBinaryji+0x60>
   809a4:	aa1303e0 	mov	x0, x19
   809a8:	a94153f3 	ldp	x19, x20, [sp, #16]
   809ac:	f94013f5 	ldr	x21, [sp, #32]
   809b0:	a8c37bfd 	ldp	x29, x30, [sp], #48
   809b4:	d65f03c0 	ret
   809b8:	d503201f 	nop
   809bc:	d503201f 	nop

00000000000809c0 <_Z11ParseIntHexji>:
   809c0:	a9bd7bfd 	stp	x29, x30, [sp, #-48]!
   809c4:	7100003f 	cmp	w1, #0x0
   809c8:	910003fd 	mov	x29, sp
   809cc:	a90153f3 	stp	x19, x20, [sp, #16]
   809d0:	11000c34 	add	w20, w1, #0x3
   809d4:	1a81b294 	csel	w20, w20, w1, lt  // lt = tstop
   809d8:	a9025bf5 	stp	x21, x22, [sp, #32]
   809dc:	2a0103f3 	mov	w19, w1
   809e0:	aa0803f6 	mov	x22, x8
   809e4:	12800001 	mov	w1, #0xffffffff            	// #-1
   809e8:	b9000901 	str	w1, [x8, #8]
   809ec:	3900311f 	strb	wzr, [x8, #12]
   809f0:	13027e94 	asr	w20, w20, #2
   809f4:	2a0003f5 	mov	w21, w0
   809f8:	2a1403e0 	mov	w0, w20
   809fc:	97fffe4d 	bl	80330 <malloc>
   80a00:	f90002c0 	str	x0, [x22]
   80a04:	52800021 	mov	w1, #0x1                   	// #1
   80a08:	b9000ad4 	str	w20, [x22, #8]
   80a0c:	390032c1 	strb	w1, [x22, #12]
   80a10:	71000e7f 	cmp	w19, #0x3
   80a14:	5400028d 	b.le	80a64 <_Z11ParseIntHexji+0xa4>
   80a18:	51001263 	sub	w3, w19, #0x4
   80a1c:	d2800004 	mov	x4, #0x0                   	// #0
   80a20:	528001e6 	mov	w6, #0xf                   	// #15
   80a24:	d503201f 	nop
   80a28:	1ac320c2 	lsl	w2, w6, w3
   80a2c:	0a150042 	and	w2, w2, w21
   80a30:	1ac32442 	lsr	w2, w2, w3
   80a34:	12001c41 	and	w1, w2, #0xff
   80a38:	1100c025 	add	w5, w1, #0x30
   80a3c:	1100dc21 	add	w1, w1, #0x37
   80a40:	7100245f 	cmp	w2, #0x9
   80a44:	12001c21 	and	w1, w1, #0xff
   80a48:	12001ca2 	and	w2, w5, #0xff
   80a4c:	51001063 	sub	w3, w3, #0x4
   80a50:	1a828021 	csel	w1, w1, w2, hi  // hi = pmore
   80a54:	38246801 	strb	w1, [x0, x4]
   80a58:	91000484 	add	x4, x4, #0x1
   80a5c:	6b04029f 	cmp	w20, w4
   80a60:	54fffe4c 	b.gt	80a28 <_Z11ParseIntHexji+0x68>
   80a64:	aa1603e0 	mov	x0, x22
   80a68:	a94153f3 	ldp	x19, x20, [sp, #16]
   80a6c:	a9425bf5 	ldp	x21, x22, [sp, #32]
   80a70:	a8c37bfd 	ldp	x29, x30, [sp], #48
   80a74:	d65f03c0 	ret
   80a78:	d503201f 	nop
   80a7c:	d503201f 	nop

0000000000080a80 <_ZN6String8ParseIntEi22StringConversionFormat>:
   80a80:	a9be7bfd 	stp	x29, x30, [sp, #-32]!
   80a84:	910003fd 	mov	x29, sp
   80a88:	a90153f3 	stp	x19, x20, [sp, #16]
   80a8c:	2a0003f3 	mov	w19, w0
   80a90:	aa0803f4 	mov	x20, x8
   80a94:	340008e1 	cbz	w1, 80bb0 <_ZN6String8ParseIntEi22StringConversionFormat+0x130>
   80a98:	7100083f 	cmp	w1, #0x2
   80a9c:	540000e0 	b.eq	80ab8 <_ZN6String8ParseIntEi22StringConversionFormat+0x38>  // b.none
   80aa0:	93407e60 	sxtw	x0, w19
   80aa4:	97fffe9f 	bl	80520 <_ZN6String9ParseLongEl22StringConversionFormati.constprop.0>
   80aa8:	aa1403e0 	mov	x0, x20
   80aac:	a94153f3 	ldp	x19, x20, [sp, #16]
   80ab0:	a8c27bfd 	ldp	x29, x30, [sp], #32
   80ab4:	d65f03c0 	ret
   80ab8:	12800000 	mov	w0, #0xffffffff            	// #-1
   80abc:	b9000900 	str	w0, [x8, #8]
   80ac0:	3900311f 	strb	wzr, [x8, #12]
   80ac4:	52800100 	mov	w0, #0x8                   	// #8
   80ac8:	97fffe1a 	bl	80330 <malloc>
   80acc:	f9000280 	str	x0, [x20]
   80ad0:	531c7e61 	lsr	w1, w19, #28
   80ad4:	d3586e62 	ubfx	x2, x19, #24, #4
   80ad8:	7100283f 	cmp	w1, #0xa
   80adc:	1100dc26 	add	w6, w1, #0x37
   80ae0:	1100c021 	add	w1, w1, #0x30
   80ae4:	1100dc43 	add	w3, w2, #0x37
   80ae8:	1a863026 	csel	w6, w1, w6, cc  // cc = lo, ul, last
   80aec:	1100c047 	add	w7, w2, #0x30
   80af0:	d3545e61 	ubfx	x1, x19, #20, #4
   80af4:	7100285f 	cmp	w2, #0xa
   80af8:	1a8330e7 	csel	w7, w7, w3, cc  // cc = lo, ul, last
   80afc:	1100dc22 	add	w2, w1, #0x37
   80b00:	7100283f 	cmp	w1, #0xa
   80b04:	1100c025 	add	w5, w1, #0x30
   80b08:	d3504e61 	ubfx	x1, x19, #16, #4
   80b0c:	1a8230a5 	csel	w5, w5, w2, cc  // cc = lo, ul, last
   80b10:	1100c024 	add	w4, w1, #0x30
   80b14:	1100dc22 	add	w2, w1, #0x37
   80b18:	7100283f 	cmp	w1, #0xa
   80b1c:	d34c3e61 	ubfx	x1, x19, #12, #4
   80b20:	1a823084 	csel	w4, w4, w2, cc  // cc = lo, ul, last
   80b24:	1100dc23 	add	w3, w1, #0x37
   80b28:	7100283f 	cmp	w1, #0xa
   80b2c:	1100c022 	add	w2, w1, #0x30
   80b30:	d3482e61 	ubfx	x1, x19, #8, #4
   80b34:	1a833043 	csel	w3, w2, w3, cc  // cc = lo, ul, last
   80b38:	1100dc28 	add	w8, w1, #0x37
   80b3c:	7100283f 	cmp	w1, #0xa
   80b40:	1100c022 	add	w2, w1, #0x30
   80b44:	d3441e61 	ubfx	x1, x19, #4, #4
   80b48:	1a883042 	csel	w2, w2, w8, cc  // cc = lo, ul, last
   80b4c:	12000e6b 	and	w11, w19, #0xf
   80b50:	1100dc29 	add	w9, w1, #0x37
   80b54:	7100283f 	cmp	w1, #0xa
   80b58:	1100c021 	add	w1, w1, #0x30
   80b5c:	1100dd73 	add	w19, w11, #0x37
   80b60:	1a893021 	csel	w1, w1, w9, cc  // cc = lo, ul, last
   80b64:	5280010a 	mov	w10, #0x8                   	// #8
   80b68:	1100c169 	add	w9, w11, #0x30
   80b6c:	7100257f 	cmp	w11, #0x9
   80b70:	52800028 	mov	w8, #0x1                   	// #1
   80b74:	b9000a8a 	str	w10, [x20, #8]
   80b78:	39003288 	strb	w8, [x20, #12]
   80b7c:	1a898273 	csel	w19, w19, w9, hi  // hi = pmore
   80b80:	39000006 	strb	w6, [x0]
   80b84:	39000407 	strb	w7, [x0, #1]
   80b88:	39000805 	strb	w5, [x0, #2]
   80b8c:	39000c04 	strb	w4, [x0, #3]
   80b90:	39001003 	strb	w3, [x0, #4]
   80b94:	39001402 	strb	w2, [x0, #5]
   80b98:	39001801 	strb	w1, [x0, #6]
   80b9c:	39001c13 	strb	w19, [x0, #7]
   80ba0:	aa1403e0 	mov	x0, x20
   80ba4:	a94153f3 	ldp	x19, x20, [sp, #16]
   80ba8:	a8c27bfd 	ldp	x29, x30, [sp], #32
   80bac:	d65f03c0 	ret
   80bb0:	12800000 	mov	w0, #0xffffffff            	// #-1
   80bb4:	b9000900 	str	w0, [x8, #8]
   80bb8:	3900311f 	strb	wzr, [x8, #12]
   80bbc:	52800400 	mov	w0, #0x20                  	// #32
   80bc0:	97fffddc 	bl	80330 <malloc>
   80bc4:	f9000280 	str	x0, [x20]
   80bc8:	52800406 	mov	w6, #0x20                  	// #32
   80bcc:	52800022 	mov	w2, #0x1                   	// #1
   80bd0:	d2800001 	mov	x1, #0x0                   	// #0
   80bd4:	52b00005 	mov	w5, #0x80000000            	// #-2147483648
   80bd8:	52800604 	mov	w4, #0x30                  	// #48
   80bdc:	52800623 	mov	w3, #0x31                  	// #49
   80be0:	b9000a86 	str	w6, [x20, #8]
   80be4:	39003282 	strb	w2, [x20, #12]
   80be8:	14000002 	b	80bf0 <_ZN6String8ParseIntEi22StringConversionFormat+0x170>
   80bec:	f9400280 	ldr	x0, [x20]
   80bf0:	1ac124a2 	lsr	w2, w5, w1
   80bf4:	6a13005f 	tst	w2, w19
   80bf8:	1a841062 	csel	w2, w3, w4, ne  // ne = any
   80bfc:	38216802 	strb	w2, [x0, x1]
   80c00:	91000421 	add	x1, x1, #0x1
   80c04:	f100803f 	cmp	x1, #0x20
   80c08:	54ffff21 	b.ne	80bec <_ZN6String8ParseIntEi22StringConversionFormat+0x16c>  // b.any
   80c0c:	aa1403e0 	mov	x0, x20
   80c10:	a94153f3 	ldp	x19, x20, [sp, #16]
   80c14:	a8c27bfd 	ldp	x29, x30, [sp], #32
   80c18:	d65f03c0 	ret
   80c1c:	d503201f 	nop

0000000000080c20 <_ZN6String8ParseIntEj22StringConversionFormat>:
   80c20:	a9be7bfd 	stp	x29, x30, [sp, #-32]!
   80c24:	2a0003e0 	mov	w0, w0
   80c28:	910003fd 	mov	x29, sp
   80c2c:	f9000bf3 	str	x19, [sp, #16]
   80c30:	aa0803f3 	mov	x19, x8
   80c34:	97fffe3b 	bl	80520 <_ZN6String9ParseLongEl22StringConversionFormati.constprop.0>
   80c38:	aa1303e0 	mov	x0, x19
   80c3c:	f9400bf3 	ldr	x19, [sp, #16]
   80c40:	a8c27bfd 	ldp	x29, x30, [sp], #32
   80c44:	d65f03c0 	ret
   80c48:	d503201f 	nop
   80c4c:	d503201f 	nop

0000000000080c50 <_Z15ParseLongBinarymi>:
   80c50:	a9bd7bfd 	stp	x29, x30, [sp, #-48]!
   80c54:	12800002 	mov	w2, #0xffffffff            	// #-1
   80c58:	910003fd 	mov	x29, sp
   80c5c:	a90153f3 	stp	x19, x20, [sp, #16]
   80c60:	aa0803f3 	mov	x19, x8
   80c64:	2a0103f4 	mov	w20, w1
   80c68:	f90013f5 	str	x21, [sp, #32]
   80c6c:	aa0003f5 	mov	x21, x0
   80c70:	b9000902 	str	w2, [x8, #8]
   80c74:	2a0103e0 	mov	w0, w1
   80c78:	3900311f 	strb	wzr, [x8, #12]
   80c7c:	97fffdad 	bl	80330 <malloc>
   80c80:	f9000260 	str	x0, [x19]
   80c84:	52800021 	mov	w1, #0x1                   	// #1
   80c88:	b9000a74 	str	w20, [x19, #8]
   80c8c:	39003261 	strb	w1, [x19, #12]
   80c90:	7100029f 	cmp	w20, #0x0
   80c94:	5400022d 	b.le	80cd8 <_Z15ParseLongBinarymi+0x88>
   80c98:	51000686 	sub	w6, w20, #0x1
   80c9c:	d2800003 	mov	x3, #0x0                   	// #0
   80ca0:	52800025 	mov	w5, #0x1                   	// #1
   80ca4:	52800604 	mov	w4, #0x30                  	// #48
   80ca8:	52800621 	mov	w1, #0x31                  	// #49
   80cac:	14000002 	b	80cb4 <_Z15ParseLongBinarymi+0x64>
   80cb0:	f9400260 	ldr	x0, [x19]
   80cb4:	4b0300c2 	sub	w2, w6, w3
   80cb8:	1ac220a2 	lsl	w2, w5, w2
   80cbc:	93407c42 	sxtw	x2, w2
   80cc0:	ea15005f 	tst	x2, x21
   80cc4:	1a841022 	csel	w2, w1, w4, ne  // ne = any
   80cc8:	38236802 	strb	w2, [x0, x3]
   80ccc:	91000463 	add	x3, x3, #0x1
   80cd0:	6b03029f 	cmp	w20, w3
   80cd4:	54fffeec 	b.gt	80cb0 <_Z15ParseLongBinarymi+0x60>
   80cd8:	aa1303e0 	mov	x0, x19
   80cdc:	a94153f3 	ldp	x19, x20, [sp, #16]
   80ce0:	f94013f5 	ldr	x21, [sp, #32]
   80ce4:	a8c37bfd 	ldp	x29, x30, [sp], #48
   80ce8:	d65f03c0 	ret
   80cec:	d503201f 	nop

0000000000080cf0 <_Z12ParseLongHexmi>:
   80cf0:	a9bd7bfd 	stp	x29, x30, [sp, #-48]!
   80cf4:	7100003f 	cmp	w1, #0x0
   80cf8:	910003fd 	mov	x29, sp
   80cfc:	a90153f3 	stp	x19, x20, [sp, #16]
   80d00:	11000c34 	add	w20, w1, #0x3
   80d04:	1a81b294 	csel	w20, w20, w1, lt  // lt = tstop
   80d08:	a9025bf5 	stp	x21, x22, [sp, #32]
   80d0c:	2a0103f3 	mov	w19, w1
   80d10:	aa0803f6 	mov	x22, x8
   80d14:	12800001 	mov	w1, #0xffffffff            	// #-1
   80d18:	b9000901 	str	w1, [x8, #8]
   80d1c:	3900311f 	strb	wzr, [x8, #12]
   80d20:	13027e94 	asr	w20, w20, #2
   80d24:	aa0003f5 	mov	x21, x0
   80d28:	2a1403e0 	mov	w0, w20
   80d2c:	97fffd81 	bl	80330 <malloc>
   80d30:	f90002c0 	str	x0, [x22]
   80d34:	52800021 	mov	w1, #0x1                   	// #1
   80d38:	b9000ad4 	str	w20, [x22, #8]
   80d3c:	390032c1 	strb	w1, [x22, #12]
   80d40:	71000e7f 	cmp	w19, #0x3
   80d44:	540002ad 	b.le	80d98 <_Z12ParseLongHexmi+0xa8>
   80d48:	51001263 	sub	w3, w19, #0x4
   80d4c:	d2800004 	mov	x4, #0x0                   	// #0
   80d50:	528001e6 	mov	w6, #0xf                   	// #15
   80d54:	d503201f 	nop
   80d58:	1ac320c2 	lsl	w2, w6, w3
   80d5c:	93407c42 	sxtw	x2, w2
   80d60:	8a150042 	and	x2, x2, x21
   80d64:	9ac32442 	lsr	x2, x2, x3
   80d68:	12001c41 	and	w1, w2, #0xff
   80d6c:	1100c025 	add	w5, w1, #0x30
   80d70:	1100dc21 	add	w1, w1, #0x37
   80d74:	7100245f 	cmp	w2, #0x9
   80d78:	12001c21 	and	w1, w1, #0xff
   80d7c:	12001ca2 	and	w2, w5, #0xff
   80d80:	51001063 	sub	w3, w3, #0x4
   80d84:	1a828021 	csel	w1, w1, w2, hi  // hi = pmore
   80d88:	38246801 	strb	w1, [x0, x4]
   80d8c:	91000484 	add	x4, x4, #0x1
   80d90:	6b04029f 	cmp	w20, w4
   80d94:	54fffe2c 	b.gt	80d58 <_Z12ParseLongHexmi+0x68>
   80d98:	aa1603e0 	mov	x0, x22
   80d9c:	a94153f3 	ldp	x19, x20, [sp, #16]
   80da0:	a9425bf5 	ldp	x21, x22, [sp, #32]
   80da4:	a8c37bfd 	ldp	x29, x30, [sp], #48
   80da8:	d65f03c0 	ret
   80dac:	d503201f 	nop

0000000000080db0 <_ZN6String9ParseLongEl22StringConversionFormati>:
   80db0:	a9bd7bfd 	stp	x29, x30, [sp, #-48]!
   80db4:	910003fd 	mov	x29, sp
   80db8:	a90153f3 	stp	x19, x20, [sp, #16]
   80dbc:	2a0203f3 	mov	w19, w2
   80dc0:	a9025bf5 	stp	x21, x22, [sp, #32]
   80dc4:	aa0803f5 	mov	x21, x8
   80dc8:	aa0003f6 	mov	x22, x0
   80dcc:	34000641 	cbz	w1, 80e94 <_ZN6String9ParseLongEl22StringConversionFormati+0xe4>
   80dd0:	7100083f 	cmp	w1, #0x2
   80dd4:	54000a00 	b.eq	80f14 <_ZN6String9ParseLongEl22StringConversionFormati+0x164>  // b.none
   80dd8:	aa0003e1 	mov	x1, x0
   80ddc:	52800014 	mov	w20, #0x0                   	// #0
   80de0:	b7f80540 	tbnz	x0, #63, 80e88 <_ZN6String9ParseLongEl22StringConversionFormati+0xd8>
   80de4:	b202e7e2 	mov	x2, #0xcccccccccccccccc    	// #-3689348814741910324
   80de8:	2a0103f3 	mov	w19, w1
   80dec:	f29999a2 	movk	x2, #0xcccd
   80df0:	9bc27c20 	umulh	x0, x1, x2
   80df4:	f100243f 	cmp	x1, #0x9
   80df8:	11000694 	add	w20, w20, #0x1
   80dfc:	d343fc01 	lsr	x1, x0, #3
   80e00:	54ffff8c 	b.gt	80df0 <_ZN6String9ParseLongEl22StringConversionFormati+0x40>
   80e04:	2a1403e0 	mov	w0, w20
   80e08:	97fffd4a 	bl	80330 <malloc>
   80e0c:	93407e84 	sxtw	x4, w20
   80e10:	b203e7e5 	mov	x5, #0x6666666666666666    	// #7378697629483820646
   80e14:	d1000484 	sub	x4, x4, #0x1
   80e18:	93407e63 	sxtw	x3, w19
   80e1c:	8b040004 	add	x4, x0, x4
   80e20:	f28ccce5 	movk	x5, #0x6667
   80e24:	d503201f 	nop
   80e28:	9b457c61 	smulh	x1, x3, x5
   80e2c:	f100247f 	cmp	x3, #0x9
   80e30:	9342fc21 	asr	x1, x1, #2
   80e34:	cb83fc21 	sub	x1, x1, x3, asr #63
   80e38:	8b010822 	add	x2, x1, x1, lsl #2
   80e3c:	cb020462 	sub	x2, x3, x2, lsl #1
   80e40:	aa0103e3 	mov	x3, x1
   80e44:	1100c041 	add	w1, w2, #0x30
   80e48:	381ff481 	strb	w1, [x4], #-1
   80e4c:	54fffeec 	b.gt	80e28 <_ZN6String9ParseLongEl22StringConversionFormati+0x78>
   80e50:	b7f80176 	tbnz	x22, #63, 80e7c <_ZN6String9ParseLongEl22StringConversionFormati+0xcc>
   80e54:	52800021 	mov	w1, #0x1                   	// #1
   80e58:	f90002a0 	str	x0, [x21]
   80e5c:	b9000ab4 	str	w20, [x21, #8]
   80e60:	390032a1 	strb	w1, [x21, #12]
   80e64:	97fffd57 	bl	803c0 <free>
   80e68:	aa1503e0 	mov	x0, x21
   80e6c:	a94153f3 	ldp	x19, x20, [sp, #16]
   80e70:	a9425bf5 	ldp	x21, x22, [sp, #32]
   80e74:	a8c37bfd 	ldp	x29, x30, [sp], #48
   80e78:	d65f03c0 	ret
   80e7c:	528005a1 	mov	w1, #0x2d                  	// #45
   80e80:	39000081 	strb	w1, [x4]
   80e84:	17fffff4 	b	80e54 <_ZN6String9ParseLongEl22StringConversionFormati+0xa4>
   80e88:	cb0003e1 	neg	x1, x0
   80e8c:	52800034 	mov	w20, #0x1                   	// #1
   80e90:	17ffffd5 	b	80de4 <_ZN6String9ParseLongEl22StringConversionFormati+0x34>
   80e94:	12800000 	mov	w0, #0xffffffff            	// #-1
   80e98:	b9000900 	str	w0, [x8, #8]
   80e9c:	3900311f 	strb	wzr, [x8, #12]
   80ea0:	2a0203e0 	mov	w0, w2
   80ea4:	97fffd23 	bl	80330 <malloc>
   80ea8:	f90002a0 	str	x0, [x21]
   80eac:	52800021 	mov	w1, #0x1                   	// #1
   80eb0:	b9000ab3 	str	w19, [x21, #8]
   80eb4:	390032a1 	strb	w1, [x21, #12]
   80eb8:	7100027f 	cmp	w19, #0x0
   80ebc:	51000666 	sub	w6, w19, #0x1
   80ec0:	d2800003 	mov	x3, #0x0                   	// #0
   80ec4:	52800025 	mov	w5, #0x1                   	// #1
   80ec8:	52800604 	mov	w4, #0x30                  	// #48
   80ecc:	52800622 	mov	w2, #0x31                  	// #49
   80ed0:	5400006c 	b.gt	80edc <_ZN6String9ParseLongEl22StringConversionFormati+0x12c>
   80ed4:	17ffffe5 	b	80e68 <_ZN6String9ParseLongEl22StringConversionFormati+0xb8>
   80ed8:	f94002a0 	ldr	x0, [x21]
   80edc:	4b0300c1 	sub	w1, w6, w3
   80ee0:	1ac120a1 	lsl	w1, w5, w1
   80ee4:	93407c21 	sxtw	x1, w1
   80ee8:	ea16003f 	tst	x1, x22
   80eec:	1a841041 	csel	w1, w2, w4, ne  // ne = any
   80ef0:	38236801 	strb	w1, [x0, x3]
   80ef4:	91000463 	add	x3, x3, #0x1
   80ef8:	6b03027f 	cmp	w19, w3
   80efc:	54fffeec 	b.gt	80ed8 <_ZN6String9ParseLongEl22StringConversionFormati+0x128>
   80f00:	aa1503e0 	mov	x0, x21
   80f04:	a94153f3 	ldp	x19, x20, [sp, #16]
   80f08:	a9425bf5 	ldp	x21, x22, [sp, #32]
   80f0c:	a8c37bfd 	ldp	x29, x30, [sp], #48
   80f10:	d65f03c0 	ret
   80f14:	7100005f 	cmp	w2, #0x0
   80f18:	11000c54 	add	w20, w2, #0x3
   80f1c:	1a82b294 	csel	w20, w20, w2, lt  // lt = tstop
   80f20:	12800000 	mov	w0, #0xffffffff            	// #-1
   80f24:	b9000900 	str	w0, [x8, #8]
   80f28:	3900311f 	strb	wzr, [x8, #12]
   80f2c:	13027e94 	asr	w20, w20, #2
   80f30:	2a1403e0 	mov	w0, w20
   80f34:	97fffcff 	bl	80330 <malloc>
   80f38:	f90002a0 	str	x0, [x21]
   80f3c:	52800021 	mov	w1, #0x1                   	// #1
   80f40:	b9000ab4 	str	w20, [x21, #8]
   80f44:	390032a1 	strb	w1, [x21, #12]
   80f48:	71000e7f 	cmp	w19, #0x3
   80f4c:	54fff8ed 	b.le	80e68 <_ZN6String9ParseLongEl22StringConversionFormati+0xb8>
   80f50:	51001273 	sub	w19, w19, #0x4
   80f54:	d2800003 	mov	x3, #0x0                   	// #0
   80f58:	528001e5 	mov	w5, #0xf                   	// #15
   80f5c:	d503201f 	nop
   80f60:	1ad320a2 	lsl	w2, w5, w19
   80f64:	93407c42 	sxtw	x2, w2
   80f68:	8a160042 	and	x2, x2, x22
   80f6c:	9ad32442 	lsr	x2, x2, x19
   80f70:	12001c41 	and	w1, w2, #0xff
   80f74:	1100c024 	add	w4, w1, #0x30
   80f78:	1100dc21 	add	w1, w1, #0x37
   80f7c:	7100245f 	cmp	w2, #0x9
   80f80:	12001c21 	and	w1, w1, #0xff
   80f84:	12001c82 	and	w2, w4, #0xff
   80f88:	51001273 	sub	w19, w19, #0x4
   80f8c:	1a828021 	csel	w1, w1, w2, hi  // hi = pmore
   80f90:	38236801 	strb	w1, [x0, x3]
   80f94:	91000463 	add	x3, x3, #0x1
   80f98:	6b03029f 	cmp	w20, w3
   80f9c:	54fffe2c 	b.gt	80f60 <_ZN6String9ParseLongEl22StringConversionFormati+0x1b0>
   80fa0:	aa1503e0 	mov	x0, x21
   80fa4:	a94153f3 	ldp	x19, x20, [sp, #16]
   80fa8:	a9425bf5 	ldp	x21, x22, [sp, #32]
   80fac:	a8c37bfd 	ldp	x29, x30, [sp], #48
   80fb0:	d65f03c0 	ret
   80fb4:	d503201f 	nop
   80fb8:	d503201f 	nop
   80fbc:	d503201f 	nop

0000000000080fc0 <_ZN6String9ParseLongEm22StringConversionFormati>:
   80fc0:	a9bc7bfd 	stp	x29, x30, [sp, #-64]!
   80fc4:	910003fd 	mov	x29, sp
   80fc8:	a90153f3 	stp	x19, x20, [sp, #16]
   80fcc:	aa0003f3 	mov	x19, x0
   80fd0:	a9025bf5 	stp	x21, x22, [sp, #32]
   80fd4:	2a0203f5 	mov	w21, w2
   80fd8:	f9001bf7 	str	x23, [sp, #48]
   80fdc:	aa0803f7 	mov	x23, x8
   80fe0:	34000541 	cbz	w1, 81088 <_ZN6String9ParseLongEm22StringConversionFormati+0xc8>
   80fe4:	2a0003f4 	mov	w20, w0
   80fe8:	b202e7e0 	mov	x0, #0xcccccccccccccccc    	// #-3689348814741910324
   80fec:	7100083f 	cmp	w1, #0x2
   80ff0:	52800016 	mov	w22, #0x0                   	// #0
   80ff4:	f29999a0 	movk	x0, #0xcccd
   80ff8:	540008a0 	b.eq	8110c <_ZN6String9ParseLongEm22StringConversionFormati+0x14c>  // b.none
   80ffc:	d503201f 	nop
   81000:	9bc07e61 	umulh	x1, x19, x0
   81004:	f100267f 	cmp	x19, #0x9
   81008:	110006d6 	add	w22, w22, #0x1
   8100c:	d343fc33 	lsr	x19, x1, #3
   81010:	54ffff88 	b.hi	81000 <_ZN6String9ParseLongEm22StringConversionFormati+0x40>  // b.pmore
   81014:	2a1603e0 	mov	w0, w22
   81018:	97fffcc6 	bl	80330 <malloc>
   8101c:	93407ec4 	sxtw	x4, w22
   81020:	b202e7e5 	mov	x5, #0xcccccccccccccccc    	// #-3689348814741910324
   81024:	d1000484 	sub	x4, x4, #0x1
   81028:	93407e83 	sxtw	x3, w20
   8102c:	8b040004 	add	x4, x0, x4
   81030:	f29999a5 	movk	x5, #0xcccd
   81034:	d503201f 	nop
   81038:	9bc57c62 	umulh	x2, x3, x5
   8103c:	f100247f 	cmp	x3, #0x9
   81040:	d343fc42 	lsr	x2, x2, #3
   81044:	8b020841 	add	x1, x2, x2, lsl #2
   81048:	cb010461 	sub	x1, x3, x1, lsl #1
   8104c:	aa0203e3 	mov	x3, x2
   81050:	1100c021 	add	w1, w1, #0x30
   81054:	381ff481 	strb	w1, [x4], #-1
   81058:	54ffff08 	b.hi	81038 <_ZN6String9ParseLongEm22StringConversionFormati+0x78>  // b.pmore
   8105c:	52800021 	mov	w1, #0x1                   	// #1
   81060:	f90002e0 	str	x0, [x23]
   81064:	b9000af6 	str	w22, [x23, #8]
   81068:	390032e1 	strb	w1, [x23, #12]
   8106c:	97fffcd5 	bl	803c0 <free>
   81070:	aa1703e0 	mov	x0, x23
   81074:	a94153f3 	ldp	x19, x20, [sp, #16]
   81078:	a9425bf5 	ldp	x21, x22, [sp, #32]
   8107c:	f9401bf7 	ldr	x23, [sp, #48]
   81080:	a8c47bfd 	ldp	x29, x30, [sp], #64
   81084:	d65f03c0 	ret
   81088:	12800000 	mov	w0, #0xffffffff            	// #-1
   8108c:	b9000900 	str	w0, [x8, #8]
   81090:	3900311f 	strb	wzr, [x8, #12]
   81094:	2a0203e0 	mov	w0, w2
   81098:	97fffca6 	bl	80330 <malloc>
   8109c:	f90002e0 	str	x0, [x23]
   810a0:	52800021 	mov	w1, #0x1                   	// #1
   810a4:	b9000af5 	str	w21, [x23, #8]
   810a8:	390032e1 	strb	w1, [x23, #12]
   810ac:	710002bf 	cmp	w21, #0x0
   810b0:	510006a6 	sub	w6, w21, #0x1
   810b4:	d2800003 	mov	x3, #0x0                   	// #0
   810b8:	52800025 	mov	w5, #0x1                   	// #1
   810bc:	52800604 	mov	w4, #0x30                  	// #48
   810c0:	52800622 	mov	w2, #0x31                  	// #49
   810c4:	5400006c 	b.gt	810d0 <_ZN6String9ParseLongEm22StringConversionFormati+0x110>
   810c8:	17ffffea 	b	81070 <_ZN6String9ParseLongEm22StringConversionFormati+0xb0>
   810cc:	f94002e0 	ldr	x0, [x23]
   810d0:	4b0300c1 	sub	w1, w6, w3
   810d4:	1ac120a1 	lsl	w1, w5, w1
   810d8:	93407c21 	sxtw	x1, w1
   810dc:	ea13003f 	tst	x1, x19
   810e0:	1a841041 	csel	w1, w2, w4, ne  // ne = any
   810e4:	38236801 	strb	w1, [x0, x3]
   810e8:	91000463 	add	x3, x3, #0x1
   810ec:	6b0302bf 	cmp	w21, w3
   810f0:	54fffeec 	b.gt	810cc <_ZN6String9ParseLongEm22StringConversionFormati+0x10c>
   810f4:	aa1703e0 	mov	x0, x23
   810f8:	a94153f3 	ldp	x19, x20, [sp, #16]
   810fc:	a9425bf5 	ldp	x21, x22, [sp, #32]
   81100:	f9401bf7 	ldr	x23, [sp, #48]
   81104:	a8c47bfd 	ldp	x29, x30, [sp], #64
   81108:	d65f03c0 	ret
   8110c:	7100005f 	cmp	w2, #0x0
   81110:	11000c54 	add	w20, w2, #0x3
   81114:	1a82b294 	csel	w20, w20, w2, lt  // lt = tstop
   81118:	12800000 	mov	w0, #0xffffffff            	// #-1
   8111c:	b9000900 	str	w0, [x8, #8]
   81120:	3900311f 	strb	wzr, [x8, #12]
   81124:	13027e94 	asr	w20, w20, #2
   81128:	2a1403e0 	mov	w0, w20
   8112c:	97fffc81 	bl	80330 <malloc>
   81130:	f90002e0 	str	x0, [x23]
   81134:	52800021 	mov	w1, #0x1                   	// #1
   81138:	b9000af4 	str	w20, [x23, #8]
   8113c:	390032e1 	strb	w1, [x23, #12]
   81140:	71000ebf 	cmp	w21, #0x3
   81144:	54fff96d 	b.le	81070 <_ZN6String9ParseLongEm22StringConversionFormati+0xb0>
   81148:	510012b5 	sub	w21, w21, #0x4
   8114c:	d2800003 	mov	x3, #0x0                   	// #0
   81150:	528001e5 	mov	w5, #0xf                   	// #15
   81154:	d503201f 	nop
   81158:	1ad520a2 	lsl	w2, w5, w21
   8115c:	93407c42 	sxtw	x2, w2
   81160:	8a130042 	and	x2, x2, x19
   81164:	9ad52442 	lsr	x2, x2, x21
   81168:	12001c41 	and	w1, w2, #0xff
   8116c:	1100c024 	add	w4, w1, #0x30
   81170:	1100dc21 	add	w1, w1, #0x37
   81174:	7100245f 	cmp	w2, #0x9
   81178:	12001c21 	and	w1, w1, #0xff
   8117c:	12001c82 	and	w2, w4, #0xff
   81180:	510012b5 	sub	w21, w21, #0x4
   81184:	1a828021 	csel	w1, w1, w2, hi  // hi = pmore
   81188:	38236801 	strb	w1, [x0, x3]
   8118c:	91000463 	add	x3, x3, #0x1
   81190:	6b03029f 	cmp	w20, w3
   81194:	54fffe2c 	b.gt	81158 <_ZN6String9ParseLongEm22StringConversionFormati+0x198>
   81198:	aa1703e0 	mov	x0, x23
   8119c:	a94153f3 	ldp	x19, x20, [sp, #16]
   811a0:	a9425bf5 	ldp	x21, x22, [sp, #32]
   811a4:	f9401bf7 	ldr	x23, [sp, #48]
   811a8:	a8c47bfd 	ldp	x29, x30, [sp], #64
   811ac:	d65f03c0 	ret

00000000000811b0 <_GLOBAL__sub_I__ZN6StringD2Ev>:
   811b0:	d0000020 	adrp	x0, 87000 <_ZL4mbox+0xfe0>
   811b4:	9100c000 	add	x0, x0, #0x30
   811b8:	17fffc52 	b	80300 <_ZN8RPIBoardC1Ev>
   811bc:	00000000 	udf	#0

00000000000811c0 <_ZN8PSF2FontC1EPc>:
   811c0:	a9be7bfd 	stp	x29, x30, [sp, #-32]!
   811c4:	910003fd 	mov	x29, sp
   811c8:	a90153f3 	stp	x19, x20, [sp, #16]
   811cc:	aa0003f4 	mov	x20, x0
   811d0:	b9400020 	ldr	w0, [x1]
   811d4:	aa0103f3 	mov	x19, x1
   811d8:	97fffc82 	bl	803e0 <_Z5magicj>
   811dc:	b9000260 	str	w0, [x19]
   811e0:	aa1403e3 	mov	x3, x20
   811e4:	b9401264 	ldr	w4, [x19, #16]
   811e8:	d2800002 	mov	x2, #0x0                   	// #0
   811ec:	f8008473 	str	x19, [x3], #8
   811f0:	1400000a 	b	81218 <_ZN8PSF2FontC1EPc+0x58>
   811f4:	b9401660 	ldr	w0, [x19, #20]
   811f8:	b9400a61 	ldr	w1, [x19, #8]
   811fc:	1b027c00 	mul	w0, w0, w2
   81200:	8b010000 	add	x0, x0, x1
   81204:	8b000260 	add	x0, x19, x0
   81208:	f8227860 	str	x0, [x3, x2, lsl #3]
   8120c:	91000442 	add	x2, x2, #0x1
   81210:	f102005f 	cmp	x2, #0x80
   81214:	54000060 	b.eq	81220 <_ZN8PSF2FontC1EPc+0x60>  // b.none
   81218:	6b02009f 	cmp	w4, w2
   8121c:	54fffecc 	b.gt	811f4 <_ZN8PSF2FontC1EPc+0x34>
   81220:	a94153f3 	ldp	x19, x20, [sp, #16]
   81224:	a8c27bfd 	ldp	x29, x30, [sp], #32
   81228:	d65f03c0 	ret
   8122c:	d503201f 	nop

0000000000081230 <_ZN8PSF2FontC1Ev>:
   81230:	d65f03c0 	ret
   81234:	d503201f 	nop
   81238:	d503201f 	nop
   8123c:	d503201f 	nop

0000000000081240 <_ZN8PSF2Font17HasCharacterGlyphEc>:
   81240:	f9400002 	ldr	x2, [x0]
   81244:	12001c21 	and	w1, w1, #0xff
   81248:	b9401042 	ldr	w2, [x2, #16]
   8124c:	6b02003f 	cmp	w1, w2
   81250:	540000c2 	b.cs	81268 <_ZN8PSF2Font17HasCharacterGlyphEc+0x28>  // b.hs, b.nlast
   81254:	8b210c00 	add	x0, x0, w1, uxtb #3
   81258:	f9400400 	ldr	x0, [x0, #8]
   8125c:	f100001f 	cmp	x0, #0x0
   81260:	1a9f07e0 	cset	w0, ne  // ne = any
   81264:	d65f03c0 	ret
   81268:	52800000 	mov	w0, #0x0                   	// #0
   8126c:	d65f03c0 	ret

0000000000081270 <_ZN8PSF2Font8GetGlyphEc>:
   81270:	f9400002 	ldr	x2, [x0]
   81274:	12001c21 	and	w1, w1, #0xff
   81278:	b9401042 	ldr	w2, [x2, #16]
   8127c:	6b02003f 	cmp	w1, w2
   81280:	54000082 	b.cs	81290 <_ZN8PSF2Font8GetGlyphEc+0x20>  // b.hs, b.nlast
   81284:	8b210c00 	add	x0, x0, w1, uxtb #3
   81288:	f9400400 	ldr	x0, [x0, #8]
   8128c:	d65f03c0 	ret
   81290:	d2800000 	mov	x0, #0x0                   	// #0
   81294:	d65f03c0 	ret
	...

00000000000812a0 <_GLOBAL__sub_I__ZN8PSF2FontC2EPc>:
   812a0:	d0000020 	adrp	x0, 87000 <_ZL4mbox+0xfe0>
   812a4:	91014000 	add	x0, x0, #0x50
   812a8:	17fffc16 	b	80300 <_ZN8RPIBoardC1Ev>
   812ac:	00000000 	udf	#0

00000000000812b0 <_ZN5PointC1Ev>:
   812b0:	f900001f 	str	xzr, [x0]
   812b4:	d65f03c0 	ret
   812b8:	d503201f 	nop
   812bc:	d503201f 	nop

00000000000812c0 <_ZN5PointC1Eii>:
   812c0:	29000801 	stp	w1, w2, [x0]
   812c4:	d65f03c0 	ret
   812c8:	d503201f 	nop
   812cc:	d503201f 	nop

00000000000812d0 <_ZN4SizeC1Ev>:
   812d0:	f900001f 	str	xzr, [x0]
   812d4:	d65f03c0 	ret
   812d8:	d503201f 	nop
   812dc:	d503201f 	nop

00000000000812e0 <_ZN4SizeC1Eii>:
   812e0:	29000801 	stp	w1, w2, [x0]
   812e4:	d65f03c0 	ret
   812e8:	d503201f 	nop
   812ec:	d503201f 	nop

00000000000812f0 <_ZN9RectangleC1Ev>:
   812f0:	a9007c1f 	stp	xzr, xzr, [x0]
   812f4:	d65f03c0 	ret
   812f8:	d503201f 	nop
   812fc:	d503201f 	nop

0000000000081300 <_ZN9RectangleC1Eiiii>:
   81300:	29000801 	stp	w1, w2, [x0]
   81304:	29011003 	stp	w3, w4, [x0, #8]
   81308:	d65f03c0 	ret
   8130c:	d503201f 	nop

0000000000081310 <_ZN5ColorC1Eccc>:
   81310:	12001c21 	and	w1, w1, #0xff
   81314:	53181c42 	ubfiz	w2, w2, #8, #8
   81318:	53101c63 	ubfiz	w3, w3, #16, #8
   8131c:	2a010042 	orr	w2, w2, w1
   81320:	2a030042 	orr	w2, w2, w3
   81324:	b9000002 	str	w2, [x0]
   81328:	d65f03c0 	ret
   8132c:	d503201f 	nop

0000000000081330 <_ZN5ColorC1Ecccc>:
   81330:	12001c21 	and	w1, w1, #0xff
   81334:	53101c63 	ubfiz	w3, w3, #16, #8
   81338:	53181c42 	ubfiz	w2, w2, #8, #8
   8133c:	2a046064 	orr	w4, w3, w4, lsl #24
   81340:	2a010043 	orr	w3, w2, w1
   81344:	2a030083 	orr	w3, w4, w3
   81348:	b9000003 	str	w3, [x0]
   8134c:	d65f03c0 	ret

0000000000081350 <_ZN5Color4getREv>:
   81350:	39400400 	ldrb	w0, [x0, #1]
   81354:	d65f03c0 	ret
   81358:	d503201f 	nop
   8135c:	d503201f 	nop

0000000000081360 <_ZN5Color4setREc>:
   81360:	39000401 	strb	w1, [x0, #1]
   81364:	d65f03c0 	ret
   81368:	d503201f 	nop
   8136c:	d503201f 	nop

0000000000081370 <_ZN5Color4getGEv>:
   81370:	39400800 	ldrb	w0, [x0, #2]
   81374:	d65f03c0 	ret
   81378:	d503201f 	nop
   8137c:	d503201f 	nop

0000000000081380 <_ZN5Color4setGEc>:
   81380:	39000801 	strb	w1, [x0, #2]
   81384:	d65f03c0 	ret
   81388:	d503201f 	nop
   8138c:	d503201f 	nop

0000000000081390 <_ZN5Color4getBEv>:
   81390:	39400c00 	ldrb	w0, [x0, #3]
   81394:	d65f03c0 	ret
   81398:	d503201f 	nop
   8139c:	d503201f 	nop

00000000000813a0 <_ZN5Color4setBEc>:
   813a0:	39000c01 	strb	w1, [x0, #3]
   813a4:	d65f03c0 	ret
   813a8:	d503201f 	nop
   813ac:	d503201f 	nop

00000000000813b0 <_ZN5Color4getAEv>:
   813b0:	39400000 	ldrb	w0, [x0]
   813b4:	d65f03c0 	ret
   813b8:	d503201f 	nop
   813bc:	d503201f 	nop

00000000000813c0 <_ZN5Color4setAEc>:
   813c0:	39000001 	strb	w1, [x0]
   813c4:	d65f03c0 	ret
   813c8:	d503201f 	nop
   813cc:	d503201f 	nop

00000000000813d0 <_ZN8GraphicsC1E11Framebuffer>:
   813d0:	a9000801 	stp	x1, x2, [x0]
   813d4:	d65f03c0 	ret
   813d8:	d503201f 	nop
   813dc:	d503201f 	nop

00000000000813e0 <_ZN8Graphics13GetBufferSizeEv>:
   813e0:	29410001 	ldp	w1, w0, [x0, #8]
   813e4:	1b007c20 	mul	w0, w1, w0
   813e8:	531e7400 	lsl	w0, w0, #2
   813ec:	d65f03c0 	ret

00000000000813f0 <_ZN8Graphics4FillE5Color>:
   813f0:	29410c02 	ldp	w2, w3, [x0, #8]
   813f4:	f9400000 	ldr	x0, [x0]
   813f8:	1b037c42 	mul	w2, w2, w3
   813fc:	531e7442 	lsl	w2, w2, #2
   81400:	7100005f 	cmp	w2, #0x0
   81404:	51000445 	sub	w5, w2, #0x1
   81408:	5400052d 	b.le	814ac <_ZN8Graphics4FillE5Color+0xbc>
   8140c:	710014bf 	cmp	w5, #0x5
   81410:	53020804 	ubfx	w4, w0, #2, #1
   81414:	540002c9 	b.ls	8146c <_ZN8Graphics4FillE5Color+0x7c>  // b.plast
   81418:	aa0003e8 	mov	x8, x0
   8141c:	34000064 	cbz	w4, 81428 <_ZN8Graphics4FillE5Color+0x38>
   81420:	51000845 	sub	w5, w2, #0x2
   81424:	b8004501 	str	w1, [x8], #4
   81428:	4b040042 	sub	w2, w2, w4
   8142c:	d2800003 	mov	x3, #0x0                   	// #0
   81430:	d37e0086 	ubfiz	x6, x4, #2, #1
   81434:	b3407c23 	bfxil	x3, x1, #0, #32
   81438:	53017c44 	lsr	w4, w2, #1
   8143c:	8b060000 	add	x0, x0, x6
   81440:	b3607c23 	bfi	x3, x1, #32, #32
   81444:	8b244c04 	add	x4, x0, w4, uxtw #3
   81448:	f8008403 	str	x3, [x0], #8
   8144c:	eb04001f 	cmp	x0, x4
   81450:	54ffffc1 	b.ne	81448 <_ZN8Graphics4FillE5Color+0x58>  // b.any
   81454:	927f7840 	and	x0, x2, #0xfffffffe
   81458:	121f7843 	and	w3, w2, #0xfffffffe
   8145c:	4b0300a5 	sub	w5, w5, w3
   81460:	6b03005f 	cmp	w2, w3
   81464:	8b000900 	add	x0, x8, x0, lsl #2
   81468:	54000220 	b.eq	814ac <_ZN8Graphics4FillE5Color+0xbc>  // b.none
   8146c:	b9000001 	str	w1, [x0]
   81470:	710000bf 	cmp	w5, #0x0
   81474:	540001cd 	b.le	814ac <_ZN8Graphics4FillE5Color+0xbc>
   81478:	b9000401 	str	w1, [x0, #4]
   8147c:	710004bf 	cmp	w5, #0x1
   81480:	5400016d 	b.le	814ac <_ZN8Graphics4FillE5Color+0xbc>
   81484:	b9000801 	str	w1, [x0, #8]
   81488:	710008bf 	cmp	w5, #0x2
   8148c:	5400010d 	b.le	814ac <_ZN8Graphics4FillE5Color+0xbc>
   81490:	b9000c01 	str	w1, [x0, #12]
   81494:	71000cbf 	cmp	w5, #0x3
   81498:	540000ad 	b.le	814ac <_ZN8Graphics4FillE5Color+0xbc>
   8149c:	b9001001 	str	w1, [x0, #16]
   814a0:	710010bf 	cmp	w5, #0x4
   814a4:	5400004d 	b.le	814ac <_ZN8Graphics4FillE5Color+0xbc>
   814a8:	b9001401 	str	w1, [x0, #20]
   814ac:	d65f03c0 	ret

00000000000814b0 <_ZN8Graphics13FillRectangleE9Rectangle5Color>:
   814b0:	b9400805 	ldr	w5, [x0, #8]
   814b4:	d360fc24 	lsr	x4, x1, #32
   814b8:	f9400006 	ldr	x6, [x0]
   814bc:	9360fc4d 	asr	x13, x2, #32
   814c0:	2a0203e9 	mov	w9, w2
   814c4:	710001bf 	cmp	w13, #0x0
   814c8:	1b050484 	madd	w4, w4, w5, w1
   814cc:	8b24c8c6 	add	x6, x6, w4, sxtw #2
   814d0:	540007ad 	b.le	815c4 <_ZN8Graphics13FillRectangleE9Rectangle5Color+0x114>
   814d4:	7100005f 	cmp	w2, #0x0
   814d8:	5400076d 	b.le	815c4 <_ZN8Graphics13FillRectangleE9Rectangle5Color+0x114>
   814dc:	2a0203ef 	mov	w15, w2
   814e0:	5100044e 	sub	w14, w2, #0x1
   814e4:	2a0203ec 	mov	w12, w2
   814e8:	5280000a 	mov	w10, #0x0                   	// #0
   814ec:	d503201f 	nop
   814f0:	710015df 	cmp	w14, #0x5
   814f4:	530208c1 	ubfx	w1, w6, #2, #1
   814f8:	54000689 	b.ls	815c8 <_ZN8Graphics13FillRectangleE9Rectangle5Color+0x118>  // b.plast
   814fc:	aa0603eb 	mov	x11, x6
   81500:	52800005 	mov	w5, #0x0                   	// #0
   81504:	34000061 	cbz	w1, 81510 <_ZN8Graphics13FillRectangleE9Rectangle5Color+0x60>
   81508:	52800025 	mov	w5, #0x1                   	// #1
   8150c:	b8004563 	str	w3, [x11], #4
   81510:	4b0101e7 	sub	w7, w15, w1
   81514:	d2800002 	mov	x2, #0x0                   	// #0
   81518:	d37e0021 	ubfiz	x1, x1, #2, #1
   8151c:	b3407c62 	bfxil	x2, x3, #0, #32
   81520:	53017ce4 	lsr	w4, w7, #1
   81524:	8b0100c1 	add	x1, x6, x1
   81528:	b3607c62 	bfi	x2, x3, #32, #32
   8152c:	8b244c24 	add	x4, x1, w4, uxtw #3
   81530:	f8008422 	str	x2, [x1], #8
   81534:	eb01009f 	cmp	x4, x1
   81538:	54ffffc1 	b.ne	81530 <_ZN8Graphics13FillRectangleE9Rectangle5Color+0x80>  // b.any
   8153c:	927f78e2 	and	x2, x7, #0xfffffffe
   81540:	121f78e4 	and	w4, w7, #0xfffffffe
   81544:	0b050081 	add	w1, w4, w5
   81548:	6b0400ff 	cmp	w7, w4
   8154c:	8b020962 	add	x2, x11, x2, lsl #2
   81550:	540002c0 	b.eq	815a8 <_ZN8Graphics13FillRectangleE9Rectangle5Color+0xf8>  // b.none
   81554:	b9000043 	str	w3, [x2]
   81558:	11000424 	add	w4, w1, #0x1
   8155c:	6b04013f 	cmp	w9, w4
   81560:	5400024d 	b.le	815a8 <_ZN8Graphics13FillRectangleE9Rectangle5Color+0xf8>
   81564:	b9000443 	str	w3, [x2, #4]
   81568:	11000824 	add	w4, w1, #0x2
   8156c:	6b04013f 	cmp	w9, w4
   81570:	540001cd 	b.le	815a8 <_ZN8Graphics13FillRectangleE9Rectangle5Color+0xf8>
   81574:	b9000843 	str	w3, [x2, #8]
   81578:	11000c24 	add	w4, w1, #0x3
   8157c:	6b04013f 	cmp	w9, w4
   81580:	5400014d 	b.le	815a8 <_ZN8Graphics13FillRectangleE9Rectangle5Color+0xf8>
   81584:	b9000c43 	str	w3, [x2, #12]
   81588:	11001024 	add	w4, w1, #0x4
   8158c:	6b04013f 	cmp	w9, w4
   81590:	540000cd 	b.le	815a8 <_ZN8Graphics13FillRectangleE9Rectangle5Color+0xf8>
   81594:	b9001043 	str	w3, [x2, #16]
   81598:	11001421 	add	w1, w1, #0x5
   8159c:	6b01013f 	cmp	w9, w1
   815a0:	5400004d 	b.le	815a8 <_ZN8Graphics13FillRectangleE9Rectangle5Color+0xf8>
   815a4:	b9001443 	str	w3, [x2, #20]
   815a8:	b9400801 	ldr	w1, [x0, #8]
   815ac:	1100054a 	add	w10, w10, #0x1
   815b0:	6b0a01bf 	cmp	w13, w10
   815b4:	4b090021 	sub	w1, w1, w9
   815b8:	8b21c181 	add	x1, x12, w1, sxtw
   815bc:	8b0108c6 	add	x6, x6, x1, lsl #2
   815c0:	54fff981 	b.ne	814f0 <_ZN8Graphics13FillRectangleE9Rectangle5Color+0x40>  // b.any
   815c4:	d65f03c0 	ret
   815c8:	aa0603e2 	mov	x2, x6
   815cc:	52800001 	mov	w1, #0x0                   	// #0
   815d0:	17ffffe1 	b	81554 <_ZN8Graphics13FillRectangleE9Rectangle5Color+0xa4>
   815d4:	d503201f 	nop
   815d8:	d503201f 	nop
   815dc:	d503201f 	nop

00000000000815e0 <_ZN8Graphics8DrawCharEP8PSF2Font5Pointc5Color>:
   815e0:	a9bd7bfd 	stp	x29, x30, [sp, #-48]!
   815e4:	d360fc45 	lsr	x5, x2, #32
   815e8:	910003fd 	mov	x29, sp
   815ec:	a9025bf5 	stp	x21, x22, [sp, #32]
   815f0:	aa0103f6 	mov	x22, x1
   815f4:	2a0303e1 	mov	w1, w3
   815f8:	b9400803 	ldr	w3, [x0, #8]
   815fc:	aa0003f5 	mov	x21, x0
   81600:	a90153f3 	stp	x19, x20, [sp, #16]
   81604:	2a0403f4 	mov	w20, w4
   81608:	f9400013 	ldr	x19, [x0]
   8160c:	1b0308a5 	madd	w5, w5, w3, w2
   81610:	aa1603e0 	mov	x0, x22
   81614:	8b25ca73 	add	x19, x19, w5, sxtw #2
   81618:	97ffff16 	bl	81270 <_ZN8PSF2Font8GetGlyphEc>
   8161c:	39400006 	ldrb	w6, [x0]
   81620:	f94002c8 	ldr	x8, [x22]
   81624:	b9401901 	ldr	w1, [x8, #24]
   81628:	340005a1 	cbz	w1, 816dc <_ZN8Graphics8DrawCharEP8PSF2Font5Pointc5Color+0xfc>
   8162c:	b9401d05 	ldr	w5, [x8, #28]
   81630:	52800004 	mov	w4, #0x0                   	// #0
   81634:	52800027 	mov	w7, #0x1                   	// #1
   81638:	34000525 	cbz	w5, 816dc <_ZN8Graphics8DrawCharEP8PSF2Font5Pointc5Color+0xfc>
   8163c:	d503201f 	nop
   81640:	52800002 	mov	w2, #0x0                   	// #0
   81644:	52800103 	mov	w3, #0x8                   	// #8
   81648:	2a2203e1 	mvn	w1, w2
   8164c:	51000463 	sub	w3, w3, #0x1
   81650:	12000821 	and	w1, w1, #0x7
   81654:	11000442 	add	w2, w2, #0x1
   81658:	1ac120e1 	lsl	w1, w7, w1
   8165c:	6a06003f 	tst	w1, w6
   81660:	54000060 	b.eq	8166c <_ZN8Graphics8DrawCharEP8PSF2Font5Pointc5Color+0x8c>  // b.none
   81664:	b9000274 	str	w20, [x19]
   81668:	b9401d05 	ldr	w5, [x8, #28]
   8166c:	91001273 	add	x19, x19, #0x4
   81670:	6b05005f 	cmp	w2, w5
   81674:	540001e2 	b.cs	816b0 <_ZN8Graphics8DrawCharEP8PSF2Font5Pointc5Color+0xd0>  // b.hs, b.nlast
   81678:	35fffe83 	cbnz	w3, 81648 <_ZN8Graphics8DrawCharEP8PSF2Font5Pointc5Color+0x68>
   8167c:	2a2203e1 	mvn	w1, w2
   81680:	39400406 	ldrb	w6, [x0, #1]
   81684:	12000821 	and	w1, w1, #0x7
   81688:	52800103 	mov	w3, #0x8                   	// #8
   8168c:	91000400 	add	x0, x0, #0x1
   81690:	11000442 	add	w2, w2, #0x1
   81694:	1ac120e1 	lsl	w1, w7, w1
   81698:	51000463 	sub	w3, w3, #0x1
   8169c:	6a06003f 	tst	w1, w6
   816a0:	54fffe21 	b.ne	81664 <_ZN8Graphics8DrawCharEP8PSF2Font5Pointc5Color+0x84>  // b.any
   816a4:	91001273 	add	x19, x19, #0x4
   816a8:	6b05005f 	cmp	w2, w5
   816ac:	54fffe63 	b.cc	81678 <_ZN8Graphics8DrawCharEP8PSF2Font5Pointc5Color+0x98>  // b.lo, b.ul, b.last
   816b0:	b9400aa1 	ldr	w1, [x21, #8]
   816b4:	11000484 	add	w4, w4, #0x1
   816b8:	b9401902 	ldr	w2, [x8, #24]
   816bc:	91000403 	add	x3, x0, #0x1
   816c0:	4b050021 	sub	w1, w1, w5
   816c4:	39400406 	ldrb	w6, [x0, #1]
   816c8:	6b02009f 	cmp	w4, w2
   816cc:	8b010a73 	add	x19, x19, x1, lsl #2
   816d0:	54000062 	b.cs	816dc <_ZN8Graphics8DrawCharEP8PSF2Font5Pointc5Color+0xfc>  // b.hs, b.nlast
   816d4:	aa0303e0 	mov	x0, x3
   816d8:	35fffb45 	cbnz	w5, 81640 <_ZN8Graphics8DrawCharEP8PSF2Font5Pointc5Color+0x60>
   816dc:	a94153f3 	ldp	x19, x20, [sp, #16]
   816e0:	a9425bf5 	ldp	x21, x22, [sp, #32]
   816e4:	a8c37bfd 	ldp	x29, x30, [sp], #48
   816e8:	d65f03c0 	ret
   816ec:	d503201f 	nop

00000000000816f0 <_ZN8Graphics10DrawStringEP8PSF2Font5Point6String5Color>:
   816f0:	a9b97bfd 	stp	x29, x30, [sp, #-112]!
   816f4:	910003fd 	mov	x29, sp
   816f8:	a90153f3 	stp	x19, x20, [sp, #16]
   816fc:	aa0303f3 	mov	x19, x3
   81700:	aa0103f4 	mov	x20, x1
   81704:	a9025bf5 	stp	x21, x22, [sp, #32]
   81708:	aa0203f5 	mov	x21, x2
   8170c:	a90363f7 	stp	x23, x24, [sp, #48]
   81710:	aa0003f7 	mov	x23, x0
   81714:	2a0403f8 	mov	w24, w4
   81718:	aa0303e0 	mov	x0, x3
   8171c:	97fffc41 	bl	80820 <_ZN6String9GetLengthEv>
   81720:	b9006ff5 	str	w21, [sp, #108]
   81724:	7100001f 	cmp	w0, #0x0
   81728:	f9400273 	ldr	x19, [x19]
   8172c:	5400044d 	b.le	817b4 <_ZN8Graphics10DrawStringEP8PSF2Font5Point6String5Color+0xc4>
   81730:	a9046bf9 	stp	x25, x26, [sp, #64]
   81734:	d360feb9 	lsr	x25, x21, #32
   81738:	8b20c27a 	add	x26, x19, w0, sxtw
   8173c:	a90573fb 	stp	x27, x28, [sp, #80]
   81740:	39400276 	ldrb	w22, [x19]
   81744:	aa1403e0 	mov	x0, x20
   81748:	2a1603e1 	mov	w1, w22
   8174c:	71002adf 	cmp	w22, #0xa
   81750:	540000a1 	b.ne	81764 <_ZN8Graphics10DrawStringEP8PSF2Font5Point6String5Color+0x74>  // b.any
   81754:	f9400282 	ldr	x2, [x20]
   81758:	b9406ff5 	ldr	w21, [sp, #108]
   8175c:	b9401842 	ldr	w2, [x2, #24]
   81760:	0b020339 	add	w25, w25, w2
   81764:	97fffeb7 	bl	81240 <_ZN8PSF2Font17HasCharacterGlyphEc>
   81768:	2a0003e2 	mov	w2, w0
   8176c:	2a1803e4 	mov	w4, w24
   81770:	2a1603e3 	mov	w3, w22
   81774:	aa1403e1 	mov	x1, x20
   81778:	aa1703e0 	mov	x0, x23
   8177c:	72001c5f 	tst	w2, #0xff
   81780:	54000240 	b.eq	817c8 <_ZN8Graphics10DrawStringEP8PSF2Font5Point6String5Color+0xd8>  // b.none
   81784:	b3407ebb 	bfxil	x27, x21, #0, #32
   81788:	91000673 	add	x19, x19, #0x1
   8178c:	b3607f3b 	bfi	x27, x25, #32, #32
   81790:	aa1b03e2 	mov	x2, x27
   81794:	97ffff93 	bl	815e0 <_ZN8Graphics8DrawCharEP8PSF2Font5Pointc5Color>
   81798:	f9400280 	ldr	x0, [x20]
   8179c:	eb1a027f 	cmp	x19, x26
   817a0:	b9401c00 	ldr	w0, [x0, #28]
   817a4:	0b0002b5 	add	w21, w21, w0
   817a8:	54fffcc1 	b.ne	81740 <_ZN8Graphics10DrawStringEP8PSF2Font5Point6String5Color+0x50>  // b.any
   817ac:	a9446bf9 	ldp	x25, x26, [sp, #64]
   817b0:	a94573fb 	ldp	x27, x28, [sp, #80]
   817b4:	a94153f3 	ldp	x19, x20, [sp, #16]
   817b8:	a9425bf5 	ldp	x21, x22, [sp, #32]
   817bc:	a94363f7 	ldp	x23, x24, [sp, #48]
   817c0:	a8c77bfd 	ldp	x29, x30, [sp], #112
   817c4:	d65f03c0 	ret
   817c8:	b3407ebc 	bfxil	x28, x21, #0, #32
   817cc:	528007e3 	mov	w3, #0x3f                  	// #63
   817d0:	91000673 	add	x19, x19, #0x1
   817d4:	b3607f3c 	bfi	x28, x25, #32, #32
   817d8:	aa1c03e2 	mov	x2, x28
   817dc:	97ffff81 	bl	815e0 <_ZN8Graphics8DrawCharEP8PSF2Font5Pointc5Color>
   817e0:	f9400280 	ldr	x0, [x20]
   817e4:	eb1a027f 	cmp	x19, x26
   817e8:	b9401c00 	ldr	w0, [x0, #28]
   817ec:	0b0002b5 	add	w21, w21, w0
   817f0:	54fffa81 	b.ne	81740 <_ZN8Graphics10DrawStringEP8PSF2Font5Point6String5Color+0x50>  // b.any
   817f4:	17ffffee 	b	817ac <_ZN8Graphics10DrawStringEP8PSF2Font5Point6String5Color+0xbc>
	...

0000000000081800 <_ZN11FramebufferC1Eii>:
   81800:	a9bb7bfd 	stp	x29, x30, [sp, #-80]!
   81804:	910003fd 	mov	x29, sp
   81808:	a90153f3 	stp	x19, x20, [sp, #16]
   8180c:	2a0103f3 	mov	w19, w1
   81810:	aa0003f4 	mov	x20, x0
   81814:	91002000 	add	x0, x0, #0x8
   81818:	f90013f5 	str	x21, [sp, #32]
   8181c:	2a0203f5 	mov	w21, w2
   81820:	97fffeac 	bl	812d0 <_ZN4SizeC1Ev>
   81824:	2a1303e1 	mov	w1, w19
   81828:	2a1503e2 	mov	w2, w21
   8182c:	9100e3e0 	add	x0, sp, #0x38
   81830:	97fffeac 	bl	812e0 <_ZN4SizeC1Eii>
   81834:	f9401fe0 	ldr	x0, [sp, #56]
   81838:	f9000680 	str	x0, [x20, #8]
   8183c:	9100e3e0 	add	x0, sp, #0x38
   81840:	9400010c 	bl	81c70 <_ZN7MailboxC1Ev>
   81844:	9100e3e0 	add	x0, sp, #0x38
   81848:	94000116 	bl	81ca0 <_ZN7Mailbox5ResetEv>
   8184c:	2a1303e2 	mov	w2, w19
   81850:	2a1503e3 	mov	w3, w21
   81854:	9100e3e0 	add	x0, sp, #0x38
   81858:	52900061 	mov	w1, #0x8003                	// #32771
   8185c:	72a00081 	movk	w1, #0x4, lsl #16
   81860:	94000144 	bl	81d70 <_ZN7Mailbox18AddRequestPropertyEjjj>
   81864:	2a1503e3 	mov	w3, w21
   81868:	2a1303e2 	mov	w2, w19
   8186c:	9100e3e0 	add	x0, sp, #0x38
   81870:	52900081 	mov	w1, #0x8004                	// #32772
   81874:	72a00081 	movk	w1, #0x4, lsl #16
   81878:	9400013e 	bl	81d70 <_ZN7Mailbox18AddRequestPropertyEjjj>
   8187c:	52800402 	mov	w2, #0x20                  	// #32
   81880:	9100e3e0 	add	x0, sp, #0x38
   81884:	529000a1 	mov	w1, #0x8005                	// #32773
   81888:	72a00081 	movk	w1, #0x4, lsl #16
   8188c:	9400011d 	bl	81d00 <_ZN7Mailbox18AddRequestPropertyEjj>
   81890:	52800003 	mov	w3, #0x0                   	// #0
   81894:	52800002 	mov	w2, #0x0                   	// #0
   81898:	9100e3e0 	add	x0, sp, #0x38
   8189c:	52900121 	mov	w1, #0x8009                	// #32777
   818a0:	72a00081 	movk	w1, #0x4, lsl #16
   818a4:	94000133 	bl	81d70 <_ZN7Mailbox18AddRequestPropertyEjjj>
   818a8:	12800005 	mov	w5, #0xffffffff            	// #-1
   818ac:	52800004 	mov	w4, #0x0                   	// #0
   818b0:	52800043 	mov	w3, #0x2                   	// #2
   818b4:	52800002 	mov	w2, #0x0                   	// #0
   818b8:	9100e3e0 	add	x0, sp, #0x38
   818bc:	52900161 	mov	w1, #0x800b                	// #32779
   818c0:	72a00081 	movk	w1, #0x4, lsl #16
   818c4:	9400016f 	bl	81e80 <_ZN7Mailbox18AddRequestPropertyEjjjjj>
   818c8:	52800021 	mov	w1, #0x1                   	// #1
   818cc:	72a00081 	movk	w1, #0x4, lsl #16
   818d0:	52800003 	mov	w3, #0x0                   	// #0
   818d4:	52800002 	mov	w2, #0x0                   	// #0
   818d8:	9100e3e0 	add	x0, sp, #0x38
   818dc:	94000125 	bl	81d70 <_ZN7Mailbox18AddRequestPropertyEjjj>
   818e0:	aa0003f3 	mov	x19, x0
   818e4:	9100e3e0 	add	x0, sp, #0x38
   818e8:	94000192 	bl	81f30 <_ZN7Mailbox4PackEv>
   818ec:	d503201f 	nop
   818f0:	9100e3e0 	add	x0, sp, #0x38
   818f4:	9400019b 	bl	81f60 <_ZN7Mailbox5WriteEv>
   818f8:	b9400261 	ldr	w1, [x19]
   818fc:	34ffffa1 	cbz	w1, 818f0 <_ZN11FramebufferC1Eii+0xf0>
   81900:	92407421 	and	x1, x1, #0x3fffffff
   81904:	f94013f5 	ldr	x21, [sp, #32]
   81908:	f9000281 	str	x1, [x20]
   8190c:	a94153f3 	ldp	x19, x20, [sp, #16]
   81910:	a8c57bfd 	ldp	x29, x30, [sp], #80
   81914:	d65f03c0 	ret
	...

0000000000081920 <_ZN10GPIOHandleC1Ev>:
   81920:	d65f03c0 	ret
   81924:	d503201f 	nop
   81928:	d503201f 	nop
   8192c:	d503201f 	nop

0000000000081930 <_ZN10GPIOHandleC1Ei>:
   81930:	b9000001 	str	w1, [x0]
   81934:	7100243f 	cmp	w1, #0x9
   81938:	5400022c 	b.gt	8197c <_ZN10GPIOHandleC1Ei+0x4c>
   8193c:	0b010422 	add	w2, w1, w1, lsl #1
   81940:	d2a7e403 	mov	x3, #0x3f200000            	// #1059061760
   81944:	f9000403 	str	x3, [x0, #8]
   81948:	b9002c02 	str	w2, [x0, #44]
   8194c:	52800022 	mov	w2, #0x1                   	// #1
   81950:	d2800384 	mov	x4, #0x1c                  	// #28
   81954:	f2a7e404 	movk	x4, #0x3f20, lsl #16
   81958:	1ac12041 	lsl	w1, w2, w1
   8195c:	d2800503 	mov	x3, #0x28                  	// #40
   81960:	f2a7e403 	movk	x3, #0x3f20, lsl #16
   81964:	d2800682 	mov	x2, #0x34                  	// #52
   81968:	f2a7e402 	movk	x2, #0x3f20, lsl #16
   8196c:	a9010c04 	stp	x4, x3, [x0, #16]
   81970:	f9001002 	str	x2, [x0, #32]
   81974:	b9002801 	str	w1, [x0, #40]
   81978:	d65f03c0 	ret
   8197c:	71004c3f 	cmp	w1, #0x13
   81980:	5400010c 	b.gt	819a0 <_ZN10GPIOHandleC1Ei+0x70>
   81984:	51002822 	sub	w2, w1, #0xa
   81988:	d2800083 	mov	x3, #0x4                   	// #4
   8198c:	f2a7e403 	movk	x3, #0x3f20, lsl #16
   81990:	f9000403 	str	x3, [x0, #8]
   81994:	0b020442 	add	w2, w2, w2, lsl #1
   81998:	b9002c02 	str	w2, [x0, #44]
   8199c:	17ffffec 	b	8194c <_ZN10GPIOHandleC1Ei+0x1c>
   819a0:	7100743f 	cmp	w1, #0x1d
   819a4:	540001cd 	b.le	819dc <_ZN10GPIOHandleC1Ei+0xac>
   819a8:	71009c3f 	cmp	w1, #0x27
   819ac:	5400026d 	b.le	819f8 <_ZN10GPIOHandleC1Ei+0xc8>
   819b0:	7100c43f 	cmp	w1, #0x31
   819b4:	540004ad 	b.le	81a48 <_ZN10GPIOHandleC1Ei+0x118>
   819b8:	7100d43f 	cmp	w1, #0x35
   819bc:	540002ec 	b.gt	81a18 <_ZN10GPIOHandleC1Ei+0xe8>
   819c0:	5100c822 	sub	w2, w1, #0x32
   819c4:	d2800283 	mov	x3, #0x14                  	// #20
   819c8:	f2a7e403 	movk	x3, #0x3f20, lsl #16
   819cc:	f9000403 	str	x3, [x0, #8]
   819d0:	0b020442 	add	w2, w2, w2, lsl #1
   819d4:	b9002c02 	str	w2, [x0, #44]
   819d8:	14000010 	b	81a18 <_ZN10GPIOHandleC1Ei+0xe8>
   819dc:	51005022 	sub	w2, w1, #0x14
   819e0:	d2800103 	mov	x3, #0x8                   	// #8
   819e4:	f2a7e403 	movk	x3, #0x3f20, lsl #16
   819e8:	f9000403 	str	x3, [x0, #8]
   819ec:	0b020442 	add	w2, w2, w2, lsl #1
   819f0:	b9002c02 	str	w2, [x0, #44]
   819f4:	17ffffd6 	b	8194c <_ZN10GPIOHandleC1Ei+0x1c>
   819f8:	51007822 	sub	w2, w1, #0x1e
   819fc:	d2800183 	mov	x3, #0xc                   	// #12
   81a00:	f2a7e403 	movk	x3, #0x3f20, lsl #16
   81a04:	f9000403 	str	x3, [x0, #8]
   81a08:	0b020442 	add	w2, w2, w2, lsl #1
   81a0c:	b9002c02 	str	w2, [x0, #44]
   81a10:	71007c3f 	cmp	w1, #0x1f
   81a14:	54fff9cd 	b.le	8194c <_ZN10GPIOHandleC1Ei+0x1c>
   81a18:	52800022 	mov	w2, #0x1                   	// #1
   81a1c:	d2800404 	mov	x4, #0x20                  	// #32
   81a20:	f2a7e404 	movk	x4, #0x3f20, lsl #16
   81a24:	1ac12041 	lsl	w1, w2, w1
   81a28:	d2800583 	mov	x3, #0x2c                  	// #44
   81a2c:	f2a7e403 	movk	x3, #0x3f20, lsl #16
   81a30:	d2800702 	mov	x2, #0x38                  	// #56
   81a34:	f2a7e402 	movk	x2, #0x3f20, lsl #16
   81a38:	a9010c04 	stp	x4, x3, [x0, #16]
   81a3c:	f9001002 	str	x2, [x0, #32]
   81a40:	b9002801 	str	w1, [x0, #40]
   81a44:	d65f03c0 	ret
   81a48:	5100a022 	sub	w2, w1, #0x28
   81a4c:	d2800203 	mov	x3, #0x10                  	// #16
   81a50:	f2a7e403 	movk	x3, #0x3f20, lsl #16
   81a54:	f9000403 	str	x3, [x0, #8]
   81a58:	0b020442 	add	w2, w2, w2, lsl #1
   81a5c:	b9002c02 	str	w2, [x0, #44]
   81a60:	17ffffee 	b	81a18 <_ZN10GPIOHandleC1Ei+0xe8>
   81a64:	d503201f 	nop
   81a68:	d503201f 	nop
   81a6c:	d503201f 	nop

0000000000081a70 <_ZN10GPIOHandle6SetPinEi>:
   81a70:	b9000001 	str	w1, [x0]
   81a74:	7100243f 	cmp	w1, #0x9
   81a78:	5400022c 	b.gt	81abc <_ZN10GPIOHandle6SetPinEi+0x4c>
   81a7c:	0b010422 	add	w2, w1, w1, lsl #1
   81a80:	d2a7e403 	mov	x3, #0x3f200000            	// #1059061760
   81a84:	f9000403 	str	x3, [x0, #8]
   81a88:	b9002c02 	str	w2, [x0, #44]
   81a8c:	52800022 	mov	w2, #0x1                   	// #1
   81a90:	d2800384 	mov	x4, #0x1c                  	// #28
   81a94:	f2a7e404 	movk	x4, #0x3f20, lsl #16
   81a98:	1ac12041 	lsl	w1, w2, w1
   81a9c:	d2800503 	mov	x3, #0x28                  	// #40
   81aa0:	f2a7e403 	movk	x3, #0x3f20, lsl #16
   81aa4:	d2800682 	mov	x2, #0x34                  	// #52
   81aa8:	f2a7e402 	movk	x2, #0x3f20, lsl #16
   81aac:	a9010c04 	stp	x4, x3, [x0, #16]
   81ab0:	f9001002 	str	x2, [x0, #32]
   81ab4:	b9002801 	str	w1, [x0, #40]
   81ab8:	d65f03c0 	ret
   81abc:	71004c3f 	cmp	w1, #0x13
   81ac0:	5400010c 	b.gt	81ae0 <_ZN10GPIOHandle6SetPinEi+0x70>
   81ac4:	51002822 	sub	w2, w1, #0xa
   81ac8:	d2800083 	mov	x3, #0x4                   	// #4
   81acc:	f2a7e403 	movk	x3, #0x3f20, lsl #16
   81ad0:	f9000403 	str	x3, [x0, #8]
   81ad4:	0b020442 	add	w2, w2, w2, lsl #1
   81ad8:	b9002c02 	str	w2, [x0, #44]
   81adc:	17ffffec 	b	81a8c <_ZN10GPIOHandle6SetPinEi+0x1c>
   81ae0:	7100743f 	cmp	w1, #0x1d
   81ae4:	540001cd 	b.le	81b1c <_ZN10GPIOHandle6SetPinEi+0xac>
   81ae8:	71009c3f 	cmp	w1, #0x27
   81aec:	5400026d 	b.le	81b38 <_ZN10GPIOHandle6SetPinEi+0xc8>
   81af0:	7100c43f 	cmp	w1, #0x31
   81af4:	540004ad 	b.le	81b88 <_ZN10GPIOHandle6SetPinEi+0x118>
   81af8:	7100d43f 	cmp	w1, #0x35
   81afc:	540002ec 	b.gt	81b58 <_ZN10GPIOHandle6SetPinEi+0xe8>
   81b00:	5100c822 	sub	w2, w1, #0x32
   81b04:	d2800283 	mov	x3, #0x14                  	// #20
   81b08:	f2a7e403 	movk	x3, #0x3f20, lsl #16
   81b0c:	f9000403 	str	x3, [x0, #8]
   81b10:	0b020442 	add	w2, w2, w2, lsl #1
   81b14:	b9002c02 	str	w2, [x0, #44]
   81b18:	14000010 	b	81b58 <_ZN10GPIOHandle6SetPinEi+0xe8>
   81b1c:	51005022 	sub	w2, w1, #0x14
   81b20:	d2800103 	mov	x3, #0x8                   	// #8
   81b24:	f2a7e403 	movk	x3, #0x3f20, lsl #16
   81b28:	f9000403 	str	x3, [x0, #8]
   81b2c:	0b020442 	add	w2, w2, w2, lsl #1
   81b30:	b9002c02 	str	w2, [x0, #44]
   81b34:	17ffffd6 	b	81a8c <_ZN10GPIOHandle6SetPinEi+0x1c>
   81b38:	51007822 	sub	w2, w1, #0x1e
   81b3c:	d2800183 	mov	x3, #0xc                   	// #12
   81b40:	f2a7e403 	movk	x3, #0x3f20, lsl #16
   81b44:	f9000403 	str	x3, [x0, #8]
   81b48:	0b020442 	add	w2, w2, w2, lsl #1
   81b4c:	b9002c02 	str	w2, [x0, #44]
   81b50:	71007c3f 	cmp	w1, #0x1f
   81b54:	54fff9cd 	b.le	81a8c <_ZN10GPIOHandle6SetPinEi+0x1c>
   81b58:	52800022 	mov	w2, #0x1                   	// #1
   81b5c:	d2800404 	mov	x4, #0x20                  	// #32
   81b60:	f2a7e404 	movk	x4, #0x3f20, lsl #16
   81b64:	1ac12041 	lsl	w1, w2, w1
   81b68:	d2800583 	mov	x3, #0x2c                  	// #44
   81b6c:	f2a7e403 	movk	x3, #0x3f20, lsl #16
   81b70:	d2800702 	mov	x2, #0x38                  	// #56
   81b74:	f2a7e402 	movk	x2, #0x3f20, lsl #16
   81b78:	a9010c04 	stp	x4, x3, [x0, #16]
   81b7c:	f9001002 	str	x2, [x0, #32]
   81b80:	b9002801 	str	w1, [x0, #40]
   81b84:	d65f03c0 	ret
   81b88:	5100a022 	sub	w2, w1, #0x28
   81b8c:	d2800203 	mov	x3, #0x10                  	// #16
   81b90:	f2a7e403 	movk	x3, #0x3f20, lsl #16
   81b94:	f9000403 	str	x3, [x0, #8]
   81b98:	0b020442 	add	w2, w2, w2, lsl #1
   81b9c:	b9002c02 	str	w2, [x0, #44]
   81ba0:	17ffffee 	b	81b58 <_ZN10GPIOHandle6SetPinEi+0xe8>
   81ba4:	d503201f 	nop
   81ba8:	d503201f 	nop
   81bac:	d503201f 	nop

0000000000081bb0 <_ZN10GPIOHandle8SetInputEv>:
   81bb0:	f9400402 	ldr	x2, [x0, #8]
   81bb4:	528000e1 	mov	w1, #0x7                   	// #7
   81bb8:	b9402c03 	ldr	w3, [x0, #44]
   81bbc:	b9400040 	ldr	w0, [x2]
   81bc0:	1ac32021 	lsl	w1, w1, w3
   81bc4:	0a210001 	bic	w1, w0, w1
   81bc8:	b9000041 	str	w1, [x2]
   81bcc:	d65f03c0 	ret

0000000000081bd0 <_ZN10GPIOHandle9SetOutputEv>:
   81bd0:	f9400403 	ldr	x3, [x0, #8]
   81bd4:	528000e2 	mov	w2, #0x7                   	// #7
   81bd8:	b9402c00 	ldr	w0, [x0, #44]
   81bdc:	52800021 	mov	w1, #0x1                   	// #1
   81be0:	b9400064 	ldr	w4, [x3]
   81be4:	1ac02042 	lsl	w2, w2, w0
   81be8:	0a220082 	bic	w2, w4, w2
   81bec:	1ac02020 	lsl	w0, w1, w0
   81bf0:	2a020000 	orr	w0, w0, w2
   81bf4:	b9000060 	str	w0, [x3]
   81bf8:	d65f03c0 	ret
   81bfc:	d503201f 	nop

0000000000081c00 <_ZN10GPIOHandle5WriteEb>:
   81c00:	72001c3f 	tst	w1, #0xff
   81c04:	b9402801 	ldr	w1, [x0, #40]
   81c08:	540000c0 	b.eq	81c20 <_ZN10GPIOHandle5WriteEb+0x20>  // b.none
   81c0c:	f9400802 	ldr	x2, [x0, #16]
   81c10:	b9400040 	ldr	w0, [x2]
   81c14:	2a010000 	orr	w0, w0, w1
   81c18:	b9000040 	str	w0, [x2]
   81c1c:	d65f03c0 	ret
   81c20:	f9400c02 	ldr	x2, [x0, #24]
   81c24:	b9400040 	ldr	w0, [x2]
   81c28:	2a010000 	orr	w0, w0, w1
   81c2c:	b9000040 	str	w0, [x2]
   81c30:	d65f03c0 	ret
   81c34:	d503201f 	nop
   81c38:	d503201f 	nop
   81c3c:	d503201f 	nop

0000000000081c40 <_ZN10GPIOHandle8IsActiveEv>:
   81c40:	f9401001 	ldr	x1, [x0, #32]
   81c44:	b9402800 	ldr	w0, [x0, #40]
   81c48:	b9400021 	ldr	w1, [x1]
   81c4c:	6a00003f 	tst	w1, w0
   81c50:	1a9f07e0 	cset	w0, ne  // ne = any
   81c54:	d65f03c0 	ret
	...

0000000000081c60 <_GLOBAL__sub_I__ZN10GPIOHandleC2Ev>:
   81c60:	f0000020 	adrp	x0, 88000 <_ZL4mbox+0xf90>
   81c64:	91020000 	add	x0, x0, #0x80
   81c68:	17fff9a6 	b	80300 <_ZN8RPIBoardC1Ev>
   81c6c:	00000000 	udf	#0

0000000000081c70 <_ZN7MailboxC1Ev>:
   81c70:	f0000021 	adrp	x1, 88000 <_ZL4mbox+0xf90>
   81c74:	91030022 	add	x2, x1, #0xc0
   81c78:	d2971503 	mov	x3, #0xb8a8                	// #47272
   81c7c:	f2a7e003 	movk	x3, #0x3f00, lsl #16
   81c80:	f900603f 	str	xzr, [x1, #192]
   81c84:	d2800041 	mov	x1, #0x2                   	// #2
   81c88:	f2c00101 	movk	x1, #0x8, lsl #32
   81c8c:	a9000803 	stp	x3, x2, [x0]
   81c90:	f9000801 	str	x1, [x0, #16]
   81c94:	d65f03c0 	ret
   81c98:	d503201f 	nop
   81c9c:	d503201f 	nop

0000000000081ca0 <_ZN7Mailbox5ResetEv>:
   81ca0:	f9400401 	ldr	x1, [x0, #8]
   81ca4:	d2800022 	mov	x2, #0x1                   	// #1
   81ca8:	f2c00082 	movk	x2, #0x4, lsl #32
   81cac:	b900003f 	str	wzr, [x1]
   81cb0:	f9000802 	str	x2, [x0, #16]
   81cb4:	b900043f 	str	wzr, [x1, #4]
   81cb8:	29420402 	ldp	w2, w1, [x0, #16]
   81cbc:	11000442 	add	w2, w2, #0x1
   81cc0:	11001021 	add	w1, w1, #0x4
   81cc4:	29020402 	stp	w2, w1, [x0, #16]
   81cc8:	d65f03c0 	ret
   81ccc:	d503201f 	nop

0000000000081cd0 <_ZN7Mailbox7AddDataEj>:
   81cd0:	b9401003 	ldr	w3, [x0, #16]
   81cd4:	aa0003e2 	mov	x2, x0
   81cd8:	f9400400 	ldr	x0, [x0, #8]
   81cdc:	b8237801 	str	w1, [x0, x3, lsl #2]
   81ce0:	8b030800 	add	x0, x0, x3, lsl #2
   81ce4:	29420443 	ldp	w3, w1, [x2, #16]
   81ce8:	11000463 	add	w3, w3, #0x1
   81cec:	11001021 	add	w1, w1, #0x4
   81cf0:	29020443 	stp	w3, w1, [x2, #16]
   81cf4:	d65f03c0 	ret
   81cf8:	d503201f 	nop
   81cfc:	d503201f 	nop

0000000000081d00 <_ZN7Mailbox18AddRequestPropertyEjj>:
   81d00:	aa0003e3 	mov	x3, x0
   81d04:	b9401000 	ldr	w0, [x0, #16]
   81d08:	52800085 	mov	w5, #0x4                   	// #4
   81d0c:	f9400464 	ldr	x4, [x3, #8]
   81d10:	b8207881 	str	w1, [x4, x0, lsl #2]
   81d14:	29420460 	ldp	w0, w1, [x3, #16]
   81d18:	11000400 	add	w0, w0, #0x1
   81d1c:	0b050021 	add	w1, w1, w5
   81d20:	29020460 	stp	w0, w1, [x3, #16]
   81d24:	b8205885 	str	w5, [x4, w0, uxtw #2]
   81d28:	29420460 	ldp	w0, w1, [x3, #16]
   81d2c:	11000400 	add	w0, w0, #0x1
   81d30:	0b050021 	add	w1, w1, w5
   81d34:	29020460 	stp	w0, w1, [x3, #16]
   81d38:	b8205885 	str	w5, [x4, w0, uxtw #2]
   81d3c:	29420061 	ldp	w1, w0, [x3, #16]
   81d40:	11000421 	add	w1, w1, #0x1
   81d44:	0b050000 	add	w0, w0, w5
   81d48:	29020061 	stp	w1, w0, [x3, #16]
   81d4c:	8b214880 	add	x0, x4, w1, uxtw #2
   81d50:	b8215882 	str	w2, [x4, w1, uxtw #2]
   81d54:	29420462 	ldp	w2, w1, [x3, #16]
   81d58:	11000442 	add	w2, w2, #0x1
   81d5c:	0b050021 	add	w1, w1, w5
   81d60:	29020462 	stp	w2, w1, [x3, #16]
   81d64:	d65f03c0 	ret
   81d68:	d503201f 	nop
   81d6c:	d503201f 	nop

0000000000081d70 <_ZN7Mailbox18AddRequestPropertyEjjj>:
   81d70:	aa0003e4 	mov	x4, x0
   81d74:	b9401000 	ldr	w0, [x0, #16]
   81d78:	52800106 	mov	w6, #0x8                   	// #8
   81d7c:	f9400485 	ldr	x5, [x4, #8]
   81d80:	b82078a1 	str	w1, [x5, x0, lsl #2]
   81d84:	29420480 	ldp	w0, w1, [x4, #16]
   81d88:	11000400 	add	w0, w0, #0x1
   81d8c:	11001021 	add	w1, w1, #0x4
   81d90:	29020480 	stp	w0, w1, [x4, #16]
   81d94:	b82058a6 	str	w6, [x5, w0, uxtw #2]
   81d98:	29420480 	ldp	w0, w1, [x4, #16]
   81d9c:	11000400 	add	w0, w0, #0x1
   81da0:	11001021 	add	w1, w1, #0x4
   81da4:	29020480 	stp	w0, w1, [x4, #16]
   81da8:	b82058a6 	str	w6, [x5, w0, uxtw #2]
   81dac:	29420081 	ldp	w1, w0, [x4, #16]
   81db0:	11000421 	add	w1, w1, #0x1
   81db4:	11001000 	add	w0, w0, #0x4
   81db8:	29020081 	stp	w1, w0, [x4, #16]
   81dbc:	8b2148a0 	add	x0, x5, w1, uxtw #2
   81dc0:	b82158a2 	str	w2, [x5, w1, uxtw #2]
   81dc4:	29420881 	ldp	w1, w2, [x4, #16]
   81dc8:	11000421 	add	w1, w1, #0x1
   81dcc:	11001042 	add	w2, w2, #0x4
   81dd0:	29020881 	stp	w1, w2, [x4, #16]
   81dd4:	b82158a3 	str	w3, [x5, w1, uxtw #2]
   81dd8:	29420482 	ldp	w2, w1, [x4, #16]
   81ddc:	11000442 	add	w2, w2, #0x1
   81de0:	11001021 	add	w1, w1, #0x4
   81de4:	29020482 	stp	w2, w1, [x4, #16]
   81de8:	d65f03c0 	ret
   81dec:	d503201f 	nop

0000000000081df0 <_ZN7Mailbox18AddRequestPropertyEjjjj>:
   81df0:	aa0003e5 	mov	x5, x0
   81df4:	b9401000 	ldr	w0, [x0, #16]
   81df8:	52800187 	mov	w7, #0xc                   	// #12
   81dfc:	f94004a6 	ldr	x6, [x5, #8]
   81e00:	b82078c1 	str	w1, [x6, x0, lsl #2]
   81e04:	294204a0 	ldp	w0, w1, [x5, #16]
   81e08:	11000400 	add	w0, w0, #0x1
   81e0c:	11001021 	add	w1, w1, #0x4
   81e10:	290204a0 	stp	w0, w1, [x5, #16]
   81e14:	b82058c7 	str	w7, [x6, w0, uxtw #2]
   81e18:	294204a0 	ldp	w0, w1, [x5, #16]
   81e1c:	11000400 	add	w0, w0, #0x1
   81e20:	11001021 	add	w1, w1, #0x4
   81e24:	290204a0 	stp	w0, w1, [x5, #16]
   81e28:	b82058c7 	str	w7, [x6, w0, uxtw #2]
   81e2c:	294200a1 	ldp	w1, w0, [x5, #16]
   81e30:	11000421 	add	w1, w1, #0x1
   81e34:	11001000 	add	w0, w0, #0x4
   81e38:	290200a1 	stp	w1, w0, [x5, #16]
   81e3c:	8b2148c0 	add	x0, x6, w1, uxtw #2
   81e40:	b82158c2 	str	w2, [x6, w1, uxtw #2]
   81e44:	294208a1 	ldp	w1, w2, [x5, #16]
   81e48:	11000421 	add	w1, w1, #0x1
   81e4c:	11001042 	add	w2, w2, #0x4
   81e50:	290208a1 	stp	w1, w2, [x5, #16]
   81e54:	b82158c3 	str	w3, [x6, w1, uxtw #2]
   81e58:	294208a1 	ldp	w1, w2, [x5, #16]
   81e5c:	11000421 	add	w1, w1, #0x1
   81e60:	11001042 	add	w2, w2, #0x4
   81e64:	290208a1 	stp	w1, w2, [x5, #16]
   81e68:	b82158c4 	str	w4, [x6, w1, uxtw #2]
   81e6c:	294204a2 	ldp	w2, w1, [x5, #16]
   81e70:	11000442 	add	w2, w2, #0x1
   81e74:	11001021 	add	w1, w1, #0x4
   81e78:	290204a2 	stp	w2, w1, [x5, #16]
   81e7c:	d65f03c0 	ret

0000000000081e80 <_ZN7Mailbox18AddRequestPropertyEjjjjj>:
   81e80:	aa0003e6 	mov	x6, x0
   81e84:	b9401000 	ldr	w0, [x0, #16]
   81e88:	52800208 	mov	w8, #0x10                  	// #16
   81e8c:	f94004c7 	ldr	x7, [x6, #8]
   81e90:	b82078e1 	str	w1, [x7, x0, lsl #2]
   81e94:	294204c0 	ldp	w0, w1, [x6, #16]
   81e98:	11000400 	add	w0, w0, #0x1
   81e9c:	11001021 	add	w1, w1, #0x4
   81ea0:	290204c0 	stp	w0, w1, [x6, #16]
   81ea4:	b82058e8 	str	w8, [x7, w0, uxtw #2]
   81ea8:	294204c0 	ldp	w0, w1, [x6, #16]
   81eac:	11000400 	add	w0, w0, #0x1
   81eb0:	11001021 	add	w1, w1, #0x4
   81eb4:	290204c0 	stp	w0, w1, [x6, #16]
   81eb8:	b82058e8 	str	w8, [x7, w0, uxtw #2]
   81ebc:	294200c1 	ldp	w1, w0, [x6, #16]
   81ec0:	11000421 	add	w1, w1, #0x1
   81ec4:	11001000 	add	w0, w0, #0x4
   81ec8:	290200c1 	stp	w1, w0, [x6, #16]
   81ecc:	8b2148e0 	add	x0, x7, w1, uxtw #2
   81ed0:	b82158e2 	str	w2, [x7, w1, uxtw #2]
   81ed4:	294208c1 	ldp	w1, w2, [x6, #16]
   81ed8:	11000421 	add	w1, w1, #0x1
   81edc:	11001042 	add	w2, w2, #0x4
   81ee0:	290208c1 	stp	w1, w2, [x6, #16]
   81ee4:	b82158e3 	str	w3, [x7, w1, uxtw #2]
   81ee8:	294208c1 	ldp	w1, w2, [x6, #16]
   81eec:	11000421 	add	w1, w1, #0x1
   81ef0:	11001042 	add	w2, w2, #0x4
   81ef4:	290208c1 	stp	w1, w2, [x6, #16]
   81ef8:	b82158e4 	str	w4, [x7, w1, uxtw #2]
   81efc:	294208c1 	ldp	w1, w2, [x6, #16]
   81f00:	11000421 	add	w1, w1, #0x1
   81f04:	11001042 	add	w2, w2, #0x4
   81f08:	290208c1 	stp	w1, w2, [x6, #16]
   81f0c:	b82158e5 	str	w5, [x7, w1, uxtw #2]
   81f10:	294204c2 	ldp	w2, w1, [x6, #16]
   81f14:	11000442 	add	w2, w2, #0x1
   81f18:	11001021 	add	w1, w1, #0x4
   81f1c:	290204c2 	stp	w2, w1, [x6, #16]
   81f20:	d65f03c0 	ret
   81f24:	d503201f 	nop
   81f28:	d503201f 	nop
   81f2c:	d503201f 	nop

0000000000081f30 <_ZN7Mailbox4PackEv>:
   81f30:	b9401001 	ldr	w1, [x0, #16]
   81f34:	f9400403 	ldr	x3, [x0, #8]
   81f38:	b821787f 	str	wzr, [x3, x1, lsl #2]
   81f3c:	29420402 	ldp	w2, w1, [x0, #16]
   81f40:	11001021 	add	w1, w1, #0x4
   81f44:	11000442 	add	w2, w2, #0x1
   81f48:	29020402 	stp	w2, w1, [x0, #16]
   81f4c:	b9000061 	str	w1, [x3]
   81f50:	d65f03c0 	ret
   81f54:	d503201f 	nop
   81f58:	d503201f 	nop
   81f5c:	d503201f 	nop

0000000000081f60 <_ZN7Mailbox5WriteEv>:
   81f60:	a9400001 	ldp	x1, x0, [x0]
   81f64:	11002000 	add	w0, w0, #0x8
   81f68:	b9000020 	str	w0, [x1]
   81f6c:	d65f03c0 	ret

0000000000081f70 <_GLOBAL__sub_I__ZN7MailboxC2Ev>:
   81f70:	f0000020 	adrp	x0, 88000 <_ZL4mbox+0xf90>
   81f74:	91028000 	add	x0, x0, #0xa0
   81f78:	17fff8e2 	b	80300 <_ZN8RPIBoardC1Ev>
