
build/kernel8.elf:     file format elf64-littleaarch64


Disassembly of section .text:

0000000000080000 <_start>:
   80000:	d53800a1 	mrs	x1, mpidr_el1
   80004:	92400421 	and	x1, x1, #0x3
   80008:	b4000121 	cbz	x1, 8002c <_start+0x2c>
   8000c:	f100043f 	cmp	x1, #0x1
   80010:	54000200 	b.eq	80050 <main_core_2>  // b.none
   80014:	f100083f 	cmp	x1, #0x2
   80018:	54000240 	b.eq	80060 <main_core_3>  // b.none
   8001c:	f1000c3f 	cmp	x1, #0x3
   80020:	54000280 	b.eq	80070 <main_core_4>  // b.none
   80024:	d503205f 	wfe
   80028:	17ffffff 	b	80024 <_start+0x24>
   8002c:	580000a1 	ldr	x1, 80040 <_start+0x40>
   80030:	9100003f 	mov	sp, x1
   80034:	94000013 	bl	80080 <main>
   80038:	17fffffb 	b	80024 <_start+0x24>
   8003c:	00000000 	udf	#0
   80040:	00080000 	.inst	0x00080000 ; undefined
	...

0000000000080050 <main_core_2>:
   80050:	14000000 	b	80050 <main_core_2>
   80054:	d503201f 	nop
   80058:	d503201f 	nop
   8005c:	d503201f 	nop

0000000000080060 <main_core_3>:
   80060:	14000000 	b	80060 <main_core_3>
   80064:	d503201f 	nop
   80068:	d503201f 	nop
   8006c:	d503201f 	nop

0000000000080070 <main_core_4>:
   80070:	14000000 	b	80070 <main_core_4>
	...

0000000000080080 <main>:
   80080:	a9b77bfd 	stp	x29, x30, [sp, #-144]!
   80084:	528002c1 	mov	w1, #0x16                  	// #22
   80088:	910003fd 	mov	x29, sp
   8008c:	9100c3e0 	add	x0, sp, #0x30
   80090:	a90153f3 	stp	x19, x20, [sp, #16]
   80094:	94000033 	bl	80160 <_ZN10GPIOHandleC1Ei>
   80098:	528003a1 	mov	w1, #0x1d                  	// #29
   8009c:	910183e0 	add	x0, sp, #0x60
   800a0:	94000030 	bl	80160 <_ZN10GPIOHandleC1Ei>
   800a4:	528847f4 	mov	w20, #0x423f                	// #16959
   800a8:	72a001f4 	movk	w20, #0xf, lsl #16
   800ac:	9100c3e0 	add	x0, sp, #0x30
   800b0:	94000084 	bl	802c0 <_ZN10GPIOHandle9SetOutputEv>
   800b4:	52908ff3 	mov	w19, #0x847f                	// #33919
   800b8:	72a003d3 	movk	w19, #0x1e, lsl #16
   800bc:	910183e0 	add	x0, sp, #0x60
   800c0:	94000080 	bl	802c0 <_ZN10GPIOHandle9SetOutputEv>
   800c4:	d503201f 	nop
   800c8:	9100c3e0 	add	x0, sp, #0x30
   800cc:	52800021 	mov	w1, #0x1                   	// #1
   800d0:	94000088 	bl	802f0 <_ZN10GPIOHandle5WriteEb>
   800d4:	910183e0 	add	x0, sp, #0x60
   800d8:	52800001 	mov	w1, #0x0                   	// #0
   800dc:	94000085 	bl	802f0 <_ZN10GPIOHandle5WriteEb>
   800e0:	b9002bff 	str	wzr, [sp, #40]
   800e4:	b9402be0 	ldr	w0, [sp, #40]
   800e8:	6b14001f 	cmp	w0, w20
   800ec:	5400010c 	b.gt	8010c <main+0x8c>
   800f0:	d503201f 	nop
   800f4:	b9402be0 	ldr	w0, [sp, #40]
   800f8:	11000400 	add	w0, w0, #0x1
   800fc:	b9002be0 	str	w0, [sp, #40]
   80100:	b9402be0 	ldr	w0, [sp, #40]
   80104:	6b14001f 	cmp	w0, w20
   80108:	54ffff4d 	b.le	800f0 <main+0x70>
   8010c:	9100c3e0 	add	x0, sp, #0x30
   80110:	52800001 	mov	w1, #0x0                   	// #0
   80114:	94000077 	bl	802f0 <_ZN10GPIOHandle5WriteEb>
   80118:	910183e0 	add	x0, sp, #0x60
   8011c:	52800021 	mov	w1, #0x1                   	// #1
   80120:	94000074 	bl	802f0 <_ZN10GPIOHandle5WriteEb>
   80124:	b9002fff 	str	wzr, [sp, #44]
   80128:	b9402fe0 	ldr	w0, [sp, #44]
   8012c:	6b13001f 	cmp	w0, w19
   80130:	54fffccc 	b.gt	800c8 <main+0x48>
   80134:	d503201f 	nop
   80138:	d503201f 	nop
   8013c:	b9402fe0 	ldr	w0, [sp, #44]
   80140:	11000400 	add	w0, w0, #0x1
   80144:	b9002fe0 	str	w0, [sp, #44]
   80148:	b9402fe0 	ldr	w0, [sp, #44]
   8014c:	6b13001f 	cmp	w0, w19
   80150:	54ffff4d 	b.le	80138 <main+0xb8>
   80154:	17ffffdd 	b	800c8 <main+0x48>
	...

0000000000080160 <_ZN10GPIOHandleC1Ei>:
   80160:	b9000001 	str	w1, [x0]
   80164:	7100243f 	cmp	w1, #0x9
   80168:	5400022c 	b.gt	801ac <_ZN10GPIOHandleC1Ei+0x4c>
   8016c:	0b010422 	add	w2, w1, w1, lsl #1
   80170:	d2a7e403 	mov	x3, #0x3f200000            	// #1059061760
   80174:	f9000403 	str	x3, [x0, #8]
   80178:	b9002c02 	str	w2, [x0, #44]
   8017c:	52800022 	mov	w2, #0x1                   	// #1
   80180:	d2800384 	mov	x4, #0x1c                  	// #28
   80184:	f2a7e404 	movk	x4, #0x3f20, lsl #16
   80188:	1ac12041 	lsl	w1, w2, w1
   8018c:	d2800503 	mov	x3, #0x28                  	// #40
   80190:	f2a7e403 	movk	x3, #0x3f20, lsl #16
   80194:	d2800682 	mov	x2, #0x34                  	// #52
   80198:	f2a7e402 	movk	x2, #0x3f20, lsl #16
   8019c:	a9010c04 	stp	x4, x3, [x0, #16]
   801a0:	f9001002 	str	x2, [x0, #32]
   801a4:	b9002801 	str	w1, [x0, #40]
   801a8:	d65f03c0 	ret
   801ac:	71004c3f 	cmp	w1, #0x13
   801b0:	5400010c 	b.gt	801d0 <_ZN10GPIOHandleC1Ei+0x70>
   801b4:	51002822 	sub	w2, w1, #0xa
   801b8:	d2800083 	mov	x3, #0x4                   	// #4
   801bc:	f2a7e403 	movk	x3, #0x3f20, lsl #16
   801c0:	f9000403 	str	x3, [x0, #8]
   801c4:	0b020442 	add	w2, w2, w2, lsl #1
   801c8:	b9002c02 	str	w2, [x0, #44]
   801cc:	17ffffec 	b	8017c <_ZN10GPIOHandleC1Ei+0x1c>
   801d0:	7100743f 	cmp	w1, #0x1d
   801d4:	540001cd 	b.le	8020c <_ZN10GPIOHandleC1Ei+0xac>
   801d8:	71009c3f 	cmp	w1, #0x27
   801dc:	5400026d 	b.le	80228 <_ZN10GPIOHandleC1Ei+0xc8>
   801e0:	7100c43f 	cmp	w1, #0x31
   801e4:	540004ad 	b.le	80278 <_ZN10GPIOHandleC1Ei+0x118>
   801e8:	7100d43f 	cmp	w1, #0x35
   801ec:	540002ec 	b.gt	80248 <_ZN10GPIOHandleC1Ei+0xe8>
   801f0:	5100c822 	sub	w2, w1, #0x32
   801f4:	d2800283 	mov	x3, #0x14                  	// #20
   801f8:	f2a7e403 	movk	x3, #0x3f20, lsl #16
   801fc:	f9000403 	str	x3, [x0, #8]
   80200:	0b020442 	add	w2, w2, w2, lsl #1
   80204:	b9002c02 	str	w2, [x0, #44]
   80208:	14000010 	b	80248 <_ZN10GPIOHandleC1Ei+0xe8>
   8020c:	51005022 	sub	w2, w1, #0x14
   80210:	d2800103 	mov	x3, #0x8                   	// #8
   80214:	f2a7e403 	movk	x3, #0x3f20, lsl #16
   80218:	f9000403 	str	x3, [x0, #8]
   8021c:	0b020442 	add	w2, w2, w2, lsl #1
   80220:	b9002c02 	str	w2, [x0, #44]
   80224:	17ffffd6 	b	8017c <_ZN10GPIOHandleC1Ei+0x1c>
   80228:	51007822 	sub	w2, w1, #0x1e
   8022c:	d2800183 	mov	x3, #0xc                   	// #12
   80230:	f2a7e403 	movk	x3, #0x3f20, lsl #16
   80234:	f9000403 	str	x3, [x0, #8]
   80238:	0b020442 	add	w2, w2, w2, lsl #1
   8023c:	b9002c02 	str	w2, [x0, #44]
   80240:	71007c3f 	cmp	w1, #0x1f
   80244:	54fff9cd 	b.le	8017c <_ZN10GPIOHandleC1Ei+0x1c>
   80248:	52800022 	mov	w2, #0x1                   	// #1
   8024c:	d2800404 	mov	x4, #0x20                  	// #32
   80250:	f2a7e404 	movk	x4, #0x3f20, lsl #16
   80254:	1ac12041 	lsl	w1, w2, w1
   80258:	d2800583 	mov	x3, #0x2c                  	// #44
   8025c:	f2a7e403 	movk	x3, #0x3f20, lsl #16
   80260:	d2800702 	mov	x2, #0x38                  	// #56
   80264:	f2a7e402 	movk	x2, #0x3f20, lsl #16
   80268:	a9010c04 	stp	x4, x3, [x0, #16]
   8026c:	f9001002 	str	x2, [x0, #32]
   80270:	b9002801 	str	w1, [x0, #40]
   80274:	d65f03c0 	ret
   80278:	5100a022 	sub	w2, w1, #0x28
   8027c:	d2800203 	mov	x3, #0x10                  	// #16
   80280:	f2a7e403 	movk	x3, #0x3f20, lsl #16
   80284:	f9000403 	str	x3, [x0, #8]
   80288:	0b020442 	add	w2, w2, w2, lsl #1
   8028c:	b9002c02 	str	w2, [x0, #44]
   80290:	17ffffee 	b	80248 <_ZN10GPIOHandleC1Ei+0xe8>
   80294:	d503201f 	nop
   80298:	d503201f 	nop
   8029c:	d503201f 	nop

00000000000802a0 <_ZN10GPIOHandle8SetInputEv>:
   802a0:	f9400402 	ldr	x2, [x0, #8]
   802a4:	528000e1 	mov	w1, #0x7                   	// #7
   802a8:	b9402c03 	ldr	w3, [x0, #44]
   802ac:	b9400040 	ldr	w0, [x2]
   802b0:	1ac32021 	lsl	w1, w1, w3
   802b4:	0a210001 	bic	w1, w0, w1
   802b8:	b9000041 	str	w1, [x2]
   802bc:	d65f03c0 	ret

00000000000802c0 <_ZN10GPIOHandle9SetOutputEv>:
   802c0:	f9400403 	ldr	x3, [x0, #8]
   802c4:	528000e2 	mov	w2, #0x7                   	// #7
   802c8:	b9402c00 	ldr	w0, [x0, #44]
   802cc:	52800021 	mov	w1, #0x1                   	// #1
   802d0:	b9400064 	ldr	w4, [x3]
   802d4:	1ac02042 	lsl	w2, w2, w0
   802d8:	0a220082 	bic	w2, w4, w2
   802dc:	1ac02020 	lsl	w0, w1, w0
   802e0:	2a020000 	orr	w0, w0, w2
   802e4:	b9000060 	str	w0, [x3]
   802e8:	d65f03c0 	ret
   802ec:	d503201f 	nop

00000000000802f0 <_ZN10GPIOHandle5WriteEb>:
   802f0:	72001c3f 	tst	w1, #0xff
   802f4:	b9402801 	ldr	w1, [x0, #40]
   802f8:	540000c0 	b.eq	80310 <_ZN10GPIOHandle5WriteEb+0x20>  // b.none
   802fc:	f9400c02 	ldr	x2, [x0, #24]
   80300:	b9400040 	ldr	w0, [x2]
   80304:	2a010000 	orr	w0, w0, w1
   80308:	b9000040 	str	w0, [x2]
   8030c:	d65f03c0 	ret
   80310:	f9400802 	ldr	x2, [x0, #16]
   80314:	b9400040 	ldr	w0, [x2]
   80318:	2a010000 	orr	w0, w0, w1
   8031c:	b9000040 	str	w0, [x2]
   80320:	d65f03c0 	ret
   80324:	d503201f 	nop
   80328:	d503201f 	nop
   8032c:	d503201f 	nop

0000000000080330 <_ZN10GPIOHandle8IsActiveEv>:
   80330:	f9401001 	ldr	x1, [x0, #32]
   80334:	b9402800 	ldr	w0, [x0, #40]
   80338:	b9400021 	ldr	w1, [x1]
   8033c:	6a00003f 	tst	w1, w0
   80340:	1a9f07e0 	cset	w0, ne  // ne = any
   80344:	d65f03c0 	ret

Disassembly of section .bss:

0000000000080348 <__bss_end-0x8>:
	...
