
build/kernel8.elf:     file format elf64-littleaarch64


Disassembly of section .text:

0000000000080000 <_start>:
   80000:	d53800a1 	mrs	x1, mpidr_el1
   80004:	92400421 	and	x1, x1, #0x3
   80008:	b4000121 	cbz	x1, 8002c <_start+0x2c>
   8000c:	f100043f 	cmp	x1, #0x1
   80010:	540001a0 	b.eq	80044 <_run_core_2>  // b.none
   80014:	f100083f 	cmp	x1, #0x2
   80018:	54000260 	b.eq	80064 <_run_core_3>  // b.none
   8001c:	f1000c3f 	cmp	x1, #0x3
   80020:	54000320 	b.eq	80084 <_run_core_4>  // b.none
   80024:	d503205f 	wfe
   80028:	17ffffff 	b	80024 <_start+0x24>
   8002c:	d2a36001 	mov	x1, #0x1b000000            	// #452984832
   80030:	d2a01fe2 	mov	x2, #0xff0000              	// #16711680
   80034:	8b020021 	add	x1, x1, x2
   80038:	9100003f 	mov	sp, x1
   8003c:	9400001a 	bl	800a4 <main>
   80040:	17fffff9 	b	80024 <_start+0x24>

0000000000080044 <_run_core_2>:
   80044:	d2a36001 	mov	x1, #0x1b000000            	// #452984832
   80048:	d2a01fe2 	mov	x2, #0xff0000              	// #16711680
   8004c:	8b020021 	add	x1, x1, x2
   80050:	d2a00022 	mov	x2, #0x10000               	// #65536
   80054:	cb020021 	sub	x1, x1, x2
   80058:	9100003f 	mov	sp, x1
   8005c:	94000185 	bl	80670 <main_core_2>
   80060:	17fffff1 	b	80024 <_start+0x24>

0000000000080064 <_run_core_3>:
   80064:	d2a36001 	mov	x1, #0x1b000000            	// #452984832
   80068:	d2a01fe2 	mov	x2, #0xff0000              	// #16711680
   8006c:	8b020021 	add	x1, x1, x2
   80070:	d2a00042 	mov	x2, #0x20000               	// #131072
   80074:	cb020021 	sub	x1, x1, x2
   80078:	9100003f 	mov	sp, x1
   8007c:	9400017e 	bl	80674 <main_core_3>
   80080:	17ffffe9 	b	80024 <_start+0x24>

0000000000080084 <_run_core_4>:
   80084:	d2a36001 	mov	x1, #0x1b000000            	// #452984832
   80088:	d2a01fe2 	mov	x2, #0xff0000              	// #16711680
   8008c:	8b020021 	add	x1, x1, x2
   80090:	d2a00062 	mov	x2, #0x30000               	// #196608
   80094:	cb020021 	sub	x1, x1, x2
   80098:	9100003f 	mov	sp, x1
   8009c:	94000177 	bl	80678 <main_core_4>
   800a0:	17ffffe1 	b	80024 <_start+0x24>

00000000000800a4 <main>:
   800a4:	d12dc3ff 	sub	sp, sp, #0xb70
   800a8:	a9007bfd 	stp	x29, x30, [sp]
   800ac:	910003fd 	mov	x29, sp
   800b0:	a90153f3 	stp	x19, x20, [sp, #16]
   800b4:	940001e5 	bl	80848 <_Z14initSystemInfov>
   800b8:	911583e0 	add	x0, sp, #0x560
   800bc:	52803c02 	mov	w2, #0x1e0                 	// #480
   800c0:	52805001 	mov	w1, #0x280                 	// #640
   800c4:	94000b1d 	bl	82d38 <_ZN11FramebufferC1Eii>
   800c8:	911803e0 	add	x0, sp, #0x600
   800cc:	a9760400 	ldp	x0, x1, [x0, #-160]
   800d0:	94000312 	bl	80d18 <_Z20setSystemFramebuffer11Framebuffer>
   800d4:	911543e0 	add	x0, sp, #0x550
   800d8:	911803e1 	add	x1, sp, #0x600
   800dc:	a9760821 	ldp	x1, x2, [x1, #-160]
   800e0:	940009e9 	bl	82884 <_ZN8GraphicsC1E11Framebuffer>
   800e4:	9115c3e0 	add	x0, sp, #0x570
   800e8:	52800403 	mov	w3, #0x20                  	// #32
   800ec:	52800402 	mov	w2, #0x20                  	// #32
   800f0:	52800a41 	mov	w1, #0x52                  	// #82
   800f4:	94000958 	bl	82654 <_ZN5ColorC1Eccc>
   800f8:	911543e0 	add	x0, sp, #0x550
   800fc:	b94573e1 	ldr	w1, [sp, #1392]
   80100:	940009fa 	bl	828e8 <_ZN8Graphics4FillE5Color>
   80104:	9115e3e2 	add	x2, sp, #0x578
   80108:	f0000000 	adrp	x0, 83000 <_ZN10GPIOHandle6SetPinEi+0x150>
   8010c:	9120e001 	add	x1, x0, #0x838
   80110:	aa0203e0 	mov	x0, x2
   80114:	94000885 	bl	82328 <_ZN8PSF2FontC1EPc>
   80118:	f0000040 	adrp	x0, 8b000 <_funcmap+0xa9d>
   8011c:	91354000 	add	x0, x0, #0xd50
   80120:	aa0003e3 	mov	x3, x0
   80124:	9115e3e0 	add	x0, sp, #0x578
   80128:	d2808101 	mov	x1, #0x408                 	// #1032
   8012c:	aa0103e2 	mov	x2, x1
   80130:	aa0003e1 	mov	x1, x0
   80134:	aa0303e0 	mov	x0, x3
   80138:	9400042e 	bl	811f0 <memcpy>
   8013c:	f0000040 	adrp	x0, 8b000 <_funcmap+0xa9d>
   80140:	91354001 	add	x1, x0, #0xd50
   80144:	910083e0 	add	x0, sp, #0x20
   80148:	aa0103e3 	mov	x3, x1
   8014c:	d2808101 	mov	x1, #0x408                 	// #1032
   80150:	aa0103e2 	mov	x2, x1
   80154:	aa0303e1 	mov	x1, x3
   80158:	94000426 	bl	811f0 <memcpy>
   8015c:	910083e0 	add	x0, sp, #0x20
   80160:	94000d80 	bl	83760 <_Z13setSystemFont8PSF2Font>
   80164:	911243e0 	add	x0, sp, #0x490
   80168:	d2800073 	mov	x19, #0x3                   	// #3
   8016c:	aa0003f4 	mov	x20, x0
   80170:	f100027f 	cmp	x19, #0x0
   80174:	540000cb 	b.lt	8018c <main+0xe8>  // b.tstop
   80178:	aa1403e0 	mov	x0, x20
   8017c:	94000b3e 	bl	82e74 <_ZN10GPIOHandleC1Ev>
   80180:	9100c294 	add	x20, x20, #0x30
   80184:	d1000673 	sub	x19, x19, #0x1
   80188:	17fffffa 	b	80170 <main+0xcc>
   8018c:	912603e0 	add	x0, sp, #0x980
   80190:	528002c1 	mov	w1, #0x16                  	// #22
   80194:	94000b3d 	bl	82e88 <_ZN10GPIOHandleC1Ei>
   80198:	911243e0 	add	x0, sp, #0x490
   8019c:	912603e1 	add	x1, sp, #0x980
   801a0:	a9400c22 	ldp	x2, x3, [x1]
   801a4:	a9000c02 	stp	x2, x3, [x0]
   801a8:	a9410c22 	ldp	x2, x3, [x1, #16]
   801ac:	a9010c02 	stp	x2, x3, [x0, #16]
   801b0:	a9420c22 	ldp	x2, x3, [x1, #32]
   801b4:	a9020c02 	stp	x2, x3, [x0, #32]
   801b8:	9126c3e0 	add	x0, sp, #0x9b0
   801bc:	528002e1 	mov	w1, #0x17                  	// #23
   801c0:	94000b32 	bl	82e88 <_ZN10GPIOHandleC1Ei>
   801c4:	911303e0 	add	x0, sp, #0x4c0
   801c8:	9126c3e1 	add	x1, sp, #0x9b0
   801cc:	a9400c22 	ldp	x2, x3, [x1]
   801d0:	a9000c02 	stp	x2, x3, [x0]
   801d4:	a9410c22 	ldp	x2, x3, [x1, #16]
   801d8:	a9010c02 	stp	x2, x3, [x0, #16]
   801dc:	a9420c22 	ldp	x2, x3, [x1, #32]
   801e0:	a9020c02 	stp	x2, x3, [x0, #32]
   801e4:	912783e0 	add	x0, sp, #0x9e0
   801e8:	52800301 	mov	w1, #0x18                  	// #24
   801ec:	94000b27 	bl	82e88 <_ZN10GPIOHandleC1Ei>
   801f0:	9113c3e0 	add	x0, sp, #0x4f0
   801f4:	912783e1 	add	x1, sp, #0x9e0
   801f8:	a9400c22 	ldp	x2, x3, [x1]
   801fc:	a9000c02 	stp	x2, x3, [x0]
   80200:	a9410c22 	ldp	x2, x3, [x1, #16]
   80204:	a9010c02 	stp	x2, x3, [x0, #16]
   80208:	a9420c22 	ldp	x2, x3, [x1, #32]
   8020c:	a9020c02 	stp	x2, x3, [x0, #32]
   80210:	912843e0 	add	x0, sp, #0xa10
   80214:	52800281 	mov	w1, #0x14                  	// #20
   80218:	94000b1c 	bl	82e88 <_ZN10GPIOHandleC1Ei>
   8021c:	911483e0 	add	x0, sp, #0x520
   80220:	912843e1 	add	x1, sp, #0xa10
   80224:	a9400c22 	ldp	x2, x3, [x1]
   80228:	a9000c02 	stp	x2, x3, [x0]
   8022c:	a9410c22 	ldp	x2, x3, [x1, #16]
   80230:	a9010c02 	stp	x2, x3, [x0, #16]
   80234:	a9420c22 	ldp	x2, x3, [x1, #32]
   80238:	a9020c02 	stp	x2, x3, [x0, #32]
   8023c:	911183e0 	add	x0, sp, #0x460
   80240:	528002a1 	mov	w1, #0x15                  	// #21
   80244:	94000b11 	bl	82e88 <_ZN10GPIOHandleC1Ei>
   80248:	911183e0 	add	x0, sp, #0x460
   8024c:	94000ba8 	bl	830ec <_ZN10GPIOHandle8SetInputEv>
   80250:	b90b6fff 	str	wzr, [sp, #2924]
   80254:	b94b6fe0 	ldr	w0, [sp, #2924]
   80258:	71000c1f 	cmp	w0, #0x3
   8025c:	5400016c 	b.gt	80288 <main+0x1e4>
   80260:	911243e1 	add	x1, sp, #0x490
   80264:	b98b6fe2 	ldrsw	x2, [sp, #2924]
   80268:	d2800600 	mov	x0, #0x30                  	// #48
   8026c:	9b007c40 	mul	x0, x2, x0
   80270:	8b000020 	add	x0, x1, x0
   80274:	94000bb0 	bl	83134 <_ZN10GPIOHandle9SetOutputEv>
   80278:	b94b6fe0 	ldr	w0, [sp, #2924]
   8027c:	11000400 	add	w0, w0, #0x1
   80280:	b90b6fe0 	str	w0, [sp, #2924]
   80284:	17fffff4 	b	80254 <main+0x1b0>
   80288:	911183e0 	add	x0, sp, #0x460
   8028c:	94000be4 	bl	8321c <_ZN10GPIOHandle8IsActiveEv>
   80290:	12001c00 	and	w0, w0, #0xff
   80294:	7100001f 	cmp	w0, #0x0
   80298:	1a9f17e0 	cset	w0, eq  // eq = none
   8029c:	12001c02 	and	w2, w0, #0xff
   802a0:	b0000020 	adrp	x0, 85000 <_ZL17_systemFontBuffer+0x17c8>
   802a4:	9130e001 	add	x1, x0, #0xc38
   802a8:	2a0203e0 	mov	w0, w2
   802ac:	94000213 	bl	80af8 <_Z6assertbPKc>
   802b0:	94000801 	bl	822b4 <_ZN8TimeSpan14GetCurrentTimeEv>
   802b4:	f9022fe0 	str	x0, [sp, #1112]
   802b8:	911183e0 	add	x0, sp, #0x460
   802bc:	94000bd8 	bl	8321c <_ZN10GPIOHandle8IsActiveEv>
   802c0:	392d9fe0 	strb	w0, [sp, #2919]
   802c4:	b90b6bff 	str	wzr, [sp, #2920]
   802c8:	b94b6be0 	ldr	w0, [sp, #2920]
   802cc:	71000c1f 	cmp	w0, #0x3
   802d0:	5400018c 	b.gt	80300 <main+0x25c>
   802d4:	911243e1 	add	x1, sp, #0x490
   802d8:	b98b6be2 	ldrsw	x2, [sp, #2920]
   802dc:	d2800600 	mov	x0, #0x30                  	// #48
   802e0:	9b007c40 	mul	x0, x2, x0
   802e4:	8b000020 	add	x0, x1, x0
   802e8:	396d9fe1 	ldrb	w1, [sp, #2919]
   802ec:	94000bb0 	bl	831ac <_ZN10GPIOHandle5WriteEb>
   802f0:	b94b6be0 	ldr	w0, [sp, #2920]
   802f4:	11000400 	add	w0, w0, #0x1
   802f8:	b90b6be0 	str	w0, [sp, #2920]
   802fc:	17fffff3 	b	802c8 <main+0x224>
   80300:	912903e0 	add	x0, sp, #0xa40
   80304:	52800a04 	mov	w4, #0x50                  	// #80
   80308:	52806003 	mov	w3, #0x300                 	// #768
   8030c:	52800202 	mov	w2, #0x10                  	// #16
   80310:	52800201 	mov	w1, #0x10                  	// #16
   80314:	940008bb 	bl	82600 <_ZN9RectangleC1Eiiii>
   80318:	912943e0 	add	x0, sp, #0xa50
   8031c:	52800403 	mov	w3, #0x20                  	// #32
   80320:	52800402 	mov	w2, #0x20                  	// #32
   80324:	52800401 	mov	w1, #0x20                  	// #32
   80328:	940008cb 	bl	82654 <_ZN5ColorC1Eccc>
   8032c:	911543e0 	add	x0, sp, #0x550
   80330:	b94a53e3 	ldr	w3, [sp, #2640]
   80334:	912803e1 	add	x1, sp, #0xa00
   80338:	a9440821 	ldp	x1, x2, [x1, #64]
   8033c:	94000987 	bl	82958 <_ZN8Graphics13FillRectangleE9Rectangle5Color>
   80340:	f9422fe0 	ldr	x0, [sp, #1112]
   80344:	911123e1 	add	x1, sp, #0x448
   80348:	aa0103e8 	mov	x8, x1
   8034c:	52800802 	mov	w2, #0x40                  	// #64
   80350:	52800021 	mov	w1, #0x1                   	// #1
   80354:	9400071c 	bl	81fc4 <_ZN6String9ParseLongEm22StringConversionFormati>
   80358:	f94227e0 	ldr	x0, [sp, #1096]
   8035c:	aa0003e3 	mov	x3, x0
   80360:	9110e3e0 	add	x0, sp, #0x438
   80364:	aa0003e8 	mov	x8, x0
   80368:	52800802 	mov	w2, #0x40                  	// #64
   8036c:	52800041 	mov	w1, #0x2                   	// #2
   80370:	aa0303e0 	mov	x0, x3
   80374:	94000714 	bl	81fc4 <_ZN6String9ParseLongEm22StringConversionFormati>
   80378:	912963e0 	add	x0, sp, #0xa58
   8037c:	52800202 	mov	w2, #0x10                  	// #16
   80380:	52800201 	mov	w1, #0x10                  	// #16
   80384:	9400086f 	bl	82540 <_ZN5PointC1Eii>
   80388:	9129c3e2 	add	x2, sp, #0xa70
   8038c:	b0000020 	adrp	x0, 85000 <_ZL17_systemFontBuffer+0x17c8>
   80390:	91314001 	add	x1, x0, #0xc50
   80394:	aa0203e0 	mov	x0, x2
   80398:	94000455 	bl	814ec <_ZN6StringC1EPKc>
   8039c:	911123e1 	add	x1, sp, #0x448
   803a0:	912a03e0 	add	x0, sp, #0xa80
   803a4:	9400040b 	bl	813d0 <_ZN6StringC1ERKS_>
   803a8:	912a03e1 	add	x1, sp, #0xa80
   803ac:	9129c3e0 	add	x0, sp, #0xa70
   803b0:	912983e2 	add	x2, sp, #0xa60
   803b4:	aa0203e8 	mov	x8, x2
   803b8:	9400047c 	bl	815a8 <_ZN6StringplES_>
   803bc:	912a43e0 	add	x0, sp, #0xa90
   803c0:	12800003 	mov	w3, #0xffffffff            	// #-1
   803c4:	12800002 	mov	w2, #0xffffffff            	// #-1
   803c8:	12800001 	mov	w1, #0xffffffff            	// #-1
   803cc:	940008a2 	bl	82654 <_ZN5ColorC1Eccc>
   803d0:	912983e0 	add	x0, sp, #0xa60
   803d4:	911543e5 	add	x5, sp, #0x550
   803d8:	b94a93e4 	ldr	w4, [sp, #2704]
   803dc:	aa0003e3 	mov	x3, x0
   803e0:	f9452fe2 	ldr	x2, [sp, #2648]
   803e4:	f0000040 	adrp	x0, 8b000 <_funcmap+0xa9d>
   803e8:	91354001 	add	x1, x0, #0xd50
   803ec:	aa0503e0 	mov	x0, x5
   803f0:	940009fc 	bl	82be0 <_ZN8Graphics10DrawStringEP8PSF2Font5Point6String5Color>
   803f4:	912983e0 	add	x0, sp, #0xa60
   803f8:	940003d2 	bl	81340 <_ZN6StringD1Ev>
   803fc:	912a03e0 	add	x0, sp, #0xa80
   80400:	940003d0 	bl	81340 <_ZN6StringD1Ev>
   80404:	9129c3e0 	add	x0, sp, #0xa70
   80408:	940003ce 	bl	81340 <_ZN6StringD1Ev>
   8040c:	912a63e0 	add	x0, sp, #0xa98
   80410:	52800482 	mov	w2, #0x24                  	// #36
   80414:	52800201 	mov	w1, #0x10                  	// #16
   80418:	9400084a 	bl	82540 <_ZN5PointC1Eii>
   8041c:	912ac3e2 	add	x2, sp, #0xab0
   80420:	b0000020 	adrp	x0, 85000 <_ZL17_systemFontBuffer+0x17c8>
   80424:	91316001 	add	x1, x0, #0xc58
   80428:	aa0203e0 	mov	x0, x2
   8042c:	94000430 	bl	814ec <_ZN6StringC1EPKc>
   80430:	9110e3e1 	add	x1, sp, #0x438
   80434:	912b03e0 	add	x0, sp, #0xac0
   80438:	940003e6 	bl	813d0 <_ZN6StringC1ERKS_>
   8043c:	912b03e1 	add	x1, sp, #0xac0
   80440:	912ac3e0 	add	x0, sp, #0xab0
   80444:	912a83e2 	add	x2, sp, #0xaa0
   80448:	aa0203e8 	mov	x8, x2
   8044c:	94000457 	bl	815a8 <_ZN6StringplES_>
   80450:	912b43e0 	add	x0, sp, #0xad0
   80454:	12800003 	mov	w3, #0xffffffff            	// #-1
   80458:	12800002 	mov	w2, #0xffffffff            	// #-1
   8045c:	12800001 	mov	w1, #0xffffffff            	// #-1
   80460:	9400087d 	bl	82654 <_ZN5ColorC1Eccc>
   80464:	912a83e0 	add	x0, sp, #0xaa0
   80468:	911543e5 	add	x5, sp, #0x550
   8046c:	b94ad3e4 	ldr	w4, [sp, #2768]
   80470:	aa0003e3 	mov	x3, x0
   80474:	f9454fe2 	ldr	x2, [sp, #2712]
   80478:	f0000040 	adrp	x0, 8b000 <_funcmap+0xa9d>
   8047c:	91354001 	add	x1, x0, #0xd50
   80480:	aa0503e0 	mov	x0, x5
   80484:	940009d7 	bl	82be0 <_ZN8Graphics10DrawStringEP8PSF2Font5Point6String5Color>
   80488:	912a83e0 	add	x0, sp, #0xaa0
   8048c:	940003ad 	bl	81340 <_ZN6StringD1Ev>
   80490:	912b03e0 	add	x0, sp, #0xac0
   80494:	940003ab 	bl	81340 <_ZN6StringD1Ev>
   80498:	912ac3e0 	add	x0, sp, #0xab0
   8049c:	940003a9 	bl	81340 <_ZN6StringD1Ev>
   804a0:	396d9fe0 	ldrb	w0, [sp, #2919]
   804a4:	7100001f 	cmp	w0, #0x0
   804a8:	54000360 	b.eq	80514 <main+0x470>  // b.none
   804ac:	912b63e0 	add	x0, sp, #0xad8
   804b0:	52800702 	mov	w2, #0x38                  	// #56
   804b4:	52800201 	mov	w1, #0x10                  	// #16
   804b8:	94000822 	bl	82540 <_ZN5PointC1Eii>
   804bc:	912b83e2 	add	x2, sp, #0xae0
   804c0:	b0000020 	adrp	x0, 85000 <_ZL17_systemFontBuffer+0x17c8>
   804c4:	9131c001 	add	x1, x0, #0xc70
   804c8:	aa0203e0 	mov	x0, x2
   804cc:	94000408 	bl	814ec <_ZN6StringC1EPKc>
   804d0:	912bc3e0 	add	x0, sp, #0xaf0
   804d4:	12800003 	mov	w3, #0xffffffff            	// #-1
   804d8:	12800002 	mov	w2, #0xffffffff            	// #-1
   804dc:	12800001 	mov	w1, #0xffffffff            	// #-1
   804e0:	9400085d 	bl	82654 <_ZN5ColorC1Eccc>
   804e4:	912b83e0 	add	x0, sp, #0xae0
   804e8:	911543e5 	add	x5, sp, #0x550
   804ec:	b94af3e4 	ldr	w4, [sp, #2800]
   804f0:	aa0003e3 	mov	x3, x0
   804f4:	f9456fe2 	ldr	x2, [sp, #2776]
   804f8:	f0000040 	adrp	x0, 8b000 <_funcmap+0xa9d>
   804fc:	91354001 	add	x1, x0, #0xd50
   80500:	aa0503e0 	mov	x0, x5
   80504:	940009b7 	bl	82be0 <_ZN8Graphics10DrawStringEP8PSF2Font5Point6String5Color>
   80508:	912b83e0 	add	x0, sp, #0xae0
   8050c:	9400038d 	bl	81340 <_ZN6StringD1Ev>
   80510:	1400001a 	b	80578 <main+0x4d4>
   80514:	912be3e0 	add	x0, sp, #0xaf8
   80518:	52800702 	mov	w2, #0x38                  	// #56
   8051c:	52800201 	mov	w1, #0x10                  	// #16
   80520:	94000808 	bl	82540 <_ZN5PointC1Eii>
   80524:	912c03e2 	add	x2, sp, #0xb00
   80528:	b0000020 	adrp	x0, 85000 <_ZL17_systemFontBuffer+0x17c8>
   8052c:	91320001 	add	x1, x0, #0xc80
   80530:	aa0203e0 	mov	x0, x2
   80534:	940003ee 	bl	814ec <_ZN6StringC1EPKc>
   80538:	912c43e0 	add	x0, sp, #0xb10
   8053c:	128006e3 	mov	w3, #0xffffffc8            	// #-56
   80540:	128006e2 	mov	w2, #0xffffffc8            	// #-56
   80544:	128006e1 	mov	w1, #0xffffffc8            	// #-56
   80548:	94000843 	bl	82654 <_ZN5ColorC1Eccc>
   8054c:	912c03e0 	add	x0, sp, #0xb00
   80550:	911543e5 	add	x5, sp, #0x550
   80554:	b94b13e4 	ldr	w4, [sp, #2832]
   80558:	aa0003e3 	mov	x3, x0
   8055c:	f9457fe2 	ldr	x2, [sp, #2808]
   80560:	f0000040 	adrp	x0, 8b000 <_funcmap+0xa9d>
   80564:	91354001 	add	x1, x0, #0xd50
   80568:	aa0503e0 	mov	x0, x5
   8056c:	9400099d 	bl	82be0 <_ZN8Graphics10DrawStringEP8PSF2Font5Point6String5Color>
   80570:	912c03e0 	add	x0, sp, #0xb00
   80574:	94000373 	bl	81340 <_ZN6StringD1Ev>
   80578:	9110c3e0 	add	x0, sp, #0x430
   8057c:	52800042 	mov	w2, #0x2                   	// #2
   80580:	d2801f41 	mov	x1, #0xfa                  	// #250
   80584:	94000708 	bl	821a4 <_ZN8TimeSpanC1Em8TimeUnit>
   80588:	f9421be0 	ldr	x0, [sp, #1072]
   8058c:	912c63e1 	add	x1, sp, #0xb18
   80590:	aa0103e8 	mov	x8, x1
   80594:	52800802 	mov	w2, #0x40                  	// #64
   80598:	52800021 	mov	w1, #0x1                   	// #1
   8059c:	9400068a 	bl	81fc4 <_ZN6String9ParseLongEm22StringConversionFormati>
   805a0:	911123e0 	add	x0, sp, #0x448
   805a4:	912c63e1 	add	x1, sp, #0xb18
   805a8:	f9400022 	ldr	x2, [x1]
   805ac:	f9000002 	str	x2, [x0]
   805b0:	f8405021 	ldur	x1, [x1, #5]
   805b4:	f8005001 	stur	x1, [x0, #5]
   805b8:	912c63e0 	add	x0, sp, #0xb18
   805bc:	94000361 	bl	81340 <_ZN6StringD1Ev>
   805c0:	912ca3e0 	add	x0, sp, #0xb28
   805c4:	52800982 	mov	w2, #0x4c                  	// #76
   805c8:	52800201 	mov	w1, #0x10                  	// #16
   805cc:	940007dd 	bl	82540 <_ZN5PointC1Eii>
   805d0:	912d03e2 	add	x2, sp, #0xb40
   805d4:	b0000020 	adrp	x0, 85000 <_ZL17_systemFontBuffer+0x17c8>
   805d8:	91326001 	add	x1, x0, #0xc98
   805dc:	aa0203e0 	mov	x0, x2
   805e0:	940003c3 	bl	814ec <_ZN6StringC1EPKc>
   805e4:	911123e1 	add	x1, sp, #0x448
   805e8:	912d43e0 	add	x0, sp, #0xb50
   805ec:	94000379 	bl	813d0 <_ZN6StringC1ERKS_>
   805f0:	912d43e1 	add	x1, sp, #0xb50
   805f4:	912d03e0 	add	x0, sp, #0xb40
   805f8:	912cc3e2 	add	x2, sp, #0xb30
   805fc:	aa0203e8 	mov	x8, x2
   80600:	940003ea 	bl	815a8 <_ZN6StringplES_>
   80604:	912d83e0 	add	x0, sp, #0xb60
   80608:	12800003 	mov	w3, #0xffffffff            	// #-1
   8060c:	12800002 	mov	w2, #0xffffffff            	// #-1
   80610:	12800001 	mov	w1, #0xffffffff            	// #-1
   80614:	94000810 	bl	82654 <_ZN5ColorC1Eccc>
   80618:	912cc3e0 	add	x0, sp, #0xb30
   8061c:	911543e5 	add	x5, sp, #0x550
   80620:	b94b63e4 	ldr	w4, [sp, #2912]
   80624:	aa0003e3 	mov	x3, x0
   80628:	f94597e2 	ldr	x2, [sp, #2856]
   8062c:	f0000040 	adrp	x0, 8b000 <_funcmap+0xa9d>
   80630:	91354001 	add	x1, x0, #0xd50
   80634:	aa0503e0 	mov	x0, x5
   80638:	9400096a 	bl	82be0 <_ZN8Graphics10DrawStringEP8PSF2Font5Point6String5Color>
   8063c:	912cc3e0 	add	x0, sp, #0xb30
   80640:	94000340 	bl	81340 <_ZN6StringD1Ev>
   80644:	912d43e0 	add	x0, sp, #0xb50
   80648:	9400033e 	bl	81340 <_ZN6StringD1Ev>
   8064c:	912d03e0 	add	x0, sp, #0xb40
   80650:	9400033c 	bl	81340 <_ZN6StringD1Ev>
   80654:	9110c3e0 	add	x0, sp, #0x430
   80658:	94000720 	bl	822d8 <_ZN8TimeSpan8SpinWaitEv>
   8065c:	9110e3e0 	add	x0, sp, #0x438
   80660:	94000338 	bl	81340 <_ZN6StringD1Ev>
   80664:	911123e0 	add	x0, sp, #0x448
   80668:	94000336 	bl	81340 <_ZN6StringD1Ev>
   8066c:	17ffff07 	b	80288 <main+0x1e4>

0000000000080670 <main_core_2>:
   80670:	14000000 	b	80670 <main_core_2>

0000000000080674 <main_core_3>:
   80674:	14000000 	b	80674 <main_core_3>

0000000000080678 <main_core_4>:
   80678:	14000000 	b	80678 <main_core_4>

000000000008067c <_Z41__static_initialization_and_destruction_0ii>:
   8067c:	a9be7bfd 	stp	x29, x30, [sp, #-32]!
   80680:	910003fd 	mov	x29, sp
   80684:	b9001fe0 	str	w0, [sp, #28]
   80688:	b9001be1 	str	w1, [sp, #24]
   8068c:	b9401fe0 	ldr	w0, [sp, #28]
   80690:	7100041f 	cmp	w0, #0x1
   80694:	54000161 	b.ne	806c0 <_Z41__static_initialization_and_destruction_0ii+0x44>  // b.any
   80698:	b9401be1 	ldr	w1, [sp, #24]
   8069c:	529fffe0 	mov	w0, #0xffff                	// #65535
   806a0:	6b00003f 	cmp	w1, w0
   806a4:	540000e1 	b.ne	806c0 <_Z41__static_initialization_and_destruction_0ii+0x44>  // b.any
   806a8:	f0000040 	adrp	x0, 8b000 <_funcmap+0xa9d>
   806ac:	91350000 	add	x0, x0, #0xd40
   806b0:	94000999 	bl	82d14 <_ZN11FramebufferC1Ev>
   806b4:	f0000040 	adrp	x0, 8b000 <_funcmap+0xa9d>
   806b8:	91354000 	add	x0, x0, #0xd50
   806bc:	94000752 	bl	82404 <_ZN8PSF2FontC1Ev>
   806c0:	d503201f 	nop
   806c4:	a8c27bfd 	ldp	x29, x30, [sp], #32
   806c8:	d65f03c0 	ret

00000000000806cc <_GLOBAL__sub_I_main>:
   806cc:	a9bf7bfd 	stp	x29, x30, [sp, #-16]!
   806d0:	910003fd 	mov	x29, sp
   806d4:	529fffe1 	mov	w1, #0xffff                	// #65535
   806d8:	52800020 	mov	w0, #0x1                   	// #1
   806dc:	97ffffe8 	bl	8067c <_Z41__static_initialization_and_destruction_0ii>
   806e0:	a8c17bfd 	ldp	x29, x30, [sp], #16
   806e4:	d65f03c0 	ret

00000000000806e8 <_ZN14RPIMachineInfoC1Ev>:
   806e8:	d10083ff 	sub	sp, sp, #0x20
   806ec:	f90007e0 	str	x0, [sp, #8]
   806f0:	f94007e0 	ldr	x0, [sp, #8]
   806f4:	90000081 	adrp	x1, 90000 <_ZL4mbox+0xa00>
   806f8:	9128e021 	add	x1, x1, #0xa38
   806fc:	f9000401 	str	x1, [x0, #8]
   80700:	f94007e0 	ldr	x0, [sp, #8]
   80704:	f9400400 	ldr	x0, [x0, #8]
   80708:	2a0003e1 	mov	w1, w0
   8070c:	52a37800 	mov	w0, #0x1bc00000            	// #465567744
   80710:	4b010000 	sub	w0, w0, w1
   80714:	2a0003e1 	mov	w1, w0
   80718:	f94007e0 	ldr	x0, [sp, #8]
   8071c:	b9000001 	str	w1, [x0]
   80720:	f94007e0 	ldr	x0, [sp, #8]
   80724:	f9400401 	ldr	x1, [x0, #8]
   80728:	f94007e0 	ldr	x0, [sp, #8]
   8072c:	b9400000 	ldr	w0, [x0]
   80730:	93407c00 	sxtw	x0, w0
   80734:	8b000021 	add	x1, x1, x0
   80738:	f94007e0 	ldr	x0, [sp, #8]
   8073c:	f9000801 	str	x1, [x0, #16]
   80740:	f94007e0 	ldr	x0, [sp, #8]
   80744:	f9400401 	ldr	x1, [x0, #8]
   80748:	f94007e0 	ldr	x0, [sp, #8]
   8074c:	f9000c01 	str	x1, [x0, #24]
   80750:	f94007e0 	ldr	x0, [sp, #8]
   80754:	f9400400 	ldr	x0, [x0, #8]
   80758:	f9000fe0 	str	x0, [sp, #24]
   8075c:	f94007e0 	ldr	x0, [sp, #8]
   80760:	b9400001 	ldr	w1, [x0]
   80764:	f9400fe0 	ldr	x0, [sp, #24]
   80768:	b9000001 	str	w1, [x0]
   8076c:	f9400fe0 	ldr	x0, [sp, #24]
   80770:	b900041f 	str	wzr, [x0, #4]
   80774:	f9400fe0 	ldr	x0, [sp, #24]
   80778:	b900081f 	str	wzr, [x0, #8]
   8077c:	d503201f 	nop
   80780:	910083ff 	add	sp, sp, #0x20
   80784:	d65f03c0 	ret

0000000000080788 <_ZN10StacktraceC1Ev>:
   80788:	d10083ff 	sub	sp, sp, #0x20
   8078c:	f90007e0 	str	x0, [sp, #8]
   80790:	910003e0 	mov	x0, sp
   80794:	f9000fe0 	str	x0, [sp, #24]
   80798:	b90013ff 	str	wzr, [sp, #16]
   8079c:	b94013e0 	ldr	w0, [sp, #16]
   807a0:	7100141f 	cmp	w0, #0x5
   807a4:	5400010c 	b.gt	807c4 <_ZN10StacktraceC1Ev+0x3c>
   807a8:	f94007e0 	ldr	x0, [sp, #8]
   807ac:	b98013e1 	ldrsw	x1, [sp, #16]
   807b0:	b821781f 	str	wzr, [x0, x1, lsl #2]
   807b4:	b94013e0 	ldr	w0, [sp, #16]
   807b8:	11000400 	add	w0, w0, #0x1
   807bc:	b90013e0 	str	w0, [sp, #16]
   807c0:	17fffff7 	b	8079c <_ZN10StacktraceC1Ev+0x14>
   807c4:	b90017ff 	str	wzr, [sp, #20]
   807c8:	f9400fe0 	ldr	x0, [sp, #24]
   807cc:	b9400801 	ldr	w1, [x0, #8]
   807d0:	b94017e0 	ldr	w0, [sp, #20]
   807d4:	11000402 	add	w2, w0, #0x1
   807d8:	b90017e2 	str	w2, [sp, #20]
   807dc:	51001022 	sub	w2, w1, #0x4
   807e0:	f94007e1 	ldr	x1, [sp, #8]
   807e4:	93407c00 	sxtw	x0, w0
   807e8:	b8207822 	str	w2, [x1, x0, lsl #2]
   807ec:	f9400fe0 	ldr	x0, [sp, #24]
   807f0:	f9400000 	ldr	x0, [x0]
   807f4:	f100001f 	cmp	x0, #0x0
   807f8:	54000220 	b.eq	8083c <_ZN10StacktraceC1Ev+0xb4>  // b.none
   807fc:	b94017e0 	ldr	w0, [sp, #20]
   80800:	7100141f 	cmp	w0, #0x5
   80804:	540001cc 	b.gt	8083c <_ZN10StacktraceC1Ev+0xb4>
   80808:	f9400fe0 	ldr	x0, [sp, #24]
   8080c:	f9400000 	ldr	x0, [x0]
   80810:	f9000fe0 	str	x0, [sp, #24]
   80814:	f9400fe0 	ldr	x0, [sp, #24]
   80818:	b9400801 	ldr	w1, [x0, #8]
   8081c:	b94017e0 	ldr	w0, [sp, #20]
   80820:	11000402 	add	w2, w0, #0x1
   80824:	b90017e2 	str	w2, [sp, #20]
   80828:	51001022 	sub	w2, w1, #0x4
   8082c:	f94007e1 	ldr	x1, [sp, #8]
   80830:	93407c00 	sxtw	x0, w0
   80834:	b8207822 	str	w2, [x1, x0, lsl #2]
   80838:	17ffffed 	b	807ec <_ZN10StacktraceC1Ev+0x64>
   8083c:	d503201f 	nop
   80840:	910083ff 	add	sp, sp, #0x20
   80844:	d65f03c0 	ret

0000000000080848 <_Z14initSystemInfov>:
   80848:	a9bd7bfd 	stp	x29, x30, [sp, #-48]!
   8084c:	910003fd 	mov	x29, sp
   80850:	910043e0 	add	x0, sp, #0x10
   80854:	97ffffa5 	bl	806e8 <_ZN14RPIMachineInfoC1Ev>
   80858:	d0000060 	adrp	x0, 8e000 <_ZL4mbox+0xe80>
   8085c:	91166000 	add	x0, x0, #0x598
   80860:	aa0003e3 	mov	x3, x0
   80864:	910043e2 	add	x2, sp, #0x10
   80868:	a9400440 	ldp	x0, x1, [x2]
   8086c:	a9000460 	stp	x0, x1, [x3]
   80870:	a9410440 	ldp	x0, x1, [x2, #16]
   80874:	a9010460 	stp	x0, x1, [x3, #16]
   80878:	d503201f 	nop
   8087c:	a8c37bfd 	ldp	x29, x30, [sp], #48
   80880:	d65f03c0 	ret

0000000000080884 <_Z13getSystemInfov>:
   80884:	aa0803e1 	mov	x1, x8
   80888:	d0000060 	adrp	x0, 8e000 <_ZL4mbox+0xe80>
   8088c:	91166000 	add	x0, x0, #0x598
   80890:	aa0103e2 	mov	x2, x1
   80894:	aa0003e3 	mov	x3, x0
   80898:	a9400460 	ldp	x0, x1, [x3]
   8089c:	a9000440 	stp	x0, x1, [x2]
   808a0:	a9410460 	ldp	x0, x1, [x3, #16]
   808a4:	a9010440 	stp	x0, x1, [x2, #16]
   808a8:	d65f03c0 	ret

00000000000808ac <_Z9getCoreIdv>:
   808ac:	f81f0ff3 	str	x19, [sp, #-16]!
   808b0:	d53800a0 	mrs	x0, mpidr_el1
   808b4:	2a0003f3 	mov	w19, w0
   808b8:	12000660 	and	w0, w19, #0x3
   808bc:	f84107f3 	ldr	x19, [sp], #16
   808c0:	d65f03c0 	ret

00000000000808c4 <_ZN13FunctionLabelC1Ev>:
   808c4:	a9bd7bfd 	stp	x29, x30, [sp, #-48]!
   808c8:	910003fd 	mov	x29, sp
   808cc:	f9000fe0 	str	x0, [sp, #24]
   808d0:	f9400fe0 	ldr	x0, [sp, #24]
   808d4:	91002000 	add	x0, x0, #0x8
   808d8:	940002e9 	bl	8147c <_ZN6StringC1Ev>
   808dc:	910083e0 	add	x0, sp, #0x20
   808e0:	940002e7 	bl	8147c <_ZN6StringC1Ev>
   808e4:	f9400fe0 	ldr	x0, [sp, #24]
   808e8:	91002000 	add	x0, x0, #0x8
   808ec:	aa0003e1 	mov	x1, x0
   808f0:	910083e0 	add	x0, sp, #0x20
   808f4:	f9400002 	ldr	x2, [x0]
   808f8:	f9000022 	str	x2, [x1]
   808fc:	f8405000 	ldur	x0, [x0, #5]
   80900:	f8005020 	stur	x0, [x1, #5]
   80904:	910083e0 	add	x0, sp, #0x20
   80908:	9400028e 	bl	81340 <_ZN6StringD1Ev>
   8090c:	f9400fe0 	ldr	x0, [sp, #24]
   80910:	b900001f 	str	wzr, [x0]
   80914:	d503201f 	nop
   80918:	a8c37bfd 	ldp	x29, x30, [sp], #48
   8091c:	d65f03c0 	ret

0000000000080920 <_ZN13FunctionLabelC1Ej>:
   80920:	a9b67bfd 	stp	x29, x30, [sp, #-160]!
   80924:	910003fd 	mov	x29, sp
   80928:	f9000bf3 	str	x19, [sp, #16]
   8092c:	f90017e0 	str	x0, [sp, #40]
   80930:	b90027e1 	str	w1, [sp, #36]
   80934:	f94017e0 	ldr	x0, [sp, #40]
   80938:	91002000 	add	x0, x0, #0x8
   8093c:	940002d0 	bl	8147c <_ZN6StringC1Ev>
   80940:	94000b85 	bl	83754 <_Z14getFunctionMapv>
   80944:	f9004fe0 	str	x0, [sp, #152]
   80948:	f9404fe0 	ldr	x0, [sp, #152]
   8094c:	f9004be0 	str	x0, [sp, #144]
   80950:	910123e0 	add	x0, sp, #0x48
   80954:	52800202 	mov	w2, #0x10                  	// #16
   80958:	f9404fe1 	ldr	x1, [sp, #152]
   8095c:	940002f2 	bl	81524 <_ZN6StringC1EPci>
   80960:	910123e0 	add	x0, sp, #0x48
   80964:	52800041 	mov	w1, #0x2                   	// #2
   80968:	94000386 	bl	81780 <_ZN6String8ToUInt64E22StringConversionFormat>
   8096c:	f90047e0 	str	x0, [sp, #136]
   80970:	910123e0 	add	x0, sp, #0x48
   80974:	94000273 	bl	81340 <_ZN6StringD1Ev>
   80978:	f9404fe0 	ldr	x0, [sp, #152]
   8097c:	39400000 	ldrb	w0, [x0]
   80980:	7100c01f 	cmp	w0, #0x30
   80984:	54000901 	b.ne	80aa4 <_ZN13FunctionLabelC1Ej+0x184>  // b.any
   80988:	9100e3e0 	add	x0, sp, #0x38
   8098c:	52800202 	mov	w2, #0x10                  	// #16
   80990:	f9404fe1 	ldr	x1, [sp, #152]
   80994:	940002e4 	bl	81524 <_ZN6StringC1EPci>
   80998:	9100e3e0 	add	x0, sp, #0x38
   8099c:	52800041 	mov	w1, #0x2                   	// #2
   809a0:	94000378 	bl	81780 <_ZN6String8ToUInt64E22StringConversionFormat>
   809a4:	f9003fe0 	str	x0, [sp, #120]
   809a8:	b94027e0 	ldr	w0, [sp, #36]
   809ac:	f9403fe1 	ldr	x1, [sp, #120]
   809b0:	eb00003f 	cmp	x1, x0
   809b4:	540004e3 	b.cc	80a50 <_ZN13FunctionLabelC1Ej+0x130>  // b.lo, b.ul, b.last
   809b8:	f94047e0 	ldr	x0, [sp, #136]
   809bc:	2a0003e1 	mov	w1, w0
   809c0:	f94017e0 	ldr	x0, [sp, #40]
   809c4:	b9000001 	str	w1, [x0]
   809c8:	f9404be0 	ldr	x0, [sp, #144]
   809cc:	f9004fe0 	str	x0, [sp, #152]
   809d0:	f9404fe0 	ldr	x0, [sp, #152]
   809d4:	91004800 	add	x0, x0, #0x12
   809d8:	f9004fe0 	str	x0, [sp, #152]
   809dc:	b90087ff 	str	wzr, [sp, #132]
   809e0:	f9404fe0 	ldr	x0, [sp, #152]
   809e4:	39400000 	ldrb	w0, [x0]
   809e8:	7100f81f 	cmp	w0, #0x3e
   809ec:	54000100 	b.eq	80a0c <_ZN13FunctionLabelC1Ej+0xec>  // b.none
   809f0:	b94087e0 	ldr	w0, [sp, #132]
   809f4:	11000400 	add	w0, w0, #0x1
   809f8:	b90087e0 	str	w0, [sp, #132]
   809fc:	f9404fe0 	ldr	x0, [sp, #152]
   80a00:	91000400 	add	x0, x0, #0x1
   80a04:	f9004fe0 	str	x0, [sp, #152]
   80a08:	17fffff6 	b	809e0 <_ZN13FunctionLabelC1Ej+0xc0>
   80a0c:	f9404be0 	ldr	x0, [sp, #144]
   80a10:	91004801 	add	x1, x0, #0x12
   80a14:	910163e0 	add	x0, sp, #0x58
   80a18:	b94087e2 	ldr	w2, [sp, #132]
   80a1c:	940002c2 	bl	81524 <_ZN6StringC1EPci>
   80a20:	f94017e0 	ldr	x0, [sp, #40]
   80a24:	91002000 	add	x0, x0, #0x8
   80a28:	aa0003e1 	mov	x1, x0
   80a2c:	910163e0 	add	x0, sp, #0x58
   80a30:	f9400002 	ldr	x2, [x0]
   80a34:	f9000022 	str	x2, [x1]
   80a38:	f8405000 	ldur	x0, [x0, #5]
   80a3c:	f8005020 	stur	x0, [x1, #5]
   80a40:	910163e0 	add	x0, sp, #0x58
   80a44:	9400023f 	bl	81340 <_ZN6StringD1Ev>
   80a48:	52800013 	mov	w19, #0x0                   	// #0
   80a4c:	14000011 	b	80a90 <_ZN13FunctionLabelC1Ej+0x170>
   80a50:	f9404fe0 	ldr	x0, [sp, #152]
   80a54:	f9004be0 	str	x0, [sp, #144]
   80a58:	f9403fe0 	ldr	x0, [sp, #120]
   80a5c:	f90047e0 	str	x0, [sp, #136]
   80a60:	f9404fe0 	ldr	x0, [sp, #152]
   80a64:	39400000 	ldrb	w0, [x0]
   80a68:	7100281f 	cmp	w0, #0xa
   80a6c:	540000a0 	b.eq	80a80 <_ZN13FunctionLabelC1Ej+0x160>  // b.none
   80a70:	f9404fe0 	ldr	x0, [sp, #152]
   80a74:	91000400 	add	x0, x0, #0x1
   80a78:	f9004fe0 	str	x0, [sp, #152]
   80a7c:	17fffff9 	b	80a60 <_ZN13FunctionLabelC1Ej+0x140>
   80a80:	f9404fe0 	ldr	x0, [sp, #152]
   80a84:	91000400 	add	x0, x0, #0x1
   80a88:	f9004fe0 	str	x0, [sp, #152]
   80a8c:	52800033 	mov	w19, #0x1                   	// #1
   80a90:	9100e3e0 	add	x0, sp, #0x38
   80a94:	9400022b 	bl	81340 <_ZN6StringD1Ev>
   80a98:	7100067f 	cmp	w19, #0x1
   80a9c:	54000281 	b.ne	80aec <_ZN13FunctionLabelC1Ej+0x1cc>  // b.any
   80aa0:	17ffffb6 	b	80978 <_ZN13FunctionLabelC1Ej+0x58>
   80aa4:	9101a3e2 	add	x2, sp, #0x68
   80aa8:	90000040 	adrp	x0, 88000 <_ZL17_systemFontBuffer+0x2358>
   80aac:	9102a001 	add	x1, x0, #0xa8
   80ab0:	aa0203e0 	mov	x0, x2
   80ab4:	9400028e 	bl	814ec <_ZN6StringC1EPKc>
   80ab8:	f94017e0 	ldr	x0, [sp, #40]
   80abc:	91002000 	add	x0, x0, #0x8
   80ac0:	aa0003e1 	mov	x1, x0
   80ac4:	9101a3e0 	add	x0, sp, #0x68
   80ac8:	f9400002 	ldr	x2, [x0]
   80acc:	f9000022 	str	x2, [x1]
   80ad0:	f8405000 	ldur	x0, [x0, #5]
   80ad4:	f8005020 	stur	x0, [x1, #5]
   80ad8:	9101a3e0 	add	x0, sp, #0x68
   80adc:	94000219 	bl	81340 <_ZN6StringD1Ev>
   80ae0:	f94017e0 	ldr	x0, [sp, #40]
   80ae4:	b94027e1 	ldr	w1, [sp, #36]
   80ae8:	b9000001 	str	w1, [x0]
   80aec:	f9400bf3 	ldr	x19, [sp, #16]
   80af0:	a8ca7bfd 	ldp	x29, x30, [sp], #160
   80af4:	d65f03c0 	ret

0000000000080af8 <_Z6assertbPKc>:
   80af8:	a9ba7bfd 	stp	x29, x30, [sp, #-96]!
   80afc:	910003fd 	mov	x29, sp
   80b00:	39007fe0 	strb	w0, [sp, #31]
   80b04:	f9000be1 	str	x1, [sp, #16]
   80b08:	39407fe0 	ldrb	w0, [sp, #31]
   80b0c:	52000000 	eor	w0, w0, #0x1
   80b10:	12001c00 	and	w0, w0, #0xff
   80b14:	7100001f 	cmp	w0, #0x0
   80b18:	54000460 	b.eq	80ba4 <_Z6assertbPKc+0xac>  // b.none
   80b1c:	f9400be0 	ldr	x0, [sp, #16]
   80b20:	f100001f 	cmp	x0, #0x0
   80b24:	540002e0 	b.eq	80b80 <_Z6assertbPKc+0x88>  // b.none
   80b28:	9100c3e2 	add	x2, sp, #0x30
   80b2c:	90000040 	adrp	x0, 88000 <_ZL17_systemFontBuffer+0x2358>
   80b30:	9102c001 	add	x1, x0, #0xb0
   80b34:	aa0203e0 	mov	x0, x2
   80b38:	9400026d 	bl	814ec <_ZN6StringC1EPKc>
   80b3c:	910103e0 	add	x0, sp, #0x40
   80b40:	f9400be1 	ldr	x1, [sp, #16]
   80b44:	9400026a 	bl	814ec <_ZN6StringC1EPKc>
   80b48:	910103e1 	add	x1, sp, #0x40
   80b4c:	9100c3e0 	add	x0, sp, #0x30
   80b50:	910083e2 	add	x2, sp, #0x20
   80b54:	aa0203e8 	mov	x8, x2
   80b58:	94000294 	bl	815a8 <_ZN6StringplES_>
   80b5c:	910083e0 	add	x0, sp, #0x20
   80b60:	94000089 	bl	80d84 <_Z5crash6String>
   80b64:	910083e0 	add	x0, sp, #0x20
   80b68:	940001f6 	bl	81340 <_ZN6StringD1Ev>
   80b6c:	910103e0 	add	x0, sp, #0x40
   80b70:	940001f4 	bl	81340 <_ZN6StringD1Ev>
   80b74:	9100c3e0 	add	x0, sp, #0x30
   80b78:	940001f2 	bl	81340 <_ZN6StringD1Ev>
   80b7c:	1400000a 	b	80ba4 <_Z6assertbPKc+0xac>
   80b80:	910143e2 	add	x2, sp, #0x50
   80b84:	90000040 	adrp	x0, 88000 <_ZL17_systemFontBuffer+0x2358>
   80b88:	91032001 	add	x1, x0, #0xc8
   80b8c:	aa0203e0 	mov	x0, x2
   80b90:	94000257 	bl	814ec <_ZN6StringC1EPKc>
   80b94:	910143e0 	add	x0, sp, #0x50
   80b98:	9400007b 	bl	80d84 <_Z5crash6String>
   80b9c:	910143e0 	add	x0, sp, #0x50
   80ba0:	940001e8 	bl	81340 <_ZN6StringD1Ev>
   80ba4:	d503201f 	nop
   80ba8:	a8c67bfd 	ldp	x29, x30, [sp], #96
   80bac:	d65f03c0 	ret

0000000000080bb0 <malloc>:
   80bb0:	a9b97bfd 	stp	x29, x30, [sp, #-112]!
   80bb4:	910003fd 	mov	x29, sp
   80bb8:	b9001fe0 	str	w0, [sp, #28]
   80bbc:	b9401fe0 	ldr	w0, [sp, #28]
   80bc0:	11000c00 	add	w0, w0, #0x3
   80bc4:	11000c01 	add	w1, w0, #0x3
   80bc8:	7100001f 	cmp	w0, #0x0
   80bcc:	1a80b020 	csel	w0, w1, w0, lt  // lt = tstop
   80bd0:	13027c00 	asr	w0, w0, #2
   80bd4:	531e7400 	lsl	w0, w0, #2
   80bd8:	b9001fe0 	str	w0, [sp, #28]
   80bdc:	9100a3e0 	add	x0, sp, #0x28
   80be0:	aa0003e8 	mov	x8, x0
   80be4:	97ffff28 	bl	80884 <_Z13getSystemInfov>
   80be8:	f9401be0 	ldr	x0, [sp, #48]
   80bec:	f90037e0 	str	x0, [sp, #104]
   80bf0:	f94037e0 	ldr	x0, [sp, #104]
   80bf4:	b9400400 	ldr	w0, [x0, #4]
   80bf8:	7100001f 	cmp	w0, #0x0
   80bfc:	540000c1 	b.ne	80c14 <malloc+0x64>  // b.any
   80c00:	f94037e0 	ldr	x0, [sp, #104]
   80c04:	b9400000 	ldr	w0, [x0]
   80c08:	b9401fe1 	ldr	w1, [sp, #28]
   80c0c:	6b00003f 	cmp	w1, w0
   80c10:	540002cd 	b.le	80c68 <malloc+0xb8>
   80c14:	f94037e0 	ldr	x0, [sp, #104]
   80c18:	b9400000 	ldr	w0, [x0]
   80c1c:	93407c00 	sxtw	x0, w0
   80c20:	91003000 	add	x0, x0, #0xc
   80c24:	f94037e1 	ldr	x1, [sp, #104]
   80c28:	8b000020 	add	x0, x1, x0
   80c2c:	f90037e0 	str	x0, [sp, #104]
   80c30:	f9401fe0 	ldr	x0, [sp, #56]
   80c34:	f94037e1 	ldr	x1, [sp, #104]
   80c38:	eb00003f 	cmp	x1, x0
   80c3c:	54fffda3 	b.cc	80bf0 <malloc+0x40>  // b.lo, b.ul, b.last
   80c40:	910123e2 	add	x2, sp, #0x48
   80c44:	90000040 	adrp	x0, 88000 <_ZL17_systemFontBuffer+0x2358>
   80c48:	91038001 	add	x1, x0, #0xe0
   80c4c:	aa0203e0 	mov	x0, x2
   80c50:	94000227 	bl	814ec <_ZN6StringC1EPKc>
   80c54:	910123e0 	add	x0, sp, #0x48
   80c58:	9400004b 	bl	80d84 <_Z5crash6String>
   80c5c:	910123e0 	add	x0, sp, #0x48
   80c60:	940001b8 	bl	81340 <_ZN6StringD1Ev>
   80c64:	17ffffe3 	b	80bf0 <malloc+0x40>
   80c68:	f94037e0 	ldr	x0, [sp, #104]
   80c6c:	b9400000 	ldr	w0, [x0]
   80c70:	b90067e0 	str	w0, [sp, #100]
   80c74:	f94037e0 	ldr	x0, [sp, #104]
   80c78:	52800021 	mov	w1, #0x1                   	// #1
   80c7c:	b9000401 	str	w1, [x0, #4]
   80c80:	f94037e0 	ldr	x0, [sp, #104]
   80c84:	b9400800 	ldr	w0, [x0, #8]
   80c88:	7100001f 	cmp	w0, #0x0
   80c8c:	540002a1 	b.ne	80ce0 <malloc+0x130>  // b.any
   80c90:	b9801fe0 	ldrsw	x0, [sp, #28]
   80c94:	91003000 	add	x0, x0, #0xc
   80c98:	f94037e1 	ldr	x1, [sp, #104]
   80c9c:	8b000020 	add	x0, x1, x0
   80ca0:	f9002fe0 	str	x0, [sp, #88]
   80ca4:	f94037e0 	ldr	x0, [sp, #104]
   80ca8:	52800021 	mov	w1, #0x1                   	// #1
   80cac:	b9000801 	str	w1, [x0, #8]
   80cb0:	f94037e0 	ldr	x0, [sp, #104]
   80cb4:	b9401fe1 	ldr	w1, [sp, #28]
   80cb8:	b9000001 	str	w1, [x0]
   80cbc:	f9402fe0 	ldr	x0, [sp, #88]
   80cc0:	b900081f 	str	wzr, [x0, #8]
   80cc4:	b94067e1 	ldr	w1, [sp, #100]
   80cc8:	b9401fe0 	ldr	w0, [sp, #28]
   80ccc:	4b000021 	sub	w1, w1, w0
   80cd0:	f9402fe0 	ldr	x0, [sp, #88]
   80cd4:	b9000001 	str	w1, [x0]
   80cd8:	f9402fe0 	ldr	x0, [sp, #88]
   80cdc:	b900041f 	str	wzr, [x0, #4]
   80ce0:	f94037e0 	ldr	x0, [sp, #104]
   80ce4:	91003000 	add	x0, x0, #0xc
   80ce8:	a8c77bfd 	ldp	x29, x30, [sp], #112
   80cec:	d65f03c0 	ret

0000000000080cf0 <free>:
   80cf0:	d10083ff 	sub	sp, sp, #0x20
   80cf4:	f90007e0 	str	x0, [sp, #8]
   80cf8:	f94007e0 	ldr	x0, [sp, #8]
   80cfc:	d1003000 	sub	x0, x0, #0xc
   80d00:	f9000fe0 	str	x0, [sp, #24]
   80d04:	f9400fe0 	ldr	x0, [sp, #24]
   80d08:	b900041f 	str	wzr, [x0, #4]
   80d0c:	d503201f 	nop
   80d10:	910083ff 	add	sp, sp, #0x20
   80d14:	d65f03c0 	ret

0000000000080d18 <_Z20setSystemFramebuffer11Framebuffer>:
   80d18:	d10043ff 	sub	sp, sp, #0x10
   80d1c:	a90007e0 	stp	x0, x1, [sp]
   80d20:	b0000060 	adrp	x0, 8d000 <_ZL4mbox+0xea0>
   80d24:	9105c002 	add	x2, x0, #0x170
   80d28:	a94007e0 	ldp	x0, x1, [sp]
   80d2c:	a9000440 	stp	x0, x1, [x2]
   80d30:	d503201f 	nop
   80d34:	910043ff 	add	sp, sp, #0x10
   80d38:	d65f03c0 	ret

0000000000080d3c <_Z20getSystemFramebufferv>:
   80d3c:	b0000060 	adrp	x0, 8d000 <_ZL4mbox+0xea0>
   80d40:	9105c000 	add	x0, x0, #0x170
   80d44:	a9400400 	ldp	x0, x1, [x0]
   80d48:	d65f03c0 	ret

0000000000080d4c <_Z5crashv>:
   80d4c:	a9be7bfd 	stp	x29, x30, [sp, #-32]!
   80d50:	910003fd 	mov	x29, sp
   80d54:	910043e2 	add	x2, sp, #0x10
   80d58:	90000040 	adrp	x0, 88000 <_ZL17_systemFontBuffer+0x2358>
   80d5c:	9103e001 	add	x1, x0, #0xf8
   80d60:	aa0203e0 	mov	x0, x2
   80d64:	940001e2 	bl	814ec <_ZN6StringC1EPKc>
   80d68:	910043e0 	add	x0, sp, #0x10
   80d6c:	94000006 	bl	80d84 <_Z5crash6String>
   80d70:	910043e0 	add	x0, sp, #0x10
   80d74:	94000173 	bl	81340 <_ZN6StringD1Ev>
   80d78:	d503201f 	nop
   80d7c:	a8c27bfd 	ldp	x29, x30, [sp], #32
   80d80:	d65f03c0 	ret

0000000000080d84 <_Z5crash6String>:
   80d84:	d118c3ff 	sub	sp, sp, #0x630
   80d88:	a9007bfd 	stp	x29, x30, [sp]
   80d8c:	910003fd 	mov	x29, sp
   80d90:	f9000fe0 	str	x0, [sp, #24]
   80d94:	97ffffea 	bl	80d3c <_Z20getSystemFramebufferv>
   80d98:	911003e2 	add	x2, sp, #0x400
   80d9c:	a90c0440 	stp	x0, x1, [x2, #192]
   80da0:	9112c3e0 	add	x0, sp, #0x4b0
   80da4:	911003e1 	add	x1, sp, #0x400
   80da8:	a94c0821 	ldp	x1, x2, [x1, #192]
   80dac:	940006b6 	bl	82884 <_ZN8GraphicsC1E11Framebuffer>
   80db0:	911343e0 	add	x0, sp, #0x4d0
   80db4:	52800003 	mov	w3, #0x0                   	// #0
   80db8:	52800002 	mov	w2, #0x0                   	// #0
   80dbc:	52800001 	mov	w1, #0x0                   	// #0
   80dc0:	94000625 	bl	82654 <_ZN5ColorC1Eccc>
   80dc4:	9112c3e0 	add	x0, sp, #0x4b0
   80dc8:	b944d3e1 	ldr	w1, [sp, #1232]
   80dcc:	940006c7 	bl	828e8 <_ZN8Graphics4FillE5Color>
   80dd0:	9102a3e0 	add	x0, sp, #0xa8
   80dd4:	aa0003e8 	mov	x8, x0
   80dd8:	94000a72 	bl	837a0 <_Z13getSystemFontv>
   80ddc:	52800200 	mov	w0, #0x10                  	// #16
   80de0:	b9062fe0 	str	w0, [sp, #1580]
   80de4:	910283e0 	add	x0, sp, #0xa0
   80de8:	12800003 	mov	w3, #0xffffffff            	// #-1
   80dec:	12800002 	mov	w2, #0xffffffff            	// #-1
   80df0:	12800001 	mov	w1, #0xffffffff            	// #-1
   80df4:	94000618 	bl	82654 <_ZN5ColorC1Eccc>
   80df8:	911363e0 	add	x0, sp, #0x4d8
   80dfc:	b9462fe2 	ldr	w2, [sp, #1580]
   80e00:	52800201 	mov	w1, #0x10                  	// #16
   80e04:	940005cf 	bl	82540 <_ZN5PointC1Eii>
   80e08:	9113c3e2 	add	x2, sp, #0x4f0
   80e0c:	90000040 	adrp	x0, 88000 <_ZL17_systemFontBuffer+0x2358>
   80e10:	91044001 	add	x1, x0, #0x110
   80e14:	aa0203e0 	mov	x0, x2
   80e18:	940001b5 	bl	814ec <_ZN6StringC1EPKc>
   80e1c:	911403e0 	add	x0, sp, #0x500
   80e20:	f9400fe1 	ldr	x1, [sp, #24]
   80e24:	9400016b 	bl	813d0 <_ZN6StringC1ERKS_>
   80e28:	911403e1 	add	x1, sp, #0x500
   80e2c:	9113c3e0 	add	x0, sp, #0x4f0
   80e30:	911383e2 	add	x2, sp, #0x4e0
   80e34:	aa0203e8 	mov	x8, x2
   80e38:	940001dc 	bl	815a8 <_ZN6StringplES_>
   80e3c:	911383e2 	add	x2, sp, #0x4e0
   80e40:	9102a3e1 	add	x1, sp, #0xa8
   80e44:	9112c3e0 	add	x0, sp, #0x4b0
   80e48:	b940a3e4 	ldr	w4, [sp, #160]
   80e4c:	aa0203e3 	mov	x3, x2
   80e50:	f9426fe2 	ldr	x2, [sp, #1240]
   80e54:	94000763 	bl	82be0 <_ZN8Graphics10DrawStringEP8PSF2Font5Point6String5Color>
   80e58:	911383e0 	add	x0, sp, #0x4e0
   80e5c:	94000139 	bl	81340 <_ZN6StringD1Ev>
   80e60:	911403e0 	add	x0, sp, #0x500
   80e64:	94000137 	bl	81340 <_ZN6StringD1Ev>
   80e68:	9113c3e0 	add	x0, sp, #0x4f0
   80e6c:	94000135 	bl	81340 <_ZN6StringD1Ev>
   80e70:	b9462fe0 	ldr	w0, [sp, #1580]
   80e74:	11005000 	add	w0, w0, #0x14
   80e78:	b9062fe0 	str	w0, [sp, #1580]
   80e7c:	97fffe8c 	bl	808ac <_Z9getCoreIdv>
   80e80:	b90627e0 	str	w0, [sp, #1572]
   80e84:	911443e2 	add	x2, sp, #0x510
   80e88:	90000040 	adrp	x0, 88000 <_ZL17_systemFontBuffer+0x2358>
   80e8c:	91048001 	add	x1, x0, #0x120
   80e90:	aa0203e0 	mov	x0, x2
   80e94:	94000196 	bl	814ec <_ZN6StringC1EPKc>
   80e98:	911483e0 	add	x0, sp, #0x520
   80e9c:	aa0003e8 	mov	x8, x0
   80ea0:	52800021 	mov	w1, #0x1                   	// #1
   80ea4:	b94627e0 	ldr	w0, [sp, #1572]
   80ea8:	9400035a 	bl	81c10 <_ZN6String8ParseIntEj22StringConversionFormat>
   80eac:	911483e1 	add	x1, sp, #0x520
   80eb0:	911443e0 	add	x0, sp, #0x510
   80eb4:	910243e2 	add	x2, sp, #0x90
   80eb8:	aa0203e8 	mov	x8, x2
   80ebc:	940001bb 	bl	815a8 <_ZN6StringplES_>
   80ec0:	911483e0 	add	x0, sp, #0x520
   80ec4:	9400011f 	bl	81340 <_ZN6StringD1Ev>
   80ec8:	911443e0 	add	x0, sp, #0x510
   80ecc:	9400011d 	bl	81340 <_ZN6StringD1Ev>
   80ed0:	9114c3e0 	add	x0, sp, #0x530
   80ed4:	b9462fe2 	ldr	w2, [sp, #1580]
   80ed8:	52800201 	mov	w1, #0x10                  	// #16
   80edc:	94000599 	bl	82540 <_ZN5PointC1Eii>
   80ee0:	910243e1 	add	x1, sp, #0x90
   80ee4:	9114e3e0 	add	x0, sp, #0x538
   80ee8:	9400013a 	bl	813d0 <_ZN6StringC1ERKS_>
   80eec:	9114e3e2 	add	x2, sp, #0x538
   80ef0:	9102a3e1 	add	x1, sp, #0xa8
   80ef4:	9112c3e0 	add	x0, sp, #0x4b0
   80ef8:	b940a3e4 	ldr	w4, [sp, #160]
   80efc:	aa0203e3 	mov	x3, x2
   80f00:	f9429be2 	ldr	x2, [sp, #1328]
   80f04:	94000737 	bl	82be0 <_ZN8Graphics10DrawStringEP8PSF2Font5Point6String5Color>
   80f08:	9114e3e0 	add	x0, sp, #0x538
   80f0c:	9400010d 	bl	81340 <_ZN6StringD1Ev>
   80f10:	b9462fe0 	ldr	w0, [sp, #1580]
   80f14:	11005000 	add	w0, w0, #0x14
   80f18:	b9062fe0 	str	w0, [sp, #1580]
   80f1c:	911523e0 	add	x0, sp, #0x548
   80f20:	b9462fe2 	ldr	w2, [sp, #1580]
   80f24:	52800201 	mov	w1, #0x10                  	// #16
   80f28:	94000586 	bl	82540 <_ZN5PointC1Eii>
   80f2c:	911543e2 	add	x2, sp, #0x550
   80f30:	90000040 	adrp	x0, 88000 <_ZL17_systemFontBuffer+0x2358>
   80f34:	9104e001 	add	x1, x0, #0x138
   80f38:	aa0203e0 	mov	x0, x2
   80f3c:	9400016c 	bl	814ec <_ZN6StringC1EPKc>
   80f40:	911543e2 	add	x2, sp, #0x550
   80f44:	9102a3e1 	add	x1, sp, #0xa8
   80f48:	9112c3e0 	add	x0, sp, #0x4b0
   80f4c:	b940a3e4 	ldr	w4, [sp, #160]
   80f50:	aa0203e3 	mov	x3, x2
   80f54:	f942a7e2 	ldr	x2, [sp, #1352]
   80f58:	94000722 	bl	82be0 <_ZN8Graphics10DrawStringEP8PSF2Font5Point6String5Color>
   80f5c:	911543e0 	add	x0, sp, #0x550
   80f60:	940000f8 	bl	81340 <_ZN6StringD1Ev>
   80f64:	910203e2 	add	x2, sp, #0x80
   80f68:	90000040 	adrp	x0, 88000 <_ZL17_systemFontBuffer+0x2358>
   80f6c:	91052001 	add	x1, x0, #0x148
   80f70:	aa0203e0 	mov	x0, x2
   80f74:	9400015e 	bl	814ec <_ZN6StringC1EPKc>
   80f78:	9101a3e0 	add	x0, sp, #0x68
   80f7c:	97fffe03 	bl	80788 <_ZN10StacktraceC1Ev>
   80f80:	b9062bff 	str	wzr, [sp, #1576]
   80f84:	b9462be0 	ldr	w0, [sp, #1576]
   80f88:	7100141f 	cmp	w0, #0x5
   80f8c:	540010ec 	b.gt	811a8 <_Z5crash6String+0x424>
   80f90:	b9462be0 	ldr	w0, [sp, #1576]
   80f94:	71002c1f 	cmp	w0, #0xb
   80f98:	5400108c 	b.gt	811a8 <_Z5crash6String+0x424>
   80f9c:	b9462fe0 	ldr	w0, [sp, #1580]
   80fa0:	11005000 	add	w0, w0, #0x14
   80fa4:	b9062fe0 	str	w0, [sp, #1580]
   80fa8:	b9862be0 	ldrsw	x0, [sp, #1576]
   80fac:	d37ef400 	lsl	x0, x0, #2
   80fb0:	9101a3e1 	add	x1, sp, #0x68
   80fb4:	b8606820 	ldr	w0, [x1, x0]
   80fb8:	b90623e0 	str	w0, [sp, #1568]
   80fbc:	b94623e0 	ldr	w0, [sp, #1568]
   80fc0:	7100001f 	cmp	w0, #0x0
   80fc4:	54000041 	b.ne	80fcc <_Z5crash6String+0x248>  // b.any
   80fc8:	14000078 	b	811a8 <_Z5crash6String+0x424>
   80fcc:	910143e0 	add	x0, sp, #0x50
   80fd0:	b94623e1 	ldr	w1, [sp, #1568]
   80fd4:	97fffe53 	bl	80920 <_ZN13FunctionLabelC1Ej>
   80fd8:	911583e0 	add	x0, sp, #0x560
   80fdc:	aa0003e8 	mov	x8, x0
   80fe0:	52800041 	mov	w1, #0x2                   	// #2
   80fe4:	b94623e0 	ldr	w0, [sp, #1568]
   80fe8:	9400030a 	bl	81c10 <_ZN6String8ParseIntEj22StringConversionFormat>
   80fec:	911583e1 	add	x1, sp, #0x560
   80ff0:	910203e0 	add	x0, sp, #0x80
   80ff4:	910103e2 	add	x2, sp, #0x40
   80ff8:	aa0203e8 	mov	x8, x2
   80ffc:	9400016b 	bl	815a8 <_ZN6StringplES_>
   81000:	911583e0 	add	x0, sp, #0x560
   81004:	940000cf 	bl	81340 <_ZN6StringD1Ev>
   81008:	911643e2 	add	x2, sp, #0x590
   8100c:	f0000020 	adrp	x0, 88000 <_ZL17_systemFontBuffer+0x2358>
   81010:	91054001 	add	x1, x0, #0x150
   81014:	aa0203e0 	mov	x0, x2
   81018:	94000135 	bl	814ec <_ZN6StringC1EPKc>
   8101c:	910143e0 	add	x0, sp, #0x50
   81020:	91002001 	add	x1, x0, #0x8
   81024:	911683e0 	add	x0, sp, #0x5a0
   81028:	940000ea 	bl	813d0 <_ZN6StringC1ERKS_>
   8102c:	911683e1 	add	x1, sp, #0x5a0
   81030:	911643e0 	add	x0, sp, #0x590
   81034:	911603e2 	add	x2, sp, #0x580
   81038:	aa0203e8 	mov	x8, x2
   8103c:	9400015b 	bl	815a8 <_ZN6StringplES_>
   81040:	9116c3e2 	add	x2, sp, #0x5b0
   81044:	f0000020 	adrp	x0, 88000 <_ZL17_systemFontBuffer+0x2358>
   81048:	91056001 	add	x1, x0, #0x158
   8104c:	aa0203e0 	mov	x0, x2
   81050:	94000127 	bl	814ec <_ZN6StringC1EPKc>
   81054:	9116c3e1 	add	x1, sp, #0x5b0
   81058:	911603e0 	add	x0, sp, #0x580
   8105c:	9115c3e2 	add	x2, sp, #0x570
   81060:	aa0203e8 	mov	x8, x2
   81064:	94000151 	bl	815a8 <_ZN6StringplES_>
   81068:	9115c3e1 	add	x1, sp, #0x570
   8106c:	910103e0 	add	x0, sp, #0x40
   81070:	9100c3e2 	add	x2, sp, #0x30
   81074:	aa0203e8 	mov	x8, x2
   81078:	9400014c 	bl	815a8 <_ZN6StringplES_>
   8107c:	9115c3e0 	add	x0, sp, #0x570
   81080:	940000b0 	bl	81340 <_ZN6StringD1Ev>
   81084:	9116c3e0 	add	x0, sp, #0x5b0
   81088:	940000ae 	bl	81340 <_ZN6StringD1Ev>
   8108c:	911603e0 	add	x0, sp, #0x580
   81090:	940000ac 	bl	81340 <_ZN6StringD1Ev>
   81094:	911683e0 	add	x0, sp, #0x5a0
   81098:	940000aa 	bl	81340 <_ZN6StringD1Ev>
   8109c:	911643e0 	add	x0, sp, #0x590
   810a0:	940000a8 	bl	81340 <_ZN6StringD1Ev>
   810a4:	b94053e0 	ldr	w0, [sp, #80]
   810a8:	b94623e1 	ldr	w1, [sp, #1568]
   810ac:	4b000020 	sub	w0, w1, w0
   810b0:	b9061fe0 	str	w0, [sp, #1564]
   810b4:	911783e0 	add	x0, sp, #0x5e0
   810b8:	aa0003e8 	mov	x8, x0
   810bc:	52800041 	mov	w1, #0x2                   	// #2
   810c0:	b9461fe0 	ldr	w0, [sp, #1564]
   810c4:	940002d3 	bl	81c10 <_ZN6String8ParseIntEj22StringConversionFormat>
   810c8:	911783e0 	add	x0, sp, #0x5e0
   810cc:	911743e1 	add	x1, sp, #0x5d0
   810d0:	aa0103e8 	mov	x8, x1
   810d4:	52800081 	mov	w1, #0x4                   	// #4
   810d8:	94000180 	bl	816d8 <_ZN6String9SubstringEi>
   810dc:	911743e1 	add	x1, sp, #0x5d0
   810e0:	9100c3e0 	add	x0, sp, #0x30
   810e4:	911703e2 	add	x2, sp, #0x5c0
   810e8:	aa0203e8 	mov	x8, x2
   810ec:	9400012f 	bl	815a8 <_ZN6StringplES_>
   810f0:	9117c3e2 	add	x2, sp, #0x5f0
   810f4:	f0000020 	adrp	x0, 88000 <_ZL17_systemFontBuffer+0x2358>
   810f8:	91058001 	add	x1, x0, #0x160
   810fc:	aa0203e0 	mov	x0, x2
   81100:	940000fb 	bl	814ec <_ZN6StringC1EPKc>
   81104:	9117c3e1 	add	x1, sp, #0x5f0
   81108:	911703e0 	add	x0, sp, #0x5c0
   8110c:	910083e2 	add	x2, sp, #0x20
   81110:	aa0203e8 	mov	x8, x2
   81114:	94000125 	bl	815a8 <_ZN6StringplES_>
   81118:	9117c3e0 	add	x0, sp, #0x5f0
   8111c:	94000089 	bl	81340 <_ZN6StringD1Ev>
   81120:	911703e0 	add	x0, sp, #0x5c0
   81124:	94000087 	bl	81340 <_ZN6StringD1Ev>
   81128:	911743e0 	add	x0, sp, #0x5d0
   8112c:	94000085 	bl	81340 <_ZN6StringD1Ev>
   81130:	911783e0 	add	x0, sp, #0x5e0
   81134:	94000083 	bl	81340 <_ZN6StringD1Ev>
   81138:	911803e0 	add	x0, sp, #0x600
   8113c:	b9462fe2 	ldr	w2, [sp, #1580]
   81140:	52800201 	mov	w1, #0x10                  	// #16
   81144:	940004ff 	bl	82540 <_ZN5PointC1Eii>
   81148:	910083e1 	add	x1, sp, #0x20
   8114c:	911823e0 	add	x0, sp, #0x608
   81150:	940000a0 	bl	813d0 <_ZN6StringC1ERKS_>
   81154:	911823e2 	add	x2, sp, #0x608
   81158:	9102a3e1 	add	x1, sp, #0xa8
   8115c:	9112c3e0 	add	x0, sp, #0x4b0
   81160:	b940a3e4 	ldr	w4, [sp, #160]
   81164:	aa0203e3 	mov	x3, x2
   81168:	f94303e2 	ldr	x2, [sp, #1536]
   8116c:	9400069d 	bl	82be0 <_ZN8Graphics10DrawStringEP8PSF2Font5Point6String5Color>
   81170:	911823e0 	add	x0, sp, #0x608
   81174:	94000073 	bl	81340 <_ZN6StringD1Ev>
   81178:	910083e0 	add	x0, sp, #0x20
   8117c:	94000071 	bl	81340 <_ZN6StringD1Ev>
   81180:	9100c3e0 	add	x0, sp, #0x30
   81184:	9400006f 	bl	81340 <_ZN6StringD1Ev>
   81188:	910103e0 	add	x0, sp, #0x40
   8118c:	9400006d 	bl	81340 <_ZN6StringD1Ev>
   81190:	910143e0 	add	x0, sp, #0x50
   81194:	94000051 	bl	812d8 <_ZN13FunctionLabelD1Ev>
   81198:	b9462be0 	ldr	w0, [sp, #1576]
   8119c:	11000400 	add	w0, w0, #0x1
   811a0:	b9062be0 	str	w0, [sp, #1576]
   811a4:	17ffff78 	b	80f84 <_Z5crash6String+0x200>
   811a8:	14000000 	b	811a8 <_Z5crash6String+0x424>

00000000000811ac <_Z5magicj>:
   811ac:	d10043ff 	sub	sp, sp, #0x10
   811b0:	b9000fe0 	str	w0, [sp, #12]
   811b4:	b9400fe0 	ldr	w0, [sp, #12]
   811b8:	53081c01 	lsl	w1, w0, #24
   811bc:	b9400fe0 	ldr	w0, [sp, #12]
   811c0:	53185c00 	lsl	w0, w0, #8
   811c4:	12101c00 	and	w0, w0, #0xff0000
   811c8:	2a000021 	orr	w1, w1, w0
   811cc:	b9400fe0 	ldr	w0, [sp, #12]
   811d0:	53087c00 	lsr	w0, w0, #8
   811d4:	12181c00 	and	w0, w0, #0xff00
   811d8:	2a000021 	orr	w1, w1, w0
   811dc:	b9400fe0 	ldr	w0, [sp, #12]
   811e0:	53187c00 	lsr	w0, w0, #24
   811e4:	2a000020 	orr	w0, w1, w0
   811e8:	910043ff 	add	sp, sp, #0x10
   811ec:	d65f03c0 	ret

00000000000811f0 <memcpy>:
   811f0:	d100c3ff 	sub	sp, sp, #0x30
   811f4:	f9000fe0 	str	x0, [sp, #24]
   811f8:	f9000be1 	str	x1, [sp, #16]
   811fc:	f90007e2 	str	x2, [sp, #8]
   81200:	f9400fe0 	ldr	x0, [sp, #24]
   81204:	f90017e0 	str	x0, [sp, #40]
   81208:	f9400be0 	ldr	x0, [sp, #16]
   8120c:	f90013e0 	str	x0, [sp, #32]
   81210:	f94007e0 	ldr	x0, [sp, #8]
   81214:	f100001f 	cmp	x0, #0x0
   81218:	540001e0 	b.eq	81254 <memcpy+0x64>  // b.none
   8121c:	f94013e0 	ldr	x0, [sp, #32]
   81220:	39400001 	ldrb	w1, [x0]
   81224:	f94017e0 	ldr	x0, [sp, #40]
   81228:	39000001 	strb	w1, [x0]
   8122c:	f94017e0 	ldr	x0, [sp, #40]
   81230:	91000400 	add	x0, x0, #0x1
   81234:	f90017e0 	str	x0, [sp, #40]
   81238:	f94013e0 	ldr	x0, [sp, #32]
   8123c:	91000400 	add	x0, x0, #0x1
   81240:	f90013e0 	str	x0, [sp, #32]
   81244:	f94007e0 	ldr	x0, [sp, #8]
   81248:	d1000400 	sub	x0, x0, #0x1
   8124c:	f90007e0 	str	x0, [sp, #8]
   81250:	17fffff0 	b	81210 <memcpy+0x20>
   81254:	d503201f 	nop
   81258:	9100c3ff 	add	sp, sp, #0x30
   8125c:	d65f03c0 	ret

0000000000081260 <_Z41__static_initialization_and_destruction_0ii>:
   81260:	a9be7bfd 	stp	x29, x30, [sp, #-32]!
   81264:	910003fd 	mov	x29, sp
   81268:	b9001fe0 	str	w0, [sp, #28]
   8126c:	b9001be1 	str	w1, [sp, #24]
   81270:	b9401fe0 	ldr	w0, [sp, #28]
   81274:	7100041f 	cmp	w0, #0x1
   81278:	540001c1 	b.ne	812b0 <_Z41__static_initialization_and_destruction_0ii+0x50>  // b.any
   8127c:	b9401be1 	ldr	w1, [sp, #24]
   81280:	529fffe0 	mov	w0, #0xffff                	// #65535
   81284:	6b00003f 	cmp	w1, w0
   81288:	54000141 	b.ne	812b0 <_Z41__static_initialization_and_destruction_0ii+0x50>  // b.any
   8128c:	90000060 	adrp	x0, 8d000 <_ZL4mbox+0xea0>
   81290:	9105c000 	add	x0, x0, #0x170
   81294:	940006a0 	bl	82d14 <_ZN11FramebufferC1Ev>
   81298:	b0000060 	adrp	x0, 8e000 <_ZL4mbox+0xe80>
   8129c:	91064000 	add	x0, x0, #0x190
   812a0:	94000459 	bl	82404 <_ZN8PSF2FontC1Ev>
   812a4:	b0000060 	adrp	x0, 8e000 <_ZL4mbox+0xe80>
   812a8:	91166000 	add	x0, x0, #0x598
   812ac:	97fffd0f 	bl	806e8 <_ZN14RPIMachineInfoC1Ev>
   812b0:	d503201f 	nop
   812b4:	a8c27bfd 	ldp	x29, x30, [sp], #32
   812b8:	d65f03c0 	ret

00000000000812bc <_GLOBAL__sub_I__ZN14RPIMachineInfoC2Ev>:
   812bc:	a9bf7bfd 	stp	x29, x30, [sp, #-16]!
   812c0:	910003fd 	mov	x29, sp
   812c4:	529fffe1 	mov	w1, #0xffff                	// #65535
   812c8:	52800020 	mov	w0, #0x1                   	// #1
   812cc:	97ffffe5 	bl	81260 <_Z41__static_initialization_and_destruction_0ii>
   812d0:	a8c17bfd 	ldp	x29, x30, [sp], #16
   812d4:	d65f03c0 	ret

00000000000812d8 <_ZN13FunctionLabelD1Ev>:
   812d8:	a9be7bfd 	stp	x29, x30, [sp, #-32]!
   812dc:	910003fd 	mov	x29, sp
   812e0:	f9000fe0 	str	x0, [sp, #24]
   812e4:	f9400fe0 	ldr	x0, [sp, #24]
   812e8:	91002000 	add	x0, x0, #0x8
   812ec:	94000015 	bl	81340 <_ZN6StringD1Ev>
   812f0:	d503201f 	nop
   812f4:	a8c27bfd 	ldp	x29, x30, [sp], #32
   812f8:	d65f03c0 	ret

00000000000812fc <_Z13measureStringPc>:
   812fc:	d10083ff 	sub	sp, sp, #0x20
   81300:	f90007e0 	str	x0, [sp, #8]
   81304:	b9001fff 	str	wzr, [sp, #28]
   81308:	f94007e0 	ldr	x0, [sp, #8]
   8130c:	39400000 	ldrb	w0, [x0]
   81310:	7100001f 	cmp	w0, #0x0
   81314:	54000100 	b.eq	81334 <_Z13measureStringPc+0x38>  // b.none
   81318:	f94007e0 	ldr	x0, [sp, #8]
   8131c:	91000400 	add	x0, x0, #0x1
   81320:	f90007e0 	str	x0, [sp, #8]
   81324:	b9401fe0 	ldr	w0, [sp, #28]
   81328:	11000400 	add	w0, w0, #0x1
   8132c:	b9001fe0 	str	w0, [sp, #28]
   81330:	17fffff6 	b	81308 <_Z13measureStringPc+0xc>
   81334:	b9401fe0 	ldr	w0, [sp, #28]
   81338:	910083ff 	add	sp, sp, #0x20
   8133c:	d65f03c0 	ret

0000000000081340 <_ZN6StringD1Ev>:
   81340:	a9be7bfd 	stp	x29, x30, [sp, #-32]!
   81344:	910003fd 	mov	x29, sp
   81348:	f9000fe0 	str	x0, [sp, #24]
   8134c:	f9400fe0 	ldr	x0, [sp, #24]
   81350:	39403000 	ldrb	w0, [x0, #12]
   81354:	7100001f 	cmp	w0, #0x0
   81358:	54000080 	b.eq	81368 <_ZN6StringD1Ev+0x28>  // b.none
   8135c:	f9400fe0 	ldr	x0, [sp, #24]
   81360:	f9400000 	ldr	x0, [x0]
   81364:	97fffe63 	bl	80cf0 <free>
   81368:	d503201f 	nop
   8136c:	a8c27bfd 	ldp	x29, x30, [sp], #32
   81370:	d65f03c0 	ret

0000000000081374 <_ZN6StringC1Ei>:
   81374:	a9be7bfd 	stp	x29, x30, [sp, #-32]!
   81378:	910003fd 	mov	x29, sp
   8137c:	f9000fe0 	str	x0, [sp, #24]
   81380:	b90017e1 	str	w1, [sp, #20]
   81384:	f9400fe0 	ldr	x0, [sp, #24]
   81388:	12800001 	mov	w1, #0xffffffff            	// #-1
   8138c:	b9000801 	str	w1, [x0, #8]
   81390:	f9400fe0 	ldr	x0, [sp, #24]
   81394:	3900301f 	strb	wzr, [x0, #12]
   81398:	b94017e0 	ldr	w0, [sp, #20]
   8139c:	97fffe05 	bl	80bb0 <malloc>
   813a0:	aa0003e1 	mov	x1, x0
   813a4:	f9400fe0 	ldr	x0, [sp, #24]
   813a8:	f9000001 	str	x1, [x0]
   813ac:	f9400fe0 	ldr	x0, [sp, #24]
   813b0:	b94017e1 	ldr	w1, [sp, #20]
   813b4:	b9000801 	str	w1, [x0, #8]
   813b8:	f9400fe0 	ldr	x0, [sp, #24]
   813bc:	52800021 	mov	w1, #0x1                   	// #1
   813c0:	39003001 	strb	w1, [x0, #12]
   813c4:	d503201f 	nop
   813c8:	a8c27bfd 	ldp	x29, x30, [sp], #32
   813cc:	d65f03c0 	ret

00000000000813d0 <_ZN6StringC1ERKS_>:
   813d0:	a9bd7bfd 	stp	x29, x30, [sp, #-48]!
   813d4:	910003fd 	mov	x29, sp
   813d8:	f9000fe0 	str	x0, [sp, #24]
   813dc:	f9000be1 	str	x1, [sp, #16]
   813e0:	f9400fe0 	ldr	x0, [sp, #24]
   813e4:	12800001 	mov	w1, #0xffffffff            	// #-1
   813e8:	b9000801 	str	w1, [x0, #8]
   813ec:	f9400fe0 	ldr	x0, [sp, #24]
   813f0:	3900301f 	strb	wzr, [x0, #12]
   813f4:	f9400be0 	ldr	x0, [sp, #16]
   813f8:	b9400800 	ldr	w0, [x0, #8]
   813fc:	3100041f 	cmn	w0, #0x1
   81400:	540000a1 	b.ne	81414 <_ZN6StringC1ERKS_+0x44>  // b.any
   81404:	f9400be0 	ldr	x0, [sp, #16]
   81408:	f9400000 	ldr	x0, [x0]
   8140c:	97ffffbc 	bl	812fc <_Z13measureStringPc>
   81410:	14000003 	b	8141c <_ZN6StringC1ERKS_+0x4c>
   81414:	f9400be0 	ldr	x0, [sp, #16]
   81418:	b9400800 	ldr	w0, [x0, #8]
   8141c:	b9002fe0 	str	w0, [sp, #44]
   81420:	b9402fe0 	ldr	w0, [sp, #44]
   81424:	97fffde3 	bl	80bb0 <malloc>
   81428:	aa0003e1 	mov	x1, x0
   8142c:	f9400fe0 	ldr	x0, [sp, #24]
   81430:	f9000001 	str	x1, [x0]
   81434:	f9400fe0 	ldr	x0, [sp, #24]
   81438:	b9402fe1 	ldr	w1, [sp, #44]
   8143c:	b9000801 	str	w1, [x0, #8]
   81440:	f9400fe0 	ldr	x0, [sp, #24]
   81444:	52800021 	mov	w1, #0x1                   	// #1
   81448:	39003001 	strb	w1, [x0, #12]
   8144c:	f9400fe0 	ldr	x0, [sp, #24]
   81450:	f9400003 	ldr	x3, [x0]
   81454:	f9400be0 	ldr	x0, [sp, #16]
   81458:	f9400000 	ldr	x0, [x0]
   8145c:	b9802fe1 	ldrsw	x1, [sp, #44]
   81460:	aa0103e2 	mov	x2, x1
   81464:	aa0003e1 	mov	x1, x0
   81468:	aa0303e0 	mov	x0, x3
   8146c:	97ffff61 	bl	811f0 <memcpy>
   81470:	d503201f 	nop
   81474:	a8c37bfd 	ldp	x29, x30, [sp], #48
   81478:	d65f03c0 	ret

000000000008147c <_ZN6StringC1Ev>:
   8147c:	d10043ff 	sub	sp, sp, #0x10
   81480:	f90007e0 	str	x0, [sp, #8]
   81484:	f94007e0 	ldr	x0, [sp, #8]
   81488:	12800001 	mov	w1, #0xffffffff            	// #-1
   8148c:	b9000801 	str	w1, [x0, #8]
   81490:	f94007e0 	ldr	x0, [sp, #8]
   81494:	3900301f 	strb	wzr, [x0, #12]
   81498:	f94007e0 	ldr	x0, [sp, #8]
   8149c:	f900001f 	str	xzr, [x0]
   814a0:	f94007e0 	ldr	x0, [sp, #8]
   814a4:	b900081f 	str	wzr, [x0, #8]
   814a8:	d503201f 	nop
   814ac:	910043ff 	add	sp, sp, #0x10
   814b0:	d65f03c0 	ret

00000000000814b4 <_ZN6StringC1EPc>:
   814b4:	d10043ff 	sub	sp, sp, #0x10
   814b8:	f90007e0 	str	x0, [sp, #8]
   814bc:	f90003e1 	str	x1, [sp]
   814c0:	f94007e0 	ldr	x0, [sp, #8]
   814c4:	12800001 	mov	w1, #0xffffffff            	// #-1
   814c8:	b9000801 	str	w1, [x0, #8]
   814cc:	f94007e0 	ldr	x0, [sp, #8]
   814d0:	3900301f 	strb	wzr, [x0, #12]
   814d4:	f94007e0 	ldr	x0, [sp, #8]
   814d8:	f94003e1 	ldr	x1, [sp]
   814dc:	f9000001 	str	x1, [x0]
   814e0:	d503201f 	nop
   814e4:	910043ff 	add	sp, sp, #0x10
   814e8:	d65f03c0 	ret

00000000000814ec <_ZN6StringC1EPKc>:
   814ec:	d10043ff 	sub	sp, sp, #0x10
   814f0:	f90007e0 	str	x0, [sp, #8]
   814f4:	f90003e1 	str	x1, [sp]
   814f8:	f94007e0 	ldr	x0, [sp, #8]
   814fc:	12800001 	mov	w1, #0xffffffff            	// #-1
   81500:	b9000801 	str	w1, [x0, #8]
   81504:	f94007e0 	ldr	x0, [sp, #8]
   81508:	3900301f 	strb	wzr, [x0, #12]
   8150c:	f94007e0 	ldr	x0, [sp, #8]
   81510:	f94003e1 	ldr	x1, [sp]
   81514:	f9000001 	str	x1, [x0]
   81518:	d503201f 	nop
   8151c:	910043ff 	add	sp, sp, #0x10
   81520:	d65f03c0 	ret

0000000000081524 <_ZN6StringC1EPci>:
   81524:	a9bd7bfd 	stp	x29, x30, [sp, #-48]!
   81528:	910003fd 	mov	x29, sp
   8152c:	f90017e0 	str	x0, [sp, #40]
   81530:	f90013e1 	str	x1, [sp, #32]
   81534:	b9001fe2 	str	w2, [sp, #28]
   81538:	f94013e1 	ldr	x1, [sp, #32]
   8153c:	f94017e0 	ldr	x0, [sp, #40]
   81540:	97ffffdd 	bl	814b4 <_ZN6StringC1EPc>
   81544:	f94017e0 	ldr	x0, [sp, #40]
   81548:	b9401fe1 	ldr	w1, [sp, #28]
   8154c:	b9000801 	str	w1, [x0, #8]
   81550:	d503201f 	nop
   81554:	a8c37bfd 	ldp	x29, x30, [sp], #48
   81558:	d65f03c0 	ret

000000000008155c <_ZN6StringC1EPKci>:
   8155c:	a9bd7bfd 	stp	x29, x30, [sp, #-48]!
   81560:	910003fd 	mov	x29, sp
   81564:	f90017e0 	str	x0, [sp, #40]
   81568:	f90013e1 	str	x1, [sp, #32]
   8156c:	b9001fe2 	str	w2, [sp, #28]
   81570:	f94013e1 	ldr	x1, [sp, #32]
   81574:	f94017e0 	ldr	x0, [sp, #40]
   81578:	97ffffdd 	bl	814ec <_ZN6StringC1EPKc>
   8157c:	f94017e0 	ldr	x0, [sp, #40]
   81580:	b9401fe1 	ldr	w1, [sp, #28]
   81584:	b9000801 	str	w1, [x0, #8]
   81588:	f94017e0 	ldr	x0, [sp, #40]
   8158c:	3900301f 	strb	wzr, [x0, #12]
   81590:	f94017e0 	ldr	x0, [sp, #40]
   81594:	f94013e1 	ldr	x1, [sp, #32]
   81598:	f9000001 	str	x1, [x0]
   8159c:	d503201f 	nop
   815a0:	a8c37bfd 	ldp	x29, x30, [sp], #48
   815a4:	d65f03c0 	ret

00000000000815a8 <_ZN6StringplES_>:
   815a8:	a9bc7bfd 	stp	x29, x30, [sp, #-64]!
   815ac:	910003fd 	mov	x29, sp
   815b0:	f9000bf3 	str	x19, [sp, #16]
   815b4:	aa0803f3 	mov	x19, x8
   815b8:	f90017e0 	str	x0, [sp, #40]
   815bc:	f90013e1 	str	x1, [sp, #32]
   815c0:	f94017e0 	ldr	x0, [sp, #40]
   815c4:	94000024 	bl	81654 <_ZN6String9GetLengthEv>
   815c8:	b9003fe0 	str	w0, [sp, #60]
   815cc:	f94013e0 	ldr	x0, [sp, #32]
   815d0:	94000021 	bl	81654 <_ZN6String9GetLengthEv>
   815d4:	b9003be0 	str	w0, [sp, #56]
   815d8:	b9403fe1 	ldr	w1, [sp, #60]
   815dc:	b9403be0 	ldr	w0, [sp, #56]
   815e0:	0b000020 	add	w0, w1, w0
   815e4:	2a0003e1 	mov	w1, w0
   815e8:	aa1303e0 	mov	x0, x19
   815ec:	97ffff62 	bl	81374 <_ZN6StringC1Ei>
   815f0:	f9400260 	ldr	x0, [x19]
   815f4:	f9001be0 	str	x0, [sp, #48]
   815f8:	f94017e0 	ldr	x0, [sp, #40]
   815fc:	f9400000 	ldr	x0, [x0]
   81600:	b9803fe1 	ldrsw	x1, [sp, #60]
   81604:	aa0103e2 	mov	x2, x1
   81608:	aa0003e1 	mov	x1, x0
   8160c:	f9401be0 	ldr	x0, [sp, #48]
   81610:	97fffef8 	bl	811f0 <memcpy>
   81614:	b9803fe0 	ldrsw	x0, [sp, #60]
   81618:	f9401be1 	ldr	x1, [sp, #48]
   8161c:	8b000020 	add	x0, x1, x0
   81620:	f9001be0 	str	x0, [sp, #48]
   81624:	f94013e0 	ldr	x0, [sp, #32]
   81628:	f9400000 	ldr	x0, [x0]
   8162c:	b9803be1 	ldrsw	x1, [sp, #56]
   81630:	aa0103e2 	mov	x2, x1
   81634:	aa0003e1 	mov	x1, x0
   81638:	f9401be0 	ldr	x0, [sp, #48]
   8163c:	97fffeed 	bl	811f0 <memcpy>
   81640:	d503201f 	nop
   81644:	aa1303e0 	mov	x0, x19
   81648:	f9400bf3 	ldr	x19, [sp, #16]
   8164c:	a8c47bfd 	ldp	x29, x30, [sp], #64
   81650:	d65f03c0 	ret

0000000000081654 <_ZN6String9GetLengthEv>:
   81654:	a9be7bfd 	stp	x29, x30, [sp, #-32]!
   81658:	910003fd 	mov	x29, sp
   8165c:	f9000fe0 	str	x0, [sp, #24]
   81660:	f9400fe0 	ldr	x0, [sp, #24]
   81664:	b9400800 	ldr	w0, [x0, #8]
   81668:	3100041f 	cmn	w0, #0x1
   8166c:	540000e1 	b.ne	81688 <_ZN6String9GetLengthEv+0x34>  // b.any
   81670:	f9400fe0 	ldr	x0, [sp, #24]
   81674:	f9400000 	ldr	x0, [x0]
   81678:	97ffff21 	bl	812fc <_Z13measureStringPc>
   8167c:	2a0003e1 	mov	w1, w0
   81680:	f9400fe0 	ldr	x0, [sp, #24]
   81684:	b9000801 	str	w1, [x0, #8]
   81688:	f9400fe0 	ldr	x0, [sp, #24]
   8168c:	b9400800 	ldr	w0, [x0, #8]
   81690:	a8c27bfd 	ldp	x29, x30, [sp], #32
   81694:	d65f03c0 	ret

0000000000081698 <_ZN6String6RemoveEi>:
   81698:	a9bd7bfd 	stp	x29, x30, [sp, #-48]!
   8169c:	910003fd 	mov	x29, sp
   816a0:	f9000bf3 	str	x19, [sp, #16]
   816a4:	aa0803f3 	mov	x19, x8
   816a8:	f90017e0 	str	x0, [sp, #40]
   816ac:	b90027e1 	str	w1, [sp, #36]
   816b0:	f94017e0 	ldr	x0, [sp, #40]
   816b4:	f9400000 	ldr	x0, [x0]
   816b8:	b94027e2 	ldr	w2, [sp, #36]
   816bc:	aa0003e1 	mov	x1, x0
   816c0:	aa1303e0 	mov	x0, x19
   816c4:	97ffff98 	bl	81524 <_ZN6StringC1EPci>
   816c8:	aa1303e0 	mov	x0, x19
   816cc:	f9400bf3 	ldr	x19, [sp, #16]
   816d0:	a8c37bfd 	ldp	x29, x30, [sp], #48
   816d4:	d65f03c0 	ret

00000000000816d8 <_ZN6String9SubstringEi>:
   816d8:	a9bd7bfd 	stp	x29, x30, [sp, #-48]!
   816dc:	910003fd 	mov	x29, sp
   816e0:	a90153f3 	stp	x19, x20, [sp, #16]
   816e4:	aa0803f3 	mov	x19, x8
   816e8:	f90017e0 	str	x0, [sp, #40]
   816ec:	b90027e1 	str	w1, [sp, #36]
   816f0:	f94017e0 	ldr	x0, [sp, #40]
   816f4:	f9400001 	ldr	x1, [x0]
   816f8:	b98027e0 	ldrsw	x0, [sp, #36]
   816fc:	8b000034 	add	x20, x1, x0
   81700:	f94017e0 	ldr	x0, [sp, #40]
   81704:	97ffffd4 	bl	81654 <_ZN6String9GetLengthEv>
   81708:	2a0003e1 	mov	w1, w0
   8170c:	b94027e0 	ldr	w0, [sp, #36]
   81710:	4b000020 	sub	w0, w1, w0
   81714:	2a0003e2 	mov	w2, w0
   81718:	aa1403e1 	mov	x1, x20
   8171c:	aa1303e0 	mov	x0, x19
   81720:	97ffff81 	bl	81524 <_ZN6StringC1EPci>
   81724:	aa1303e0 	mov	x0, x19
   81728:	a94153f3 	ldp	x19, x20, [sp, #16]
   8172c:	a8c37bfd 	ldp	x29, x30, [sp], #48
   81730:	d65f03c0 	ret

0000000000081734 <_ZN6String9SubstringEii>:
   81734:	a9bd7bfd 	stp	x29, x30, [sp, #-48]!
   81738:	910003fd 	mov	x29, sp
   8173c:	f9000bf3 	str	x19, [sp, #16]
   81740:	aa0803f3 	mov	x19, x8
   81744:	f90017e0 	str	x0, [sp, #40]
   81748:	b90027e1 	str	w1, [sp, #36]
   8174c:	b90023e2 	str	w2, [sp, #32]
   81750:	f94017e0 	ldr	x0, [sp, #40]
   81754:	f9400001 	ldr	x1, [x0]
   81758:	b98027e0 	ldrsw	x0, [sp, #36]
   8175c:	8b000020 	add	x0, x1, x0
   81760:	b94023e2 	ldr	w2, [sp, #32]
   81764:	aa0003e1 	mov	x1, x0
   81768:	aa1303e0 	mov	x0, x19
   8176c:	97ffff6e 	bl	81524 <_ZN6StringC1EPci>
   81770:	aa1303e0 	mov	x0, x19
   81774:	f9400bf3 	ldr	x19, [sp, #16]
   81778:	a8c37bfd 	ldp	x29, x30, [sp], #48
   8177c:	d65f03c0 	ret

0000000000081780 <_ZN6String8ToUInt64E22StringConversionFormat>:
   81780:	a9ba7bfd 	stp	x29, x30, [sp, #-96]!
   81784:	910003fd 	mov	x29, sp
   81788:	f9000fe0 	str	x0, [sp, #24]
   8178c:	b90017e1 	str	w1, [sp, #20]
   81790:	f9400fe0 	ldr	x0, [sp, #24]
   81794:	97ffffb0 	bl	81654 <_ZN6String9GetLengthEv>
   81798:	b9004be0 	str	w0, [sp, #72]
   8179c:	f9002fff 	str	xzr, [sp, #88]
   817a0:	b94017e0 	ldr	w0, [sp, #20]
   817a4:	7100041f 	cmp	w0, #0x1
   817a8:	54000461 	b.ne	81834 <_ZN6String8ToUInt64E22StringConversionFormat+0xb4>  // b.any
   817ac:	b90057ff 	str	wzr, [sp, #84]
   817b0:	b94057e1 	ldr	w1, [sp, #84]
   817b4:	b9404be0 	ldr	w0, [sp, #72]
   817b8:	6b00003f 	cmp	w1, w0
   817bc:	5400108a 	b.ge	819cc <_ZN6String8ToUInt64E22StringConversionFormat+0x24c>  // b.tcont
   817c0:	f9400fe0 	ldr	x0, [sp, #24]
   817c4:	f9400001 	ldr	x1, [x0]
   817c8:	b98057e0 	ldrsw	x0, [sp, #84]
   817cc:	8b000020 	add	x0, x1, x0
   817d0:	39400000 	ldrb	w0, [x0]
   817d4:	3900bfe0 	strb	w0, [sp, #47]
   817d8:	3940bfe0 	ldrb	w0, [sp, #47]
   817dc:	7100bc1f 	cmp	w0, #0x2f
   817e0:	54000f69 	b.ls	819cc <_ZN6String8ToUInt64E22StringConversionFormat+0x24c>  // b.plast
   817e4:	3940bfe0 	ldrb	w0, [sp, #47]
   817e8:	7100e41f 	cmp	w0, #0x39
   817ec:	54000f08 	b.hi	819cc <_ZN6String8ToUInt64E22StringConversionFormat+0x24c>  // b.pmore
   817f0:	f9402fe1 	ldr	x1, [sp, #88]
   817f4:	aa0103e0 	mov	x0, x1
   817f8:	d37ef400 	lsl	x0, x0, #2
   817fc:	8b010000 	add	x0, x0, x1
   81800:	8b000000 	add	x0, x0, x0
   81804:	f9002fe0 	str	x0, [sp, #88]
   81808:	3940bfe0 	ldrb	w0, [sp, #47]
   8180c:	5100c000 	sub	w0, w0, #0x30
   81810:	b9002be0 	str	w0, [sp, #40]
   81814:	b9802be0 	ldrsw	x0, [sp, #40]
   81818:	f9402fe1 	ldr	x1, [sp, #88]
   8181c:	8b000020 	add	x0, x1, x0
   81820:	f9002fe0 	str	x0, [sp, #88]
   81824:	b94057e0 	ldr	w0, [sp, #84]
   81828:	11000400 	add	w0, w0, #0x1
   8182c:	b90057e0 	str	w0, [sp, #84]
   81830:	17ffffe0 	b	817b0 <_ZN6String8ToUInt64E22StringConversionFormat+0x30>
   81834:	b94017e0 	ldr	w0, [sp, #20]
   81838:	7100081f 	cmp	w0, #0x2
   8183c:	54000841 	b.ne	81944 <_ZN6String8ToUInt64E22StringConversionFormat+0x1c4>  // b.any
   81840:	b90053ff 	str	wzr, [sp, #80]
   81844:	b94053e1 	ldr	w1, [sp, #80]
   81848:	b9404be0 	ldr	w0, [sp, #72]
   8184c:	6b00003f 	cmp	w1, w0
   81850:	54000bea 	b.ge	819cc <_ZN6String8ToUInt64E22StringConversionFormat+0x24c>  // b.tcont
   81854:	f9400fe0 	ldr	x0, [sp, #24]
   81858:	f9400001 	ldr	x1, [x0]
   8185c:	b98053e0 	ldrsw	x0, [sp, #80]
   81860:	8b000020 	add	x0, x1, x0
   81864:	39400000 	ldrb	w0, [x0]
   81868:	3900ffe0 	strb	w0, [sp, #63]
   8186c:	3940ffe0 	ldrb	w0, [sp, #63]
   81870:	7100bc1f 	cmp	w0, #0x2f
   81874:	540001e9 	b.ls	818b0 <_ZN6String8ToUInt64E22StringConversionFormat+0x130>  // b.plast
   81878:	3940ffe0 	ldrb	w0, [sp, #63]
   8187c:	7100e41f 	cmp	w0, #0x39
   81880:	54000188 	b.hi	818b0 <_ZN6String8ToUInt64E22StringConversionFormat+0x130>  // b.pmore
   81884:	f9402fe0 	ldr	x0, [sp, #88]
   81888:	d37cec00 	lsl	x0, x0, #4
   8188c:	f9002fe0 	str	x0, [sp, #88]
   81890:	3940ffe0 	ldrb	w0, [sp, #63]
   81894:	5100c000 	sub	w0, w0, #0x30
   81898:	b9003be0 	str	w0, [sp, #56]
   8189c:	b9803be0 	ldrsw	x0, [sp, #56]
   818a0:	f9402fe1 	ldr	x1, [sp, #88]
   818a4:	8b000020 	add	x0, x1, x0
   818a8:	f9002fe0 	str	x0, [sp, #88]
   818ac:	14000022 	b	81934 <_ZN6String8ToUInt64E22StringConversionFormat+0x1b4>
   818b0:	3940ffe0 	ldrb	w0, [sp, #63]
   818b4:	7101001f 	cmp	w0, #0x40
   818b8:	540001e9 	b.ls	818f4 <_ZN6String8ToUInt64E22StringConversionFormat+0x174>  // b.plast
   818bc:	3940ffe0 	ldrb	w0, [sp, #63]
   818c0:	7101181f 	cmp	w0, #0x46
   818c4:	54000188 	b.hi	818f4 <_ZN6String8ToUInt64E22StringConversionFormat+0x174>  // b.pmore
   818c8:	f9402fe0 	ldr	x0, [sp, #88]
   818cc:	d37cec00 	lsl	x0, x0, #4
   818d0:	f9002fe0 	str	x0, [sp, #88]
   818d4:	3940ffe0 	ldrb	w0, [sp, #63]
   818d8:	5100dc00 	sub	w0, w0, #0x37
   818dc:	b90037e0 	str	w0, [sp, #52]
   818e0:	b98037e0 	ldrsw	x0, [sp, #52]
   818e4:	f9402fe1 	ldr	x1, [sp, #88]
   818e8:	8b000020 	add	x0, x1, x0
   818ec:	f9002fe0 	str	x0, [sp, #88]
   818f0:	14000011 	b	81934 <_ZN6String8ToUInt64E22StringConversionFormat+0x1b4>
   818f4:	3940ffe0 	ldrb	w0, [sp, #63]
   818f8:	7101801f 	cmp	w0, #0x60
   818fc:	54000689 	b.ls	819cc <_ZN6String8ToUInt64E22StringConversionFormat+0x24c>  // b.plast
   81900:	3940ffe0 	ldrb	w0, [sp, #63]
   81904:	7101981f 	cmp	w0, #0x66
   81908:	54000628 	b.hi	819cc <_ZN6String8ToUInt64E22StringConversionFormat+0x24c>  // b.pmore
   8190c:	f9402fe0 	ldr	x0, [sp, #88]
   81910:	d37cec00 	lsl	x0, x0, #4
   81914:	f9002fe0 	str	x0, [sp, #88]
   81918:	3940ffe0 	ldrb	w0, [sp, #63]
   8191c:	51015c00 	sub	w0, w0, #0x57
   81920:	b90033e0 	str	w0, [sp, #48]
   81924:	b98033e0 	ldrsw	x0, [sp, #48]
   81928:	f9402fe1 	ldr	x1, [sp, #88]
   8192c:	8b000020 	add	x0, x1, x0
   81930:	f9002fe0 	str	x0, [sp, #88]
   81934:	b94053e0 	ldr	w0, [sp, #80]
   81938:	11000400 	add	w0, w0, #0x1
   8193c:	b90053e0 	str	w0, [sp, #80]
   81940:	17ffffc1 	b	81844 <_ZN6String8ToUInt64E22StringConversionFormat+0xc4>
   81944:	b94017e0 	ldr	w0, [sp, #20]
   81948:	7100001f 	cmp	w0, #0x0
   8194c:	54000401 	b.ne	819cc <_ZN6String8ToUInt64E22StringConversionFormat+0x24c>  // b.any
   81950:	b9004fff 	str	wzr, [sp, #76]
   81954:	b9404fe1 	ldr	w1, [sp, #76]
   81958:	b9404be0 	ldr	w0, [sp, #72]
   8195c:	6b00003f 	cmp	w1, w0
   81960:	5400036a 	b.ge	819cc <_ZN6String8ToUInt64E22StringConversionFormat+0x24c>  // b.tcont
   81964:	f9400fe0 	ldr	x0, [sp, #24]
   81968:	f9400001 	ldr	x1, [x0]
   8196c:	b9804fe0 	ldrsw	x0, [sp, #76]
   81970:	8b000020 	add	x0, x1, x0
   81974:	39400000 	ldrb	w0, [x0]
   81978:	39011fe0 	strb	w0, [sp, #71]
   8197c:	39411fe0 	ldrb	w0, [sp, #71]
   81980:	7100bc1f 	cmp	w0, #0x2f
   81984:	54000249 	b.ls	819cc <_ZN6String8ToUInt64E22StringConversionFormat+0x24c>  // b.plast
   81988:	39411fe0 	ldrb	w0, [sp, #71]
   8198c:	7100c41f 	cmp	w0, #0x31
   81990:	540001e8 	b.hi	819cc <_ZN6String8ToUInt64E22StringConversionFormat+0x24c>  // b.pmore
   81994:	f9402fe0 	ldr	x0, [sp, #88]
   81998:	8b000000 	add	x0, x0, x0
   8199c:	f9002fe0 	str	x0, [sp, #88]
   819a0:	39411fe0 	ldrb	w0, [sp, #71]
   819a4:	5100c000 	sub	w0, w0, #0x30
   819a8:	b90043e0 	str	w0, [sp, #64]
   819ac:	b98043e0 	ldrsw	x0, [sp, #64]
   819b0:	f9402fe1 	ldr	x1, [sp, #88]
   819b4:	8b000020 	add	x0, x1, x0
   819b8:	f9002fe0 	str	x0, [sp, #88]
   819bc:	b9404fe0 	ldr	w0, [sp, #76]
   819c0:	11000400 	add	w0, w0, #0x1
   819c4:	b9004fe0 	str	w0, [sp, #76]
   819c8:	17ffffe3 	b	81954 <_ZN6String8ToUInt64E22StringConversionFormat+0x1d4>
   819cc:	f9402fe0 	ldr	x0, [sp, #88]
   819d0:	a8c67bfd 	ldp	x29, x30, [sp], #96
   819d4:	d65f03c0 	ret

00000000000819d8 <_Z14ParseIntBinaryji>:
   819d8:	a9bc7bfd 	stp	x29, x30, [sp, #-64]!
   819dc:	910003fd 	mov	x29, sp
   819e0:	f9000bf3 	str	x19, [sp, #16]
   819e4:	aa0803f3 	mov	x19, x8
   819e8:	b9002fe0 	str	w0, [sp, #44]
   819ec:	b9002be1 	str	w1, [sp, #40]
   819f0:	b9402be1 	ldr	w1, [sp, #40]
   819f4:	aa1303e0 	mov	x0, x19
   819f8:	97fffe5f 	bl	81374 <_ZN6StringC1Ei>
   819fc:	b9003fff 	str	wzr, [sp, #60]
   81a00:	b9403fe1 	ldr	w1, [sp, #60]
   81a04:	b9402be0 	ldr	w0, [sp, #40]
   81a08:	6b00003f 	cmp	w1, w0
   81a0c:	5400036a 	b.ge	81a78 <_Z14ParseIntBinaryji+0xa0>  // b.tcont
   81a10:	b9402be0 	ldr	w0, [sp, #40]
   81a14:	51000401 	sub	w1, w0, #0x1
   81a18:	b9403fe0 	ldr	w0, [sp, #60]
   81a1c:	4b000020 	sub	w0, w1, w0
   81a20:	52800021 	mov	w1, #0x1                   	// #1
   81a24:	1ac02020 	lsl	w0, w1, w0
   81a28:	2a0003e1 	mov	w1, w0
   81a2c:	b9402fe0 	ldr	w0, [sp, #44]
   81a30:	0a000020 	and	w0, w1, w0
   81a34:	7100001f 	cmp	w0, #0x0
   81a38:	540000e0 	b.eq	81a54 <_Z14ParseIntBinaryji+0x7c>  // b.none
   81a3c:	f9400261 	ldr	x1, [x19]
   81a40:	b9803fe0 	ldrsw	x0, [sp, #60]
   81a44:	8b000020 	add	x0, x1, x0
   81a48:	52800621 	mov	w1, #0x31                  	// #49
   81a4c:	39000001 	strb	w1, [x0]
   81a50:	14000006 	b	81a68 <_Z14ParseIntBinaryji+0x90>
   81a54:	f9400261 	ldr	x1, [x19]
   81a58:	b9803fe0 	ldrsw	x0, [sp, #60]
   81a5c:	8b000020 	add	x0, x1, x0
   81a60:	52800601 	mov	w1, #0x30                  	// #48
   81a64:	39000001 	strb	w1, [x0]
   81a68:	b9403fe0 	ldr	w0, [sp, #60]
   81a6c:	11000400 	add	w0, w0, #0x1
   81a70:	b9003fe0 	str	w0, [sp, #60]
   81a74:	17ffffe3 	b	81a00 <_Z14ParseIntBinaryji+0x28>
   81a78:	d503201f 	nop
   81a7c:	aa1303e0 	mov	x0, x19
   81a80:	f9400bf3 	ldr	x19, [sp, #16]
   81a84:	a8c47bfd 	ldp	x29, x30, [sp], #64
   81a88:	d65f03c0 	ret

0000000000081a8c <_Z11ParseIntHexji>:
   81a8c:	a9bb7bfd 	stp	x29, x30, [sp, #-80]!
   81a90:	910003fd 	mov	x29, sp
   81a94:	f9000bf3 	str	x19, [sp, #16]
   81a98:	aa0803f3 	mov	x19, x8
   81a9c:	b9002fe0 	str	w0, [sp, #44]
   81aa0:	b9002be1 	str	w1, [sp, #40]
   81aa4:	b9402be0 	ldr	w0, [sp, #40]
   81aa8:	11000c01 	add	w1, w0, #0x3
   81aac:	7100001f 	cmp	w0, #0x0
   81ab0:	1a80b020 	csel	w0, w1, w0, lt  // lt = tstop
   81ab4:	13027c00 	asr	w0, w0, #2
   81ab8:	b90043e0 	str	w0, [sp, #64]
   81abc:	b94043e1 	ldr	w1, [sp, #64]
   81ac0:	aa1303e0 	mov	x0, x19
   81ac4:	97fffe2c 	bl	81374 <_ZN6StringC1Ei>
   81ac8:	f9400260 	ldr	x0, [x19]
   81acc:	f90027e0 	str	x0, [sp, #72]
   81ad0:	b90047ff 	str	wzr, [sp, #68]
   81ad4:	b94047e1 	ldr	w1, [sp, #68]
   81ad8:	b94043e0 	ldr	w0, [sp, #64]
   81adc:	6b00003f 	cmp	w1, w0
   81ae0:	5400050a 	b.ge	81b80 <_Z11ParseIntHexji+0xf4>  // b.tcont
   81ae4:	b9402be0 	ldr	w0, [sp, #40]
   81ae8:	51001001 	sub	w1, w0, #0x4
   81aec:	b94047e0 	ldr	w0, [sp, #68]
   81af0:	531e7400 	lsl	w0, w0, #2
   81af4:	4b000020 	sub	w0, w1, w0
   81af8:	b9003fe0 	str	w0, [sp, #60]
   81afc:	b9403fe0 	ldr	w0, [sp, #60]
   81b00:	528001e1 	mov	w1, #0xf                   	// #15
   81b04:	1ac02020 	lsl	w0, w1, w0
   81b08:	b9003be0 	str	w0, [sp, #56]
   81b0c:	b9403be1 	ldr	w1, [sp, #56]
   81b10:	b9402fe0 	ldr	w0, [sp, #44]
   81b14:	0a000021 	and	w1, w1, w0
   81b18:	b9403fe0 	ldr	w0, [sp, #60]
   81b1c:	1ac02420 	lsr	w0, w1, w0
   81b20:	b90037e0 	str	w0, [sp, #52]
   81b24:	b94037e0 	ldr	w0, [sp, #52]
   81b28:	7100241f 	cmp	w0, #0x9
   81b2c:	54000108 	b.hi	81b4c <_Z11ParseIntHexji+0xc0>  // b.pmore
   81b30:	b94037e0 	ldr	w0, [sp, #52]
   81b34:	12001c00 	and	w0, w0, #0xff
   81b38:	1100c000 	add	w0, w0, #0x30
   81b3c:	12001c01 	and	w1, w0, #0xff
   81b40:	f94027e0 	ldr	x0, [sp, #72]
   81b44:	39000001 	strb	w1, [x0]
   81b48:	14000007 	b	81b64 <_Z11ParseIntHexji+0xd8>
   81b4c:	b94037e0 	ldr	w0, [sp, #52]
   81b50:	12001c00 	and	w0, w0, #0xff
   81b54:	1100dc00 	add	w0, w0, #0x37
   81b58:	12001c01 	and	w1, w0, #0xff
   81b5c:	f94027e0 	ldr	x0, [sp, #72]
   81b60:	39000001 	strb	w1, [x0]
   81b64:	f94027e0 	ldr	x0, [sp, #72]
   81b68:	91000400 	add	x0, x0, #0x1
   81b6c:	f90027e0 	str	x0, [sp, #72]
   81b70:	b94047e0 	ldr	w0, [sp, #68]
   81b74:	11000400 	add	w0, w0, #0x1
   81b78:	b90047e0 	str	w0, [sp, #68]
   81b7c:	17ffffd6 	b	81ad4 <_Z11ParseIntHexji+0x48>
   81b80:	d503201f 	nop
   81b84:	aa1303e0 	mov	x0, x19
   81b88:	f9400bf3 	ldr	x19, [sp, #16]
   81b8c:	a8c57bfd 	ldp	x29, x30, [sp], #80
   81b90:	d65f03c0 	ret

0000000000081b94 <_ZN6String8ParseIntEi22StringConversionFormat>:
   81b94:	a9bd7bfd 	stp	x29, x30, [sp, #-48]!
   81b98:	910003fd 	mov	x29, sp
   81b9c:	f9000bf3 	str	x19, [sp, #16]
   81ba0:	aa0803f3 	mov	x19, x8
   81ba4:	b9002fe0 	str	w0, [sp, #44]
   81ba8:	b9002be1 	str	w1, [sp, #40]
   81bac:	b9402be0 	ldr	w0, [sp, #40]
   81bb0:	7100001f 	cmp	w0, #0x0
   81bb4:	540000c1 	b.ne	81bcc <_ZN6String8ParseIntEi22StringConversionFormat+0x38>  // b.any
   81bb8:	b9402fe0 	ldr	w0, [sp, #44]
   81bbc:	aa1303e8 	mov	x8, x19
   81bc0:	52800401 	mov	w1, #0x20                  	// #32
   81bc4:	97ffff85 	bl	819d8 <_Z14ParseIntBinaryji>
   81bc8:	1400000e 	b	81c00 <_ZN6String8ParseIntEi22StringConversionFormat+0x6c>
   81bcc:	b9402be0 	ldr	w0, [sp, #40]
   81bd0:	7100081f 	cmp	w0, #0x2
   81bd4:	540000c1 	b.ne	81bec <_ZN6String8ParseIntEi22StringConversionFormat+0x58>  // b.any
   81bd8:	b9402fe0 	ldr	w0, [sp, #44]
   81bdc:	aa1303e8 	mov	x8, x19
   81be0:	52800401 	mov	w1, #0x20                  	// #32
   81be4:	97ffffaa 	bl	81a8c <_Z11ParseIntHexji>
   81be8:	14000006 	b	81c00 <_ZN6String8ParseIntEi22StringConversionFormat+0x6c>
   81bec:	b9802fe0 	ldrsw	x0, [sp, #44]
   81bf0:	aa1303e8 	mov	x8, x19
   81bf4:	52800402 	mov	w2, #0x20                  	// #32
   81bf8:	b9402be1 	ldr	w1, [sp, #40]
   81bfc:	94000083 	bl	81e08 <_ZN6String9ParseLongEl22StringConversionFormati>
   81c00:	aa1303e0 	mov	x0, x19
   81c04:	f9400bf3 	ldr	x19, [sp, #16]
   81c08:	a8c37bfd 	ldp	x29, x30, [sp], #48
   81c0c:	d65f03c0 	ret

0000000000081c10 <_ZN6String8ParseIntEj22StringConversionFormat>:
   81c10:	a9bd7bfd 	stp	x29, x30, [sp, #-48]!
   81c14:	910003fd 	mov	x29, sp
   81c18:	f9000bf3 	str	x19, [sp, #16]
   81c1c:	aa0803f3 	mov	x19, x8
   81c20:	b9002fe0 	str	w0, [sp, #44]
   81c24:	b9002be1 	str	w1, [sp, #40]
   81c28:	b9402fe0 	ldr	w0, [sp, #44]
   81c2c:	aa1303e8 	mov	x8, x19
   81c30:	52800402 	mov	w2, #0x20                  	// #32
   81c34:	b9402be1 	ldr	w1, [sp, #40]
   81c38:	940000e3 	bl	81fc4 <_ZN6String9ParseLongEm22StringConversionFormati>
   81c3c:	aa1303e0 	mov	x0, x19
   81c40:	f9400bf3 	ldr	x19, [sp, #16]
   81c44:	a8c37bfd 	ldp	x29, x30, [sp], #48
   81c48:	d65f03c0 	ret

0000000000081c4c <_Z15ParseLongBinarymi>:
   81c4c:	a9bc7bfd 	stp	x29, x30, [sp, #-64]!
   81c50:	910003fd 	mov	x29, sp
   81c54:	f9000bf3 	str	x19, [sp, #16]
   81c58:	aa0803f3 	mov	x19, x8
   81c5c:	f90017e0 	str	x0, [sp, #40]
   81c60:	b90027e1 	str	w1, [sp, #36]
   81c64:	b94027e1 	ldr	w1, [sp, #36]
   81c68:	aa1303e0 	mov	x0, x19
   81c6c:	97fffdc2 	bl	81374 <_ZN6StringC1Ei>
   81c70:	b9003fff 	str	wzr, [sp, #60]
   81c74:	b9403fe1 	ldr	w1, [sp, #60]
   81c78:	b94027e0 	ldr	w0, [sp, #36]
   81c7c:	6b00003f 	cmp	w1, w0
   81c80:	5400036a 	b.ge	81cec <_Z15ParseLongBinarymi+0xa0>  // b.tcont
   81c84:	b94027e0 	ldr	w0, [sp, #36]
   81c88:	51000401 	sub	w1, w0, #0x1
   81c8c:	b9403fe0 	ldr	w0, [sp, #60]
   81c90:	4b000020 	sub	w0, w1, w0
   81c94:	52800021 	mov	w1, #0x1                   	// #1
   81c98:	1ac02020 	lsl	w0, w1, w0
   81c9c:	93407c01 	sxtw	x1, w0
   81ca0:	f94017e0 	ldr	x0, [sp, #40]
   81ca4:	8a000020 	and	x0, x1, x0
   81ca8:	f100001f 	cmp	x0, #0x0
   81cac:	540000e0 	b.eq	81cc8 <_Z15ParseLongBinarymi+0x7c>  // b.none
   81cb0:	f9400261 	ldr	x1, [x19]
   81cb4:	b9803fe0 	ldrsw	x0, [sp, #60]
   81cb8:	8b000020 	add	x0, x1, x0
   81cbc:	52800621 	mov	w1, #0x31                  	// #49
   81cc0:	39000001 	strb	w1, [x0]
   81cc4:	14000006 	b	81cdc <_Z15ParseLongBinarymi+0x90>
   81cc8:	f9400261 	ldr	x1, [x19]
   81ccc:	b9803fe0 	ldrsw	x0, [sp, #60]
   81cd0:	8b000020 	add	x0, x1, x0
   81cd4:	52800601 	mov	w1, #0x30                  	// #48
   81cd8:	39000001 	strb	w1, [x0]
   81cdc:	b9403fe0 	ldr	w0, [sp, #60]
   81ce0:	11000400 	add	w0, w0, #0x1
   81ce4:	b9003fe0 	str	w0, [sp, #60]
   81ce8:	17ffffe3 	b	81c74 <_Z15ParseLongBinarymi+0x28>
   81cec:	d503201f 	nop
   81cf0:	aa1303e0 	mov	x0, x19
   81cf4:	f9400bf3 	ldr	x19, [sp, #16]
   81cf8:	a8c47bfd 	ldp	x29, x30, [sp], #64
   81cfc:	d65f03c0 	ret

0000000000081d00 <_Z12ParseLongHexmi>:
   81d00:	a9bb7bfd 	stp	x29, x30, [sp, #-80]!
   81d04:	910003fd 	mov	x29, sp
   81d08:	f9000bf3 	str	x19, [sp, #16]
   81d0c:	aa0803f3 	mov	x19, x8
   81d10:	f90017e0 	str	x0, [sp, #40]
   81d14:	b90027e1 	str	w1, [sp, #36]
   81d18:	b94027e0 	ldr	w0, [sp, #36]
   81d1c:	11000c01 	add	w1, w0, #0x3
   81d20:	7100001f 	cmp	w0, #0x0
   81d24:	1a80b020 	csel	w0, w1, w0, lt  // lt = tstop
   81d28:	13027c00 	asr	w0, w0, #2
   81d2c:	b90043e0 	str	w0, [sp, #64]
   81d30:	b94043e1 	ldr	w1, [sp, #64]
   81d34:	aa1303e0 	mov	x0, x19
   81d38:	97fffd8f 	bl	81374 <_ZN6StringC1Ei>
   81d3c:	f9400260 	ldr	x0, [x19]
   81d40:	f90027e0 	str	x0, [sp, #72]
   81d44:	b90047ff 	str	wzr, [sp, #68]
   81d48:	b94047e1 	ldr	w1, [sp, #68]
   81d4c:	b94043e0 	ldr	w0, [sp, #64]
   81d50:	6b00003f 	cmp	w1, w0
   81d54:	5400050a 	b.ge	81df4 <_Z12ParseLongHexmi+0xf4>  // b.tcont
   81d58:	b94027e0 	ldr	w0, [sp, #36]
   81d5c:	51001001 	sub	w1, w0, #0x4
   81d60:	b94047e0 	ldr	w0, [sp, #68]
   81d64:	531e7400 	lsl	w0, w0, #2
   81d68:	4b000020 	sub	w0, w1, w0
   81d6c:	b9003fe0 	str	w0, [sp, #60]
   81d70:	b9403fe0 	ldr	w0, [sp, #60]
   81d74:	528001e1 	mov	w1, #0xf                   	// #15
   81d78:	1ac02020 	lsl	w0, w1, w0
   81d7c:	b9003be0 	str	w0, [sp, #56]
   81d80:	b9803be1 	ldrsw	x1, [sp, #56]
   81d84:	f94017e0 	ldr	x0, [sp, #40]
   81d88:	8a000021 	and	x1, x1, x0
   81d8c:	b9403fe0 	ldr	w0, [sp, #60]
   81d90:	9ac02420 	lsr	x0, x1, x0
   81d94:	b90037e0 	str	w0, [sp, #52]
   81d98:	b94037e0 	ldr	w0, [sp, #52]
   81d9c:	7100241f 	cmp	w0, #0x9
   81da0:	54000108 	b.hi	81dc0 <_Z12ParseLongHexmi+0xc0>  // b.pmore
   81da4:	b94037e0 	ldr	w0, [sp, #52]
   81da8:	12001c00 	and	w0, w0, #0xff
   81dac:	1100c000 	add	w0, w0, #0x30
   81db0:	12001c01 	and	w1, w0, #0xff
   81db4:	f94027e0 	ldr	x0, [sp, #72]
   81db8:	39000001 	strb	w1, [x0]
   81dbc:	14000007 	b	81dd8 <_Z12ParseLongHexmi+0xd8>
   81dc0:	b94037e0 	ldr	w0, [sp, #52]
   81dc4:	12001c00 	and	w0, w0, #0xff
   81dc8:	1100dc00 	add	w0, w0, #0x37
   81dcc:	12001c01 	and	w1, w0, #0xff
   81dd0:	f94027e0 	ldr	x0, [sp, #72]
   81dd4:	39000001 	strb	w1, [x0]
   81dd8:	f94027e0 	ldr	x0, [sp, #72]
   81ddc:	91000400 	add	x0, x0, #0x1
   81de0:	f90027e0 	str	x0, [sp, #72]
   81de4:	b94047e0 	ldr	w0, [sp, #68]
   81de8:	11000400 	add	w0, w0, #0x1
   81dec:	b90047e0 	str	w0, [sp, #68]
   81df0:	17ffffd6 	b	81d48 <_Z12ParseLongHexmi+0x48>
   81df4:	d503201f 	nop
   81df8:	aa1303e0 	mov	x0, x19
   81dfc:	f9400bf3 	ldr	x19, [sp, #16]
   81e00:	a8c57bfd 	ldp	x29, x30, [sp], #80
   81e04:	d65f03c0 	ret

0000000000081e08 <_ZN6String9ParseLongEl22StringConversionFormati>:
   81e08:	a9ba7bfd 	stp	x29, x30, [sp, #-96]!
   81e0c:	910003fd 	mov	x29, sp
   81e10:	f9000bf3 	str	x19, [sp, #16]
   81e14:	aa0803f3 	mov	x19, x8
   81e18:	f90017e0 	str	x0, [sp, #40]
   81e1c:	b90027e1 	str	w1, [sp, #36]
   81e20:	b90023e2 	str	w2, [sp, #32]
   81e24:	b94027e0 	ldr	w0, [sp, #36]
   81e28:	7100001f 	cmp	w0, #0x0
   81e2c:	540000c1 	b.ne	81e44 <_ZN6String9ParseLongEl22StringConversionFormati+0x3c>  // b.any
   81e30:	f94017e0 	ldr	x0, [sp, #40]
   81e34:	aa1303e8 	mov	x8, x19
   81e38:	b94023e1 	ldr	w1, [sp, #32]
   81e3c:	97ffff84 	bl	81c4c <_Z15ParseLongBinarymi>
   81e40:	1400005d 	b	81fb4 <_ZN6String9ParseLongEl22StringConversionFormati+0x1ac>
   81e44:	b94027e0 	ldr	w0, [sp, #36]
   81e48:	7100081f 	cmp	w0, #0x2
   81e4c:	540000c1 	b.ne	81e64 <_ZN6String9ParseLongEl22StringConversionFormati+0x5c>  // b.any
   81e50:	f94017e0 	ldr	x0, [sp, #40]
   81e54:	aa1303e8 	mov	x8, x19
   81e58:	b94023e1 	ldr	w1, [sp, #32]
   81e5c:	97ffffa9 	bl	81d00 <_Z12ParseLongHexmi>
   81e60:	14000055 	b	81fb4 <_ZN6String9ParseLongEl22StringConversionFormati+0x1ac>
   81e64:	b9005fff 	str	wzr, [sp, #92]
   81e68:	f94017e0 	ldr	x0, [sp, #40]
   81e6c:	d37ffc00 	lsr	x0, x0, #63
   81e70:	39013fe0 	strb	w0, [sp, #79]
   81e74:	39413fe0 	ldrb	w0, [sp, #79]
   81e78:	7100001f 	cmp	w0, #0x0
   81e7c:	540000e0 	b.eq	81e98 <_ZN6String9ParseLongEl22StringConversionFormati+0x90>  // b.none
   81e80:	b9405fe0 	ldr	w0, [sp, #92]
   81e84:	11000400 	add	w0, w0, #0x1
   81e88:	b9005fe0 	str	w0, [sp, #92]
   81e8c:	f94017e0 	ldr	x0, [sp, #40]
   81e90:	cb0003e0 	neg	x0, x0
   81e94:	f90017e0 	str	x0, [sp, #40]
   81e98:	f94017e0 	ldr	x0, [sp, #40]
   81e9c:	b9004be0 	str	w0, [sp, #72]
   81ea0:	b9405fe0 	ldr	w0, [sp, #92]
   81ea4:	11000400 	add	w0, w0, #0x1
   81ea8:	b9005fe0 	str	w0, [sp, #92]
   81eac:	f94017e0 	ldr	x0, [sp, #40]
   81eb0:	b203e7e1 	mov	x1, #0x6666666666666666    	// #7378697629483820646
   81eb4:	f28ccce1 	movk	x1, #0x6667
   81eb8:	9b417c01 	smulh	x1, x0, x1
   81ebc:	9342fc21 	asr	x1, x1, #2
   81ec0:	937ffc00 	asr	x0, x0, #63
   81ec4:	cb000020 	sub	x0, x1, x0
   81ec8:	f90017e0 	str	x0, [sp, #40]
   81ecc:	f94017e0 	ldr	x0, [sp, #40]
   81ed0:	f100001f 	cmp	x0, #0x0
   81ed4:	5400004d 	b.le	81edc <_ZN6String9ParseLongEl22StringConversionFormati+0xd4>
   81ed8:	17fffff2 	b	81ea0 <_ZN6String9ParseLongEl22StringConversionFormati+0x98>
   81edc:	9100e3e0 	add	x0, sp, #0x38
   81ee0:	b9405fe1 	ldr	w1, [sp, #92]
   81ee4:	97fffd24 	bl	81374 <_ZN6StringC1Ei>
   81ee8:	f9401fe1 	ldr	x1, [sp, #56]
   81eec:	b9805fe0 	ldrsw	x0, [sp, #92]
   81ef0:	d1000400 	sub	x0, x0, #0x1
   81ef4:	8b000020 	add	x0, x1, x0
   81ef8:	f9002be0 	str	x0, [sp, #80]
   81efc:	b9804be0 	ldrsw	x0, [sp, #72]
   81f00:	f90017e0 	str	x0, [sp, #40]
   81f04:	f94017e1 	ldr	x1, [sp, #40]
   81f08:	b203e7e0 	mov	x0, #0x6666666666666666    	// #7378697629483820646
   81f0c:	f28ccce0 	movk	x0, #0x6667
   81f10:	9b407c20 	smulh	x0, x1, x0
   81f14:	9342fc02 	asr	x2, x0, #2
   81f18:	937ffc20 	asr	x0, x1, #63
   81f1c:	cb000042 	sub	x2, x2, x0
   81f20:	aa0203e0 	mov	x0, x2
   81f24:	d37ef400 	lsl	x0, x0, #2
   81f28:	8b020000 	add	x0, x0, x2
   81f2c:	8b000000 	add	x0, x0, x0
   81f30:	cb000022 	sub	x2, x1, x0
   81f34:	12001c40 	and	w0, w2, #0xff
   81f38:	1100c000 	add	w0, w0, #0x30
   81f3c:	12001c01 	and	w1, w0, #0xff
   81f40:	f9402be0 	ldr	x0, [sp, #80]
   81f44:	39000001 	strb	w1, [x0]
   81f48:	f9402be0 	ldr	x0, [sp, #80]
   81f4c:	d1000400 	sub	x0, x0, #0x1
   81f50:	f9002be0 	str	x0, [sp, #80]
   81f54:	f94017e0 	ldr	x0, [sp, #40]
   81f58:	b203e7e1 	mov	x1, #0x6666666666666666    	// #7378697629483820646
   81f5c:	f28ccce1 	movk	x1, #0x6667
   81f60:	9b417c01 	smulh	x1, x0, x1
   81f64:	9342fc21 	asr	x1, x1, #2
   81f68:	937ffc00 	asr	x0, x0, #63
   81f6c:	cb000020 	sub	x0, x1, x0
   81f70:	f90017e0 	str	x0, [sp, #40]
   81f74:	f94017e0 	ldr	x0, [sp, #40]
   81f78:	f100001f 	cmp	x0, #0x0
   81f7c:	5400004d 	b.le	81f84 <_ZN6String9ParseLongEl22StringConversionFormati+0x17c>
   81f80:	17ffffe1 	b	81f04 <_ZN6String9ParseLongEl22StringConversionFormati+0xfc>
   81f84:	39413fe0 	ldrb	w0, [sp, #79]
   81f88:	7100001f 	cmp	w0, #0x0
   81f8c:	54000080 	b.eq	81f9c <_ZN6String9ParseLongEl22StringConversionFormati+0x194>  // b.none
   81f90:	f9402be0 	ldr	x0, [sp, #80]
   81f94:	528005a1 	mov	w1, #0x2d                  	// #45
   81f98:	39000001 	strb	w1, [x0]
   81f9c:	9100e3e0 	add	x0, sp, #0x38
   81fa0:	aa0003e1 	mov	x1, x0
   81fa4:	aa1303e0 	mov	x0, x19
   81fa8:	97fffd0a 	bl	813d0 <_ZN6StringC1ERKS_>
   81fac:	9100e3e0 	add	x0, sp, #0x38
   81fb0:	97fffce4 	bl	81340 <_ZN6StringD1Ev>
   81fb4:	aa1303e0 	mov	x0, x19
   81fb8:	f9400bf3 	ldr	x19, [sp, #16]
   81fbc:	a8c67bfd 	ldp	x29, x30, [sp], #96
   81fc0:	d65f03c0 	ret

0000000000081fc4 <_ZN6String9ParseLongEm22StringConversionFormati>:
   81fc4:	a9ba7bfd 	stp	x29, x30, [sp, #-96]!
   81fc8:	910003fd 	mov	x29, sp
   81fcc:	f9000bf3 	str	x19, [sp, #16]
   81fd0:	aa0803f3 	mov	x19, x8
   81fd4:	f90017e0 	str	x0, [sp, #40]
   81fd8:	b90027e1 	str	w1, [sp, #36]
   81fdc:	b90023e2 	str	w2, [sp, #32]
   81fe0:	b94027e0 	ldr	w0, [sp, #36]
   81fe4:	7100001f 	cmp	w0, #0x0
   81fe8:	540000c1 	b.ne	82000 <_ZN6String9ParseLongEm22StringConversionFormati+0x3c>  // b.any
   81fec:	aa1303e8 	mov	x8, x19
   81ff0:	b94023e1 	ldr	w1, [sp, #32]
   81ff4:	f94017e0 	ldr	x0, [sp, #40]
   81ff8:	97ffff15 	bl	81c4c <_Z15ParseLongBinarymi>
   81ffc:	14000045 	b	82110 <_ZN6String9ParseLongEm22StringConversionFormati+0x14c>
   82000:	b94027e0 	ldr	w0, [sp, #36]
   82004:	7100081f 	cmp	w0, #0x2
   82008:	540000c1 	b.ne	82020 <_ZN6String9ParseLongEm22StringConversionFormati+0x5c>  // b.any
   8200c:	aa1303e8 	mov	x8, x19
   82010:	b94023e1 	ldr	w1, [sp, #32]
   82014:	f94017e0 	ldr	x0, [sp, #40]
   82018:	97ffff3a 	bl	81d00 <_Z12ParseLongHexmi>
   8201c:	1400003d 	b	82110 <_ZN6String9ParseLongEm22StringConversionFormati+0x14c>
   82020:	b9005fff 	str	wzr, [sp, #92]
   82024:	f94017e0 	ldr	x0, [sp, #40]
   82028:	f90027e0 	str	x0, [sp, #72]
   8202c:	b9405fe0 	ldr	w0, [sp, #92]
   82030:	11000400 	add	w0, w0, #0x1
   82034:	b9005fe0 	str	w0, [sp, #92]
   82038:	f94017e1 	ldr	x1, [sp, #40]
   8203c:	b202e7e0 	mov	x0, #0xcccccccccccccccc    	// #-3689348814741910324
   82040:	f29999a0 	movk	x0, #0xcccd
   82044:	9bc07c20 	umulh	x0, x1, x0
   82048:	d343fc00 	lsr	x0, x0, #3
   8204c:	f90017e0 	str	x0, [sp, #40]
   82050:	f94017e0 	ldr	x0, [sp, #40]
   82054:	f100001f 	cmp	x0, #0x0
   82058:	54000040 	b.eq	82060 <_ZN6String9ParseLongEm22StringConversionFormati+0x9c>  // b.none
   8205c:	17fffff4 	b	8202c <_ZN6String9ParseLongEm22StringConversionFormati+0x68>
   82060:	9100e3e0 	add	x0, sp, #0x38
   82064:	b9405fe1 	ldr	w1, [sp, #92]
   82068:	97fffcc3 	bl	81374 <_ZN6StringC1Ei>
   8206c:	f9401fe1 	ldr	x1, [sp, #56]
   82070:	b9805fe0 	ldrsw	x0, [sp, #92]
   82074:	d1000400 	sub	x0, x0, #0x1
   82078:	8b000020 	add	x0, x1, x0
   8207c:	f9002be0 	str	x0, [sp, #80]
   82080:	f94027e0 	ldr	x0, [sp, #72]
   82084:	f90017e0 	str	x0, [sp, #40]
   82088:	f94017e2 	ldr	x2, [sp, #40]
   8208c:	b202e7e0 	mov	x0, #0xcccccccccccccccc    	// #-3689348814741910324
   82090:	f29999a0 	movk	x0, #0xcccd
   82094:	9bc07c40 	umulh	x0, x2, x0
   82098:	d343fc01 	lsr	x1, x0, #3
   8209c:	aa0103e0 	mov	x0, x1
   820a0:	d37ef400 	lsl	x0, x0, #2
   820a4:	8b010000 	add	x0, x0, x1
   820a8:	8b000000 	add	x0, x0, x0
   820ac:	cb000041 	sub	x1, x2, x0
   820b0:	12001c20 	and	w0, w1, #0xff
   820b4:	1100c000 	add	w0, w0, #0x30
   820b8:	12001c01 	and	w1, w0, #0xff
   820bc:	f9402be0 	ldr	x0, [sp, #80]
   820c0:	39000001 	strb	w1, [x0]
   820c4:	f9402be0 	ldr	x0, [sp, #80]
   820c8:	d1000400 	sub	x0, x0, #0x1
   820cc:	f9002be0 	str	x0, [sp, #80]
   820d0:	f94017e1 	ldr	x1, [sp, #40]
   820d4:	b202e7e0 	mov	x0, #0xcccccccccccccccc    	// #-3689348814741910324
   820d8:	f29999a0 	movk	x0, #0xcccd
   820dc:	9bc07c20 	umulh	x0, x1, x0
   820e0:	d343fc00 	lsr	x0, x0, #3
   820e4:	f90017e0 	str	x0, [sp, #40]
   820e8:	f94017e0 	ldr	x0, [sp, #40]
   820ec:	f100001f 	cmp	x0, #0x0
   820f0:	54000040 	b.eq	820f8 <_ZN6String9ParseLongEm22StringConversionFormati+0x134>  // b.none
   820f4:	17ffffe5 	b	82088 <_ZN6String9ParseLongEm22StringConversionFormati+0xc4>
   820f8:	9100e3e0 	add	x0, sp, #0x38
   820fc:	aa0003e1 	mov	x1, x0
   82100:	aa1303e0 	mov	x0, x19
   82104:	97fffcb3 	bl	813d0 <_ZN6StringC1ERKS_>
   82108:	9100e3e0 	add	x0, sp, #0x38
   8210c:	97fffc8d 	bl	81340 <_ZN6StringD1Ev>
   82110:	aa1303e0 	mov	x0, x19
   82114:	f9400bf3 	ldr	x19, [sp, #16]
   82118:	a8c67bfd 	ldp	x29, x30, [sp], #96
   8211c:	d65f03c0 	ret

0000000000082120 <_Z41__static_initialization_and_destruction_0ii>:
   82120:	a9be7bfd 	stp	x29, x30, [sp, #-32]!
   82124:	910003fd 	mov	x29, sp
   82128:	b9001fe0 	str	w0, [sp, #28]
   8212c:	b9001be1 	str	w1, [sp, #24]
   82130:	b9401fe0 	ldr	w0, [sp, #28]
   82134:	7100041f 	cmp	w0, #0x1
   82138:	54000101 	b.ne	82158 <_Z41__static_initialization_and_destruction_0ii+0x38>  // b.any
   8213c:	b9401be1 	ldr	w1, [sp, #24]
   82140:	529fffe0 	mov	w0, #0xffff                	// #65535
   82144:	6b00003f 	cmp	w1, w0
   82148:	54000081 	b.ne	82158 <_Z41__static_initialization_and_destruction_0ii+0x38>  // b.any
   8214c:	90000060 	adrp	x0, 8e000 <_ZL4mbox+0xe80>
   82150:	9116e000 	add	x0, x0, #0x5b8
   82154:	940002f0 	bl	82d14 <_ZN11FramebufferC1Ev>
   82158:	d503201f 	nop
   8215c:	a8c27bfd 	ldp	x29, x30, [sp], #32
   82160:	d65f03c0 	ret

0000000000082164 <_GLOBAL__sub_I__Z13measureStringPc>:
   82164:	a9bf7bfd 	stp	x29, x30, [sp, #-16]!
   82168:	910003fd 	mov	x29, sp
   8216c:	529fffe1 	mov	w1, #0xffff                	// #65535
   82170:	52800020 	mov	w0, #0x1                   	// #1
   82174:	97ffffeb 	bl	82120 <_Z41__static_initialization_and_destruction_0ii>
   82178:	a8c17bfd 	ldp	x29, x30, [sp], #16
   8217c:	d65f03c0 	ret

0000000000082180 <_ZN8TimeSpanC1Em>:
   82180:	d10043ff 	sub	sp, sp, #0x10
   82184:	f90007e0 	str	x0, [sp, #8]
   82188:	f90003e1 	str	x1, [sp]
   8218c:	f94007e0 	ldr	x0, [sp, #8]
   82190:	f94003e1 	ldr	x1, [sp]
   82194:	f9000001 	str	x1, [x0]
   82198:	d503201f 	nop
   8219c:	910043ff 	add	sp, sp, #0x10
   821a0:	d65f03c0 	ret

00000000000821a4 <_ZN8TimeSpanC1Em8TimeUnit>:
   821a4:	a9bc7bfd 	stp	x29, x30, [sp, #-64]!
   821a8:	910003fd 	mov	x29, sp
   821ac:	f90017e0 	str	x0, [sp, #40]
   821b0:	f90013e1 	str	x1, [sp, #32]
   821b4:	b9001fe2 	str	w2, [sp, #28]
   821b8:	94000526 	bl	83650 <_ZN11SystemTimer23GetSystemTimerFrequencyEv>
   821bc:	b9003fe0 	str	w0, [sp, #60]
   821c0:	b9401fe0 	ldr	w0, [sp, #28]
   821c4:	71000c1f 	cmp	w0, #0x3
   821c8:	54000640 	b.eq	82290 <_ZN8TimeSpanC1Em8TimeUnit+0xec>  // b.none
   821cc:	71000c1f 	cmp	w0, #0x3
   821d0:	540006cc 	b.gt	822a8 <_ZN8TimeSpanC1Em8TimeUnit+0x104>
   821d4:	7100081f 	cmp	w0, #0x2
   821d8:	54000420 	b.eq	8225c <_ZN8TimeSpanC1Em8TimeUnit+0xb8>  // b.none
   821dc:	7100081f 	cmp	w0, #0x2
   821e0:	5400064c 	b.gt	822a8 <_ZN8TimeSpanC1Em8TimeUnit+0x104>
   821e4:	7100001f 	cmp	w0, #0x0
   821e8:	54000080 	b.eq	821f8 <_ZN8TimeSpanC1Em8TimeUnit+0x54>  // b.none
   821ec:	7100041f 	cmp	w0, #0x1
   821f0:	540001e0 	b.eq	8222c <_ZN8TimeSpanC1Em8TimeUnit+0x88>  // b.none
   821f4:	1400002d 	b	822a8 <_ZN8TimeSpanC1Em8TimeUnit+0x104>
   821f8:	b9403fe1 	ldr	w1, [sp, #60]
   821fc:	f94013e0 	ldr	x0, [sp, #32]
   82200:	9b007c20 	mul	x0, x1, x0
   82204:	d349fc01 	lsr	x1, x0, #9
   82208:	d28b4a60 	mov	x0, #0x5a53                	// #23123
   8220c:	f2b41360 	movk	x0, #0xa09b, lsl #16
   82210:	f2d705e0 	movk	x0, #0xb82f, lsl #32
   82214:	f2e00880 	movk	x0, #0x44, lsl #48
   82218:	9bc07c20 	umulh	x0, x1, x0
   8221c:	d34bfc01 	lsr	x1, x0, #11
   82220:	f94017e0 	ldr	x0, [sp, #40]
   82224:	f9000001 	str	x1, [x0]
   82228:	14000020 	b	822a8 <_ZN8TimeSpanC1Em8TimeUnit+0x104>
   8222c:	b9403fe1 	ldr	w1, [sp, #60]
   82230:	f94013e0 	ldr	x0, [sp, #32]
   82234:	9b007c21 	mul	x1, x1, x0
   82238:	d2869b60 	mov	x0, #0x34db                	// #13531
   8223c:	f2baf6c0 	movk	x0, #0xd7b6, lsl #16
   82240:	f2dbd040 	movk	x0, #0xde82, lsl #32
   82244:	f2e86360 	movk	x0, #0x431b, lsl #48
   82248:	9bc07c20 	umulh	x0, x1, x0
   8224c:	d352fc01 	lsr	x1, x0, #18
   82250:	f94017e0 	ldr	x0, [sp, #40]
   82254:	f9000001 	str	x1, [x0]
   82258:	14000014 	b	822a8 <_ZN8TimeSpanC1Em8TimeUnit+0x104>
   8225c:	b9403fe1 	ldr	w1, [sp, #60]
   82260:	f94013e0 	ldr	x0, [sp, #32]
   82264:	9b007c20 	mul	x0, x1, x0
   82268:	d343fc01 	lsr	x1, x0, #3
   8226c:	d29ef9e0 	mov	x0, #0xf7cf                	// #63439
   82270:	f2bc6a60 	movk	x0, #0xe353, lsl #16
   82274:	f2d374a0 	movk	x0, #0x9ba5, lsl #32
   82278:	f2e41880 	movk	x0, #0x20c4, lsl #48
   8227c:	9bc07c20 	umulh	x0, x1, x0
   82280:	d344fc01 	lsr	x1, x0, #4
   82284:	f94017e0 	ldr	x0, [sp, #40]
   82288:	f9000001 	str	x1, [x0]
   8228c:	14000007 	b	822a8 <_ZN8TimeSpanC1Em8TimeUnit+0x104>
   82290:	b9403fe1 	ldr	w1, [sp, #60]
   82294:	f94013e0 	ldr	x0, [sp, #32]
   82298:	9b007c21 	mul	x1, x1, x0
   8229c:	f94017e0 	ldr	x0, [sp, #40]
   822a0:	f9000001 	str	x1, [x0]
   822a4:	d503201f 	nop
   822a8:	d503201f 	nop
   822ac:	a8c47bfd 	ldp	x29, x30, [sp], #64
   822b0:	d65f03c0 	ret

00000000000822b4 <_ZN8TimeSpan14GetCurrentTimeEv>:
   822b4:	a9be7bfd 	stp	x29, x30, [sp, #-32]!
   822b8:	910003fd 	mov	x29, sp
   822bc:	940004eb 	bl	83668 <_ZN11SystemTimer13GetSystemTimeEv>
   822c0:	aa0003e1 	mov	x1, x0
   822c4:	910063e0 	add	x0, sp, #0x18
   822c8:	97ffffae 	bl	82180 <_ZN8TimeSpanC1Em>
   822cc:	f9400fe0 	ldr	x0, [sp, #24]
   822d0:	a8c27bfd 	ldp	x29, x30, [sp], #32
   822d4:	d65f03c0 	ret

00000000000822d8 <_ZN8TimeSpan8SpinWaitEv>:
   822d8:	a9bd7bfd 	stp	x29, x30, [sp, #-48]!
   822dc:	910003fd 	mov	x29, sp
   822e0:	f9000fe0 	str	x0, [sp, #24]
   822e4:	940004e1 	bl	83668 <_ZN11SystemTimer13GetSystemTimeEv>
   822e8:	f90017e0 	str	x0, [sp, #40]
   822ec:	f9400fe0 	ldr	x0, [sp, #24]
   822f0:	f9400000 	ldr	x0, [x0]
   822f4:	f94017e1 	ldr	x1, [sp, #40]
   822f8:	8b000020 	add	x0, x1, x0
   822fc:	f90013e0 	str	x0, [sp, #32]
   82300:	f94017e1 	ldr	x1, [sp, #40]
   82304:	f94013e0 	ldr	x0, [sp, #32]
   82308:	eb00003f 	cmp	x1, x0
   8230c:	54000082 	b.cs	8231c <_ZN8TimeSpan8SpinWaitEv+0x44>  // b.hs, b.nlast
   82310:	940004d6 	bl	83668 <_ZN11SystemTimer13GetSystemTimeEv>
   82314:	f90017e0 	str	x0, [sp, #40]
   82318:	17fffffa 	b	82300 <_ZN8TimeSpan8SpinWaitEv+0x28>
   8231c:	d503201f 	nop
   82320:	a8c37bfd 	ldp	x29, x30, [sp], #48
   82324:	d65f03c0 	ret

0000000000082328 <_ZN8PSF2FontC1EPc>:
   82328:	a9bc7bfd 	stp	x29, x30, [sp, #-64]!
   8232c:	910003fd 	mov	x29, sp
   82330:	f9000fe0 	str	x0, [sp, #24]
   82334:	f9000be1 	str	x1, [sp, #16]
   82338:	f9400be0 	ldr	x0, [sp, #16]
   8233c:	f9001be0 	str	x0, [sp, #48]
   82340:	f9401be0 	ldr	x0, [sp, #48]
   82344:	b9400000 	ldr	w0, [x0]
   82348:	97fffb99 	bl	811ac <_Z5magicj>
   8234c:	2a0003e1 	mov	w1, w0
   82350:	f9401be0 	ldr	x0, [sp, #48]
   82354:	b9000001 	str	w1, [x0]
   82358:	f9400fe0 	ldr	x0, [sp, #24]
   8235c:	f9401be1 	ldr	x1, [sp, #48]
   82360:	f9000001 	str	x1, [x0]
   82364:	b9003fff 	str	wzr, [sp, #60]
   82368:	b9403fe0 	ldr	w0, [sp, #60]
   8236c:	7101fc1f 	cmp	w0, #0x7f
   82370:	5400044c 	b.gt	823f8 <_ZN8PSF2FontC1EPc+0xd0>
   82374:	f9401be0 	ldr	x0, [sp, #48]
   82378:	b9401000 	ldr	w0, [x0, #16]
   8237c:	2a0003e1 	mov	w1, w0
   82380:	b9403fe0 	ldr	w0, [sp, #60]
   82384:	6b01001f 	cmp	w0, w1
   82388:	5400038a 	b.ge	823f8 <_ZN8PSF2FontC1EPc+0xd0>  // b.tcont
   8238c:	f9400fe1 	ldr	x1, [sp, #24]
   82390:	b9803fe0 	ldrsw	x0, [sp, #60]
   82394:	d37df000 	lsl	x0, x0, #3
   82398:	8b000020 	add	x0, x1, x0
   8239c:	f900041f 	str	xzr, [x0, #8]
   823a0:	f9401be0 	ldr	x0, [sp, #48]
   823a4:	b9400800 	ldr	w0, [x0, #8]
   823a8:	2a0003e0 	mov	w0, w0
   823ac:	f9401be1 	ldr	x1, [sp, #48]
   823b0:	8b000020 	add	x0, x1, x0
   823b4:	f90017e0 	str	x0, [sp, #40]
   823b8:	f9401be0 	ldr	x0, [sp, #48]
   823bc:	b9401401 	ldr	w1, [x0, #20]
   823c0:	b9403fe0 	ldr	w0, [sp, #60]
   823c4:	1b007c20 	mul	w0, w1, w0
   823c8:	2a0003e0 	mov	w0, w0
   823cc:	f94017e1 	ldr	x1, [sp, #40]
   823d0:	8b000021 	add	x1, x1, x0
   823d4:	f9400fe2 	ldr	x2, [sp, #24]
   823d8:	b9803fe0 	ldrsw	x0, [sp, #60]
   823dc:	d37df000 	lsl	x0, x0, #3
   823e0:	8b000040 	add	x0, x2, x0
   823e4:	f9000401 	str	x1, [x0, #8]
   823e8:	b9403fe0 	ldr	w0, [sp, #60]
   823ec:	11000400 	add	w0, w0, #0x1
   823f0:	b9003fe0 	str	w0, [sp, #60]
   823f4:	17ffffdd 	b	82368 <_ZN8PSF2FontC1EPc+0x40>
   823f8:	d503201f 	nop
   823fc:	a8c47bfd 	ldp	x29, x30, [sp], #64
   82400:	d65f03c0 	ret

0000000000082404 <_ZN8PSF2FontC1Ev>:
   82404:	d10043ff 	sub	sp, sp, #0x10
   82408:	f90007e0 	str	x0, [sp, #8]
   8240c:	d503201f 	nop
   82410:	910043ff 	add	sp, sp, #0x10
   82414:	d65f03c0 	ret

0000000000082418 <_ZN8PSF2Font17HasCharacterGlyphEc>:
   82418:	d10043ff 	sub	sp, sp, #0x10
   8241c:	f90007e0 	str	x0, [sp, #8]
   82420:	39001fe1 	strb	w1, [sp, #7]
   82424:	39401fe1 	ldrb	w1, [sp, #7]
   82428:	f94007e0 	ldr	x0, [sp, #8]
   8242c:	f9400000 	ldr	x0, [x0]
   82430:	b9401000 	ldr	w0, [x0, #16]
   82434:	6b00003f 	cmp	w1, w0
   82438:	54000162 	b.cs	82464 <_ZN8PSF2Font17HasCharacterGlyphEc+0x4c>  // b.hs, b.nlast
   8243c:	39401fe0 	ldrb	w0, [sp, #7]
   82440:	f94007e1 	ldr	x1, [sp, #8]
   82444:	93407c00 	sxtw	x0, w0
   82448:	d37df000 	lsl	x0, x0, #3
   8244c:	8b000020 	add	x0, x1, x0
   82450:	f9400400 	ldr	x0, [x0, #8]
   82454:	f100001f 	cmp	x0, #0x0
   82458:	54000060 	b.eq	82464 <_ZN8PSF2Font17HasCharacterGlyphEc+0x4c>  // b.none
   8245c:	52800020 	mov	w0, #0x1                   	// #1
   82460:	14000002 	b	82468 <_ZN8PSF2Font17HasCharacterGlyphEc+0x50>
   82464:	52800000 	mov	w0, #0x0                   	// #0
   82468:	910043ff 	add	sp, sp, #0x10
   8246c:	d65f03c0 	ret

0000000000082470 <_ZN8PSF2Font8GetGlyphEc>:
   82470:	d10043ff 	sub	sp, sp, #0x10
   82474:	f90007e0 	str	x0, [sp, #8]
   82478:	39001fe1 	strb	w1, [sp, #7]
   8247c:	39401fe1 	ldrb	w1, [sp, #7]
   82480:	f94007e0 	ldr	x0, [sp, #8]
   82484:	f9400000 	ldr	x0, [x0]
   82488:	b9401000 	ldr	w0, [x0, #16]
   8248c:	6b00003f 	cmp	w1, w0
   82490:	54000063 	b.cc	8249c <_ZN8PSF2Font8GetGlyphEc+0x2c>  // b.lo, b.ul, b.last
   82494:	d2800000 	mov	x0, #0x0                   	// #0
   82498:	14000007 	b	824b4 <_ZN8PSF2Font8GetGlyphEc+0x44>
   8249c:	39401fe0 	ldrb	w0, [sp, #7]
   824a0:	f94007e1 	ldr	x1, [sp, #8]
   824a4:	93407c00 	sxtw	x0, w0
   824a8:	d37df000 	lsl	x0, x0, #3
   824ac:	8b000020 	add	x0, x1, x0
   824b0:	f9400400 	ldr	x0, [x0, #8]
   824b4:	910043ff 	add	sp, sp, #0x10
   824b8:	d65f03c0 	ret

00000000000824bc <_Z41__static_initialization_and_destruction_0ii>:
   824bc:	a9be7bfd 	stp	x29, x30, [sp, #-32]!
   824c0:	910003fd 	mov	x29, sp
   824c4:	b9001fe0 	str	w0, [sp, #28]
   824c8:	b9001be1 	str	w1, [sp, #24]
   824cc:	b9401fe0 	ldr	w0, [sp, #28]
   824d0:	7100041f 	cmp	w0, #0x1
   824d4:	54000101 	b.ne	824f4 <_Z41__static_initialization_and_destruction_0ii+0x38>  // b.any
   824d8:	b9401be1 	ldr	w1, [sp, #24]
   824dc:	529fffe0 	mov	w0, #0xffff                	// #65535
   824e0:	6b00003f 	cmp	w1, w0
   824e4:	54000081 	b.ne	824f4 <_Z41__static_initialization_and_destruction_0ii+0x38>  // b.any
   824e8:	90000060 	adrp	x0, 8e000 <_ZL4mbox+0xe80>
   824ec:	91172000 	add	x0, x0, #0x5c8
   824f0:	94000209 	bl	82d14 <_ZN11FramebufferC1Ev>
   824f4:	d503201f 	nop
   824f8:	a8c27bfd 	ldp	x29, x30, [sp], #32
   824fc:	d65f03c0 	ret

0000000000082500 <_GLOBAL__sub_I__ZN8PSF2FontC2EPc>:
   82500:	a9bf7bfd 	stp	x29, x30, [sp, #-16]!
   82504:	910003fd 	mov	x29, sp
   82508:	529fffe1 	mov	w1, #0xffff                	// #65535
   8250c:	52800020 	mov	w0, #0x1                   	// #1
   82510:	97ffffeb 	bl	824bc <_Z41__static_initialization_and_destruction_0ii>
   82514:	a8c17bfd 	ldp	x29, x30, [sp], #16
   82518:	d65f03c0 	ret

000000000008251c <_ZN5PointC1Ev>:
   8251c:	d10043ff 	sub	sp, sp, #0x10
   82520:	f90007e0 	str	x0, [sp, #8]
   82524:	f94007e0 	ldr	x0, [sp, #8]
   82528:	b900001f 	str	wzr, [x0]
   8252c:	f94007e0 	ldr	x0, [sp, #8]
   82530:	b900041f 	str	wzr, [x0, #4]
   82534:	d503201f 	nop
   82538:	910043ff 	add	sp, sp, #0x10
   8253c:	d65f03c0 	ret

0000000000082540 <_ZN5PointC1Eii>:
   82540:	d10043ff 	sub	sp, sp, #0x10
   82544:	f90007e0 	str	x0, [sp, #8]
   82548:	b90007e1 	str	w1, [sp, #4]
   8254c:	b90003e2 	str	w2, [sp]
   82550:	f94007e0 	ldr	x0, [sp, #8]
   82554:	b94007e1 	ldr	w1, [sp, #4]
   82558:	b9000001 	str	w1, [x0]
   8255c:	f94007e0 	ldr	x0, [sp, #8]
   82560:	b94003e1 	ldr	w1, [sp]
   82564:	b9000401 	str	w1, [x0, #4]
   82568:	d503201f 	nop
   8256c:	910043ff 	add	sp, sp, #0x10
   82570:	d65f03c0 	ret

0000000000082574 <_ZN4SizeC1Ev>:
   82574:	d10043ff 	sub	sp, sp, #0x10
   82578:	f90007e0 	str	x0, [sp, #8]
   8257c:	f94007e0 	ldr	x0, [sp, #8]
   82580:	b900001f 	str	wzr, [x0]
   82584:	f94007e0 	ldr	x0, [sp, #8]
   82588:	b900041f 	str	wzr, [x0, #4]
   8258c:	d503201f 	nop
   82590:	910043ff 	add	sp, sp, #0x10
   82594:	d65f03c0 	ret

0000000000082598 <_ZN4SizeC1Eii>:
   82598:	d10043ff 	sub	sp, sp, #0x10
   8259c:	f90007e0 	str	x0, [sp, #8]
   825a0:	b90007e1 	str	w1, [sp, #4]
   825a4:	b90003e2 	str	w2, [sp]
   825a8:	f94007e0 	ldr	x0, [sp, #8]
   825ac:	b94007e1 	ldr	w1, [sp, #4]
   825b0:	b9000001 	str	w1, [x0]
   825b4:	f94007e0 	ldr	x0, [sp, #8]
   825b8:	b94003e1 	ldr	w1, [sp]
   825bc:	b9000401 	str	w1, [x0, #4]
   825c0:	d503201f 	nop
   825c4:	910043ff 	add	sp, sp, #0x10
   825c8:	d65f03c0 	ret

00000000000825cc <_ZN9RectangleC1Ev>:
   825cc:	d10043ff 	sub	sp, sp, #0x10
   825d0:	f90007e0 	str	x0, [sp, #8]
   825d4:	f94007e0 	ldr	x0, [sp, #8]
   825d8:	b900001f 	str	wzr, [x0]
   825dc:	f94007e0 	ldr	x0, [sp, #8]
   825e0:	b900041f 	str	wzr, [x0, #4]
   825e4:	f94007e0 	ldr	x0, [sp, #8]
   825e8:	b900081f 	str	wzr, [x0, #8]
   825ec:	f94007e0 	ldr	x0, [sp, #8]
   825f0:	b9000c1f 	str	wzr, [x0, #12]
   825f4:	d503201f 	nop
   825f8:	910043ff 	add	sp, sp, #0x10
   825fc:	d65f03c0 	ret

0000000000082600 <_ZN9RectangleC1Eiiii>:
   82600:	d10083ff 	sub	sp, sp, #0x20
   82604:	f9000fe0 	str	x0, [sp, #24]
   82608:	b90017e1 	str	w1, [sp, #20]
   8260c:	b90013e2 	str	w2, [sp, #16]
   82610:	b9000fe3 	str	w3, [sp, #12]
   82614:	b9000be4 	str	w4, [sp, #8]
   82618:	f9400fe0 	ldr	x0, [sp, #24]
   8261c:	b94017e1 	ldr	w1, [sp, #20]
   82620:	b9000001 	str	w1, [x0]
   82624:	f9400fe0 	ldr	x0, [sp, #24]
   82628:	b94013e1 	ldr	w1, [sp, #16]
   8262c:	b9000401 	str	w1, [x0, #4]
   82630:	f9400fe0 	ldr	x0, [sp, #24]
   82634:	b9400fe1 	ldr	w1, [sp, #12]
   82638:	b9000801 	str	w1, [x0, #8]
   8263c:	f9400fe0 	ldr	x0, [sp, #24]
   82640:	b9400be1 	ldr	w1, [sp, #8]
   82644:	b9000c01 	str	w1, [x0, #12]
   82648:	d503201f 	nop
   8264c:	910083ff 	add	sp, sp, #0x20
   82650:	d65f03c0 	ret

0000000000082654 <_ZN5ColorC1Eccc>:
   82654:	d10043ff 	sub	sp, sp, #0x10
   82658:	f90007e0 	str	x0, [sp, #8]
   8265c:	39001fe1 	strb	w1, [sp, #7]
   82660:	39001be2 	strb	w2, [sp, #6]
   82664:	390017e3 	strb	w3, [sp, #5]
   82668:	39401fe1 	ldrb	w1, [sp, #7]
   8266c:	39401be0 	ldrb	w0, [sp, #6]
   82670:	53185c00 	lsl	w0, w0, #8
   82674:	2a000021 	orr	w1, w1, w0
   82678:	394017e0 	ldrb	w0, [sp, #5]
   8267c:	53103c00 	lsl	w0, w0, #16
   82680:	2a000021 	orr	w1, w1, w0
   82684:	f94007e0 	ldr	x0, [sp, #8]
   82688:	b9000001 	str	w1, [x0]
   8268c:	d503201f 	nop
   82690:	910043ff 	add	sp, sp, #0x10
   82694:	d65f03c0 	ret

0000000000082698 <_ZN5ColorC1Ecccc>:
   82698:	d10043ff 	sub	sp, sp, #0x10
   8269c:	f90007e0 	str	x0, [sp, #8]
   826a0:	39001fe1 	strb	w1, [sp, #7]
   826a4:	39001be2 	strb	w2, [sp, #6]
   826a8:	390017e3 	strb	w3, [sp, #5]
   826ac:	390013e4 	strb	w4, [sp, #4]
   826b0:	394013e0 	ldrb	w0, [sp, #4]
   826b4:	53081c01 	lsl	w1, w0, #24
   826b8:	39401fe0 	ldrb	w0, [sp, #7]
   826bc:	2a000021 	orr	w1, w1, w0
   826c0:	39401be0 	ldrb	w0, [sp, #6]
   826c4:	53185c00 	lsl	w0, w0, #8
   826c8:	2a000021 	orr	w1, w1, w0
   826cc:	394017e0 	ldrb	w0, [sp, #5]
   826d0:	53103c00 	lsl	w0, w0, #16
   826d4:	2a000021 	orr	w1, w1, w0
   826d8:	f94007e0 	ldr	x0, [sp, #8]
   826dc:	b9000001 	str	w1, [x0]
   826e0:	d503201f 	nop
   826e4:	910043ff 	add	sp, sp, #0x10
   826e8:	d65f03c0 	ret

00000000000826ec <_ZN5Color4getREv>:
   826ec:	d10043ff 	sub	sp, sp, #0x10
   826f0:	f90007e0 	str	x0, [sp, #8]
   826f4:	f94007e0 	ldr	x0, [sp, #8]
   826f8:	b9400000 	ldr	w0, [x0]
   826fc:	53087c00 	lsr	w0, w0, #8
   82700:	12001c00 	and	w0, w0, #0xff
   82704:	910043ff 	add	sp, sp, #0x10
   82708:	d65f03c0 	ret

000000000008270c <_ZN5Color4setREc>:
   8270c:	d10043ff 	sub	sp, sp, #0x10
   82710:	f90007e0 	str	x0, [sp, #8]
   82714:	39001fe1 	strb	w1, [sp, #7]
   82718:	f94007e0 	ldr	x0, [sp, #8]
   8271c:	b9400000 	ldr	w0, [x0]
   82720:	12105c01 	and	w1, w0, #0xffff00ff
   82724:	f94007e0 	ldr	x0, [sp, #8]
   82728:	b9000001 	str	w1, [x0]
   8272c:	f94007e0 	ldr	x0, [sp, #8]
   82730:	b9400001 	ldr	w1, [x0]
   82734:	39401fe0 	ldrb	w0, [sp, #7]
   82738:	53185c00 	lsl	w0, w0, #8
   8273c:	2a000021 	orr	w1, w1, w0
   82740:	f94007e0 	ldr	x0, [sp, #8]
   82744:	b9000001 	str	w1, [x0]
   82748:	d503201f 	nop
   8274c:	910043ff 	add	sp, sp, #0x10
   82750:	d65f03c0 	ret

0000000000082754 <_ZN5Color4getGEv>:
   82754:	d10043ff 	sub	sp, sp, #0x10
   82758:	f90007e0 	str	x0, [sp, #8]
   8275c:	f94007e0 	ldr	x0, [sp, #8]
   82760:	b9400000 	ldr	w0, [x0]
   82764:	53107c00 	lsr	w0, w0, #16
   82768:	12001c00 	and	w0, w0, #0xff
   8276c:	910043ff 	add	sp, sp, #0x10
   82770:	d65f03c0 	ret

0000000000082774 <_ZN5Color4setGEc>:
   82774:	d10043ff 	sub	sp, sp, #0x10
   82778:	f90007e0 	str	x0, [sp, #8]
   8277c:	39001fe1 	strb	w1, [sp, #7]
   82780:	f94007e0 	ldr	x0, [sp, #8]
   82784:	b9400000 	ldr	w0, [x0]
   82788:	12085c01 	and	w1, w0, #0xff00ffff
   8278c:	f94007e0 	ldr	x0, [sp, #8]
   82790:	b9000001 	str	w1, [x0]
   82794:	f94007e0 	ldr	x0, [sp, #8]
   82798:	b9400001 	ldr	w1, [x0]
   8279c:	39401fe0 	ldrb	w0, [sp, #7]
   827a0:	53103c00 	lsl	w0, w0, #16
   827a4:	2a000021 	orr	w1, w1, w0
   827a8:	f94007e0 	ldr	x0, [sp, #8]
   827ac:	b9000001 	str	w1, [x0]
   827b0:	d503201f 	nop
   827b4:	910043ff 	add	sp, sp, #0x10
   827b8:	d65f03c0 	ret

00000000000827bc <_ZN5Color4getBEv>:
   827bc:	d10043ff 	sub	sp, sp, #0x10
   827c0:	f90007e0 	str	x0, [sp, #8]
   827c4:	f94007e0 	ldr	x0, [sp, #8]
   827c8:	b9400000 	ldr	w0, [x0]
   827cc:	53187c00 	lsr	w0, w0, #24
   827d0:	12001c00 	and	w0, w0, #0xff
   827d4:	910043ff 	add	sp, sp, #0x10
   827d8:	d65f03c0 	ret

00000000000827dc <_ZN5Color4setBEc>:
   827dc:	d10043ff 	sub	sp, sp, #0x10
   827e0:	f90007e0 	str	x0, [sp, #8]
   827e4:	39001fe1 	strb	w1, [sp, #7]
   827e8:	f94007e0 	ldr	x0, [sp, #8]
   827ec:	b9400000 	ldr	w0, [x0]
   827f0:	12005c01 	and	w1, w0, #0xffffff
   827f4:	f94007e0 	ldr	x0, [sp, #8]
   827f8:	b9000001 	str	w1, [x0]
   827fc:	f94007e0 	ldr	x0, [sp, #8]
   82800:	b9400001 	ldr	w1, [x0]
   82804:	39401fe0 	ldrb	w0, [sp, #7]
   82808:	53081c00 	lsl	w0, w0, #24
   8280c:	2a000021 	orr	w1, w1, w0
   82810:	f94007e0 	ldr	x0, [sp, #8]
   82814:	b9000001 	str	w1, [x0]
   82818:	d503201f 	nop
   8281c:	910043ff 	add	sp, sp, #0x10
   82820:	d65f03c0 	ret

0000000000082824 <_ZN5Color4getAEv>:
   82824:	d10043ff 	sub	sp, sp, #0x10
   82828:	f90007e0 	str	x0, [sp, #8]
   8282c:	f94007e0 	ldr	x0, [sp, #8]
   82830:	b9400000 	ldr	w0, [x0]
   82834:	12001c00 	and	w0, w0, #0xff
   82838:	910043ff 	add	sp, sp, #0x10
   8283c:	d65f03c0 	ret

0000000000082840 <_ZN5Color4setAEc>:
   82840:	d10043ff 	sub	sp, sp, #0x10
   82844:	f90007e0 	str	x0, [sp, #8]
   82848:	39001fe1 	strb	w1, [sp, #7]
   8284c:	f94007e0 	ldr	x0, [sp, #8]
   82850:	b9400000 	ldr	w0, [x0]
   82854:	12185c01 	and	w1, w0, #0xffffff00
   82858:	f94007e0 	ldr	x0, [sp, #8]
   8285c:	b9000001 	str	w1, [x0]
   82860:	f94007e0 	ldr	x0, [sp, #8]
   82864:	b9400001 	ldr	w1, [x0]
   82868:	39401fe0 	ldrb	w0, [sp, #7]
   8286c:	2a000021 	orr	w1, w1, w0
   82870:	f94007e0 	ldr	x0, [sp, #8]
   82874:	b9000001 	str	w1, [x0]
   82878:	d503201f 	nop
   8287c:	910043ff 	add	sp, sp, #0x10
   82880:	d65f03c0 	ret

0000000000082884 <_ZN8GraphicsC1E11Framebuffer>:
   82884:	d10083ff 	sub	sp, sp, #0x20
   82888:	f9000fe0 	str	x0, [sp, #24]
   8288c:	a9008be1 	stp	x1, x2, [sp, #8]
   82890:	f94007e1 	ldr	x1, [sp, #8]
   82894:	f9400fe0 	ldr	x0, [sp, #24]
   82898:	f9000001 	str	x1, [x0]
   8289c:	b94013e1 	ldr	w1, [sp, #16]
   828a0:	f9400fe0 	ldr	x0, [sp, #24]
   828a4:	b9000801 	str	w1, [x0, #8]
   828a8:	b94017e1 	ldr	w1, [sp, #20]
   828ac:	f9400fe0 	ldr	x0, [sp, #24]
   828b0:	b9000c01 	str	w1, [x0, #12]
   828b4:	d503201f 	nop
   828b8:	910083ff 	add	sp, sp, #0x20
   828bc:	d65f03c0 	ret

00000000000828c0 <_ZN8Graphics13GetBufferSizeEv>:
   828c0:	d10043ff 	sub	sp, sp, #0x10
   828c4:	f90007e0 	str	x0, [sp, #8]
   828c8:	f94007e0 	ldr	x0, [sp, #8]
   828cc:	b9400801 	ldr	w1, [x0, #8]
   828d0:	f94007e0 	ldr	x0, [sp, #8]
   828d4:	b9400c00 	ldr	w0, [x0, #12]
   828d8:	1b007c20 	mul	w0, w1, w0
   828dc:	531e7400 	lsl	w0, w0, #2
   828e0:	910043ff 	add	sp, sp, #0x10
   828e4:	d65f03c0 	ret

00000000000828e8 <_ZN8Graphics4FillE5Color>:
   828e8:	a9bd7bfd 	stp	x29, x30, [sp, #-48]!
   828ec:	910003fd 	mov	x29, sp
   828f0:	f9000fe0 	str	x0, [sp, #24]
   828f4:	b90013e1 	str	w1, [sp, #16]
   828f8:	f9400fe0 	ldr	x0, [sp, #24]
   828fc:	f9400000 	ldr	x0, [x0]
   82900:	f90017e0 	str	x0, [sp, #40]
   82904:	f9400fe0 	ldr	x0, [sp, #24]
   82908:	97ffffee 	bl	828c0 <_ZN8Graphics13GetBufferSizeEv>
   8290c:	b90027e0 	str	w0, [sp, #36]
   82910:	b94027e0 	ldr	w0, [sp, #36]
   82914:	51000401 	sub	w1, w0, #0x1
   82918:	b90027e1 	str	w1, [sp, #36]
   8291c:	7100001f 	cmp	w0, #0x0
   82920:	1a9fd7e0 	cset	w0, gt
   82924:	12001c00 	and	w0, w0, #0xff
   82928:	7100001f 	cmp	w0, #0x0
   8292c:	54000100 	b.eq	8294c <_ZN8Graphics4FillE5Color+0x64>  // b.none
   82930:	b94013e1 	ldr	w1, [sp, #16]
   82934:	f94017e0 	ldr	x0, [sp, #40]
   82938:	b9000001 	str	w1, [x0]
   8293c:	f94017e0 	ldr	x0, [sp, #40]
   82940:	91001000 	add	x0, x0, #0x4
   82944:	f90017e0 	str	x0, [sp, #40]
   82948:	17fffff2 	b	82910 <_ZN8Graphics4FillE5Color+0x28>
   8294c:	d503201f 	nop
   82950:	a8c37bfd 	ldp	x29, x30, [sp], #48
   82954:	d65f03c0 	ret

0000000000082958 <_ZN8Graphics13FillRectangleE9Rectangle5Color>:
   82958:	d10103ff 	sub	sp, sp, #0x40
   8295c:	f9000fe0 	str	x0, [sp, #24]
   82960:	a9008be1 	stp	x1, x2, [sp, #8]
   82964:	b90003e3 	str	w3, [sp]
   82968:	f9400fe0 	ldr	x0, [sp, #24]
   8296c:	f9400000 	ldr	x0, [x0]
   82970:	f9001fe0 	str	x0, [sp, #56]
   82974:	b94013e0 	ldr	w0, [sp, #16]
   82978:	b9002fe0 	str	w0, [sp, #44]
   8297c:	b94017e0 	ldr	w0, [sp, #20]
   82980:	b9002be0 	str	w0, [sp, #40]
   82984:	b9400fe1 	ldr	w1, [sp, #12]
   82988:	f9400fe0 	ldr	x0, [sp, #24]
   8298c:	b9400800 	ldr	w0, [x0, #8]
   82990:	1b007c21 	mul	w1, w1, w0
   82994:	b9400be0 	ldr	w0, [sp, #8]
   82998:	0b000020 	add	w0, w1, w0
   8299c:	93407c00 	sxtw	x0, w0
   829a0:	d37ef400 	lsl	x0, x0, #2
   829a4:	f9401fe1 	ldr	x1, [sp, #56]
   829a8:	8b000020 	add	x0, x1, x0
   829ac:	f9001fe0 	str	x0, [sp, #56]
   829b0:	b90037ff 	str	wzr, [sp, #52]
   829b4:	b94037e1 	ldr	w1, [sp, #52]
   829b8:	b9402be0 	ldr	w0, [sp, #40]
   829bc:	6b00003f 	cmp	w1, w0
   829c0:	540003aa 	b.ge	82a34 <_ZN8Graphics13FillRectangleE9Rectangle5Color+0xdc>  // b.tcont
   829c4:	b90033ff 	str	wzr, [sp, #48]
   829c8:	b94033e1 	ldr	w1, [sp, #48]
   829cc:	b9402fe0 	ldr	w0, [sp, #44]
   829d0:	6b00003f 	cmp	w1, w0
   829d4:	5400016a 	b.ge	82a00 <_ZN8Graphics13FillRectangleE9Rectangle5Color+0xa8>  // b.tcont
   829d8:	b94003e1 	ldr	w1, [sp]
   829dc:	f9401fe0 	ldr	x0, [sp, #56]
   829e0:	b9000001 	str	w1, [x0]
   829e4:	f9401fe0 	ldr	x0, [sp, #56]
   829e8:	91001000 	add	x0, x0, #0x4
   829ec:	f9001fe0 	str	x0, [sp, #56]
   829f0:	b94033e0 	ldr	w0, [sp, #48]
   829f4:	11000400 	add	w0, w0, #0x1
   829f8:	b90033e0 	str	w0, [sp, #48]
   829fc:	17fffff3 	b	829c8 <_ZN8Graphics13FillRectangleE9Rectangle5Color+0x70>
   82a00:	f9400fe0 	ldr	x0, [sp, #24]
   82a04:	b9400801 	ldr	w1, [x0, #8]
   82a08:	b9402fe0 	ldr	w0, [sp, #44]
   82a0c:	4b000020 	sub	w0, w1, w0
   82a10:	93407c00 	sxtw	x0, w0
   82a14:	d37ef400 	lsl	x0, x0, #2
   82a18:	f9401fe1 	ldr	x1, [sp, #56]
   82a1c:	8b000020 	add	x0, x1, x0
   82a20:	f9001fe0 	str	x0, [sp, #56]
   82a24:	b94037e0 	ldr	w0, [sp, #52]
   82a28:	11000400 	add	w0, w0, #0x1
   82a2c:	b90037e0 	str	w0, [sp, #52]
   82a30:	17ffffe1 	b	829b4 <_ZN8Graphics13FillRectangleE9Rectangle5Color+0x5c>
   82a34:	d503201f 	nop
   82a38:	910103ff 	add	sp, sp, #0x40
   82a3c:	d65f03c0 	ret

0000000000082a40 <_ZN8Graphics8DrawCharEP8PSF2Font5Pointc5Color>:
   82a40:	a9ba7bfd 	stp	x29, x30, [sp, #-96]!
   82a44:	910003fd 	mov	x29, sp
   82a48:	f90017e0 	str	x0, [sp, #40]
   82a4c:	f90013e1 	str	x1, [sp, #32]
   82a50:	f9000fe2 	str	x2, [sp, #24]
   82a54:	39005fe3 	strb	w3, [sp, #23]
   82a58:	b90013e4 	str	w4, [sp, #16]
   82a5c:	f94017e0 	ldr	x0, [sp, #40]
   82a60:	f9400001 	ldr	x1, [x0]
   82a64:	b9401fe2 	ldr	w2, [sp, #28]
   82a68:	f94017e0 	ldr	x0, [sp, #40]
   82a6c:	b9400800 	ldr	w0, [x0, #8]
   82a70:	1b007c42 	mul	w2, w2, w0
   82a74:	b9401be0 	ldr	w0, [sp, #24]
   82a78:	0b000040 	add	w0, w2, w0
   82a7c:	93407c00 	sxtw	x0, w0
   82a80:	d37ef400 	lsl	x0, x0, #2
   82a84:	8b000020 	add	x0, x1, x0
   82a88:	f9002fe0 	str	x0, [sp, #88]
   82a8c:	39405fe1 	ldrb	w1, [sp, #23]
   82a90:	f94013e0 	ldr	x0, [sp, #32]
   82a94:	97fffe77 	bl	82470 <_ZN8PSF2Font8GetGlyphEc>
   82a98:	f9002be0 	str	x0, [sp, #80]
   82a9c:	f9402be0 	ldr	x0, [sp, #80]
   82aa0:	39400000 	ldrb	w0, [x0]
   82aa4:	39013fe0 	strb	w0, [sp, #79]
   82aa8:	52800100 	mov	w0, #0x8                   	// #8
   82aac:	b9004be0 	str	w0, [sp, #72]
   82ab0:	b90047ff 	str	wzr, [sp, #68]
   82ab4:	f94013e0 	ldr	x0, [sp, #32]
   82ab8:	f9400000 	ldr	x0, [x0]
   82abc:	b9401800 	ldr	w0, [x0, #24]
   82ac0:	b94047e1 	ldr	w1, [sp, #68]
   82ac4:	6b00003f 	cmp	w1, w0
   82ac8:	54000862 	b.cs	82bd4 <_ZN8Graphics8DrawCharEP8PSF2Font5Pointc5Color+0x194>  // b.hs, b.nlast
   82acc:	b90043ff 	str	wzr, [sp, #64]
   82ad0:	f94013e0 	ldr	x0, [sp, #32]
   82ad4:	f9400000 	ldr	x0, [x0]
   82ad8:	b9401c00 	ldr	w0, [x0, #28]
   82adc:	b94043e1 	ldr	w1, [sp, #64]
   82ae0:	6b00003f 	cmp	w1, w0
   82ae4:	54000482 	b.cs	82b74 <_ZN8Graphics8DrawCharEP8PSF2Font5Pointc5Color+0x134>  // b.hs, b.nlast
   82ae8:	b9404be0 	ldr	w0, [sp, #72]
   82aec:	7100001f 	cmp	w0, #0x0
   82af0:	54000121 	b.ne	82b14 <_ZN8Graphics8DrawCharEP8PSF2Font5Pointc5Color+0xd4>  // b.any
   82af4:	f9402be0 	ldr	x0, [sp, #80]
   82af8:	91000400 	add	x0, x0, #0x1
   82afc:	f9002be0 	str	x0, [sp, #80]
   82b00:	f9402be0 	ldr	x0, [sp, #80]
   82b04:	39400000 	ldrb	w0, [x0]
   82b08:	39013fe0 	strb	w0, [sp, #79]
   82b0c:	52800100 	mov	w0, #0x8                   	// #8
   82b10:	b9004be0 	str	w0, [sp, #72]
   82b14:	b94043e0 	ldr	w0, [sp, #64]
   82b18:	2a2003e0 	mvn	w0, w0
   82b1c:	12000800 	and	w0, w0, #0x7
   82b20:	52800021 	mov	w1, #0x1                   	// #1
   82b24:	1ac02020 	lsl	w0, w1, w0
   82b28:	b9003fe0 	str	w0, [sp, #60]
   82b2c:	39413fe1 	ldrb	w1, [sp, #79]
   82b30:	b9403fe0 	ldr	w0, [sp, #60]
   82b34:	0a000020 	and	w0, w1, w0
   82b38:	7100001f 	cmp	w0, #0x0
   82b3c:	54000080 	b.eq	82b4c <_ZN8Graphics8DrawCharEP8PSF2Font5Pointc5Color+0x10c>  // b.none
   82b40:	b94013e1 	ldr	w1, [sp, #16]
   82b44:	f9402fe0 	ldr	x0, [sp, #88]
   82b48:	b9000001 	str	w1, [x0]
   82b4c:	b9404be0 	ldr	w0, [sp, #72]
   82b50:	51000400 	sub	w0, w0, #0x1
   82b54:	b9004be0 	str	w0, [sp, #72]
   82b58:	f9402fe0 	ldr	x0, [sp, #88]
   82b5c:	91001000 	add	x0, x0, #0x4
   82b60:	f9002fe0 	str	x0, [sp, #88]
   82b64:	b94043e0 	ldr	w0, [sp, #64]
   82b68:	11000400 	add	w0, w0, #0x1
   82b6c:	b90043e0 	str	w0, [sp, #64]
   82b70:	17ffffd8 	b	82ad0 <_ZN8Graphics8DrawCharEP8PSF2Font5Pointc5Color+0x90>
   82b74:	f9402be0 	ldr	x0, [sp, #80]
   82b78:	91000400 	add	x0, x0, #0x1
   82b7c:	f9002be0 	str	x0, [sp, #80]
   82b80:	f9402be0 	ldr	x0, [sp, #80]
   82b84:	39400000 	ldrb	w0, [x0]
   82b88:	39013fe0 	strb	w0, [sp, #79]
   82b8c:	52800100 	mov	w0, #0x8                   	// #8
   82b90:	b9004be0 	str	w0, [sp, #72]
   82b94:	f94017e0 	ldr	x0, [sp, #40]
   82b98:	b9400800 	ldr	w0, [x0, #8]
   82b9c:	2a0003e1 	mov	w1, w0
   82ba0:	f94013e0 	ldr	x0, [sp, #32]
   82ba4:	f9400000 	ldr	x0, [x0]
   82ba8:	b9401c00 	ldr	w0, [x0, #28]
   82bac:	4b000020 	sub	w0, w1, w0
   82bb0:	2a0003e0 	mov	w0, w0
   82bb4:	d37ef400 	lsl	x0, x0, #2
   82bb8:	f9402fe1 	ldr	x1, [sp, #88]
   82bbc:	8b000020 	add	x0, x1, x0
   82bc0:	f9002fe0 	str	x0, [sp, #88]
   82bc4:	b94047e0 	ldr	w0, [sp, #68]
   82bc8:	11000400 	add	w0, w0, #0x1
   82bcc:	b90047e0 	str	w0, [sp, #68]
   82bd0:	17ffffb9 	b	82ab4 <_ZN8Graphics8DrawCharEP8PSF2Font5Pointc5Color+0x74>
   82bd4:	d503201f 	nop
   82bd8:	a8c67bfd 	ldp	x29, x30, [sp], #96
   82bdc:	d65f03c0 	ret

0000000000082be0 <_ZN8Graphics10DrawStringEP8PSF2Font5Point6String5Color>:
   82be0:	a9b97bfd 	stp	x29, x30, [sp, #-112]!
   82be4:	910003fd 	mov	x29, sp
   82be8:	f9001fe0 	str	x0, [sp, #56]
   82bec:	f9001be1 	str	x1, [sp, #48]
   82bf0:	f90017e2 	str	x2, [sp, #40]
   82bf4:	f90013e3 	str	x3, [sp, #32]
   82bf8:	b9001be4 	str	w4, [sp, #24]
   82bfc:	b9402be0 	ldr	w0, [sp, #40]
   82c00:	b9006fe0 	str	w0, [sp, #108]
   82c04:	b9402fe0 	ldr	w0, [sp, #44]
   82c08:	b9006be0 	str	w0, [sp, #104]
   82c0c:	f94013e0 	ldr	x0, [sp, #32]
   82c10:	97fffa91 	bl	81654 <_ZN6String9GetLengthEv>
   82c14:	b90067e0 	str	w0, [sp, #100]
   82c18:	f94013e0 	ldr	x0, [sp, #32]
   82c1c:	f9400000 	ldr	x0, [x0]
   82c20:	f9002fe0 	str	x0, [sp, #88]
   82c24:	b94067e0 	ldr	w0, [sp, #100]
   82c28:	7100001f 	cmp	w0, #0x0
   82c2c:	540006ed 	b.le	82d08 <_ZN8Graphics10DrawStringEP8PSF2Font5Point6String5Color+0x128>
   82c30:	f9402fe0 	ldr	x0, [sp, #88]
   82c34:	39400000 	ldrb	w0, [x0]
   82c38:	39015fe0 	strb	w0, [sp, #87]
   82c3c:	39415fe0 	ldrb	w0, [sp, #87]
   82c40:	7100281f 	cmp	w0, #0xa
   82c44:	54000121 	b.ne	82c68 <_ZN8Graphics10DrawStringEP8PSF2Font5Point6String5Color+0x88>  // b.any
   82c48:	b9402be0 	ldr	w0, [sp, #40]
   82c4c:	b9006fe0 	str	w0, [sp, #108]
   82c50:	f9401be0 	ldr	x0, [sp, #48]
   82c54:	f9400000 	ldr	x0, [x0]
   82c58:	b9401801 	ldr	w1, [x0, #24]
   82c5c:	b9406be0 	ldr	w0, [sp, #104]
   82c60:	0b000020 	add	w0, w1, w0
   82c64:	b9006be0 	str	w0, [sp, #104]
   82c68:	39415fe1 	ldrb	w1, [sp, #87]
   82c6c:	f9401be0 	ldr	x0, [sp, #48]
   82c70:	97fffdea 	bl	82418 <_ZN8PSF2Font17HasCharacterGlyphEc>
   82c74:	12001c00 	and	w0, w0, #0xff
   82c78:	7100001f 	cmp	w0, #0x0
   82c7c:	54000180 	b.eq	82cac <_ZN8Graphics10DrawStringEP8PSF2Font5Point6String5Color+0xcc>  // b.none
   82c80:	910103e0 	add	x0, sp, #0x40
   82c84:	b9406be2 	ldr	w2, [sp, #104]
   82c88:	b9406fe1 	ldr	w1, [sp, #108]
   82c8c:	97fffe2d 	bl	82540 <_ZN5PointC1Eii>
   82c90:	b9401be4 	ldr	w4, [sp, #24]
   82c94:	39415fe3 	ldrb	w3, [sp, #87]
   82c98:	f94023e2 	ldr	x2, [sp, #64]
   82c9c:	f9401be1 	ldr	x1, [sp, #48]
   82ca0:	f9401fe0 	ldr	x0, [sp, #56]
   82ca4:	97ffff67 	bl	82a40 <_ZN8Graphics8DrawCharEP8PSF2Font5Pointc5Color>
   82ca8:	1400000b 	b	82cd4 <_ZN8Graphics10DrawStringEP8PSF2Font5Point6String5Color+0xf4>
   82cac:	910123e0 	add	x0, sp, #0x48
   82cb0:	b9406be2 	ldr	w2, [sp, #104]
   82cb4:	b9406fe1 	ldr	w1, [sp, #108]
   82cb8:	97fffe22 	bl	82540 <_ZN5PointC1Eii>
   82cbc:	b9401be4 	ldr	w4, [sp, #24]
   82cc0:	528007e3 	mov	w3, #0x3f                  	// #63
   82cc4:	f94027e2 	ldr	x2, [sp, #72]
   82cc8:	f9401be1 	ldr	x1, [sp, #48]
   82ccc:	f9401fe0 	ldr	x0, [sp, #56]
   82cd0:	97ffff5c 	bl	82a40 <_ZN8Graphics8DrawCharEP8PSF2Font5Pointc5Color>
   82cd4:	f9401be0 	ldr	x0, [sp, #48]
   82cd8:	f9400000 	ldr	x0, [x0]
   82cdc:	b9401c01 	ldr	w1, [x0, #28]
   82ce0:	b9406fe0 	ldr	w0, [sp, #108]
   82ce4:	0b000020 	add	w0, w1, w0
   82ce8:	b9006fe0 	str	w0, [sp, #108]
   82cec:	f9402fe0 	ldr	x0, [sp, #88]
   82cf0:	91000400 	add	x0, x0, #0x1
   82cf4:	f9002fe0 	str	x0, [sp, #88]
   82cf8:	b94067e0 	ldr	w0, [sp, #100]
   82cfc:	51000400 	sub	w0, w0, #0x1
   82d00:	b90067e0 	str	w0, [sp, #100]
   82d04:	17ffffc8 	b	82c24 <_ZN8Graphics10DrawStringEP8PSF2Font5Point6String5Color+0x44>
   82d08:	d503201f 	nop
   82d0c:	a8c77bfd 	ldp	x29, x30, [sp], #112
   82d10:	d65f03c0 	ret

0000000000082d14 <_ZN11FramebufferC1Ev>:
   82d14:	a9be7bfd 	stp	x29, x30, [sp, #-32]!
   82d18:	910003fd 	mov	x29, sp
   82d1c:	f9000fe0 	str	x0, [sp, #24]
   82d20:	f9400fe0 	ldr	x0, [sp, #24]
   82d24:	91002000 	add	x0, x0, #0x8
   82d28:	97fffe13 	bl	82574 <_ZN4SizeC1Ev>
   82d2c:	d503201f 	nop
   82d30:	a8c27bfd 	ldp	x29, x30, [sp], #32
   82d34:	d65f03c0 	ret

0000000000082d38 <_ZN11FramebufferC1Eii>:
   82d38:	a9bb7bfd 	stp	x29, x30, [sp, #-80]!
   82d3c:	910003fd 	mov	x29, sp
   82d40:	f9000fe0 	str	x0, [sp, #24]
   82d44:	b90017e1 	str	w1, [sp, #20]
   82d48:	b90013e2 	str	w2, [sp, #16]
   82d4c:	f9400fe0 	ldr	x0, [sp, #24]
   82d50:	91002000 	add	x0, x0, #0x8
   82d54:	97fffe08 	bl	82574 <_ZN4SizeC1Ev>
   82d58:	9100e3e0 	add	x0, sp, #0x38
   82d5c:	b94013e2 	ldr	w2, [sp, #16]
   82d60:	b94017e1 	ldr	w1, [sp, #20]
   82d64:	97fffe0d 	bl	82598 <_ZN4SizeC1Eii>
   82d68:	f9400fe0 	ldr	x0, [sp, #24]
   82d6c:	f9401fe1 	ldr	x1, [sp, #56]
   82d70:	f9000401 	str	x1, [x0, #8]
   82d74:	910083e0 	add	x0, sp, #0x20
   82d78:	94000150 	bl	832b8 <_ZN7MailboxC1Ev>
   82d7c:	910083e0 	add	x0, sp, #0x20
   82d80:	94000162 	bl	83308 <_ZN7Mailbox5ResetEv>
   82d84:	b94017e1 	ldr	w1, [sp, #20]
   82d88:	b94013e2 	ldr	w2, [sp, #16]
   82d8c:	910083e0 	add	x0, sp, #0x20
   82d90:	2a0203e3 	mov	w3, w2
   82d94:	2a0103e2 	mov	w2, w1
   82d98:	52900061 	mov	w1, #0x8003                	// #32771
   82d9c:	72a00081 	movk	w1, #0x4, lsl #16
   82da0:	940001a0 	bl	83420 <_ZN7Mailbox18AddRequestPropertyEjjj>
   82da4:	b94017e1 	ldr	w1, [sp, #20]
   82da8:	b94013e2 	ldr	w2, [sp, #16]
   82dac:	910083e0 	add	x0, sp, #0x20
   82db0:	2a0203e3 	mov	w3, w2
   82db4:	2a0103e2 	mov	w2, w1
   82db8:	52900081 	mov	w1, #0x8004                	// #32772
   82dbc:	72a00081 	movk	w1, #0x4, lsl #16
   82dc0:	94000198 	bl	83420 <_ZN7Mailbox18AddRequestPropertyEjjj>
   82dc4:	910083e0 	add	x0, sp, #0x20
   82dc8:	52800402 	mov	w2, #0x20                  	// #32
   82dcc:	529000a1 	mov	w1, #0x8005                	// #32773
   82dd0:	72a00081 	movk	w1, #0x4, lsl #16
   82dd4:	9400017e 	bl	833cc <_ZN7Mailbox18AddRequestPropertyEjj>
   82dd8:	910083e0 	add	x0, sp, #0x20
   82ddc:	52800003 	mov	w3, #0x0                   	// #0
   82de0:	52800002 	mov	w2, #0x0                   	// #0
   82de4:	52900121 	mov	w1, #0x8009                	// #32777
   82de8:	72a00081 	movk	w1, #0x4, lsl #16
   82dec:	9400018d 	bl	83420 <_ZN7Mailbox18AddRequestPropertyEjjj>
   82df0:	910083e0 	add	x0, sp, #0x20
   82df4:	12800005 	mov	w5, #0xffffffff            	// #-1
   82df8:	52800004 	mov	w4, #0x0                   	// #0
   82dfc:	52800043 	mov	w3, #0x2                   	// #2
   82e00:	52800002 	mov	w2, #0x0                   	// #0
   82e04:	52900161 	mov	w1, #0x800b                	// #32779
   82e08:	72a00081 	movk	w1, #0x4, lsl #16
   82e0c:	940001bb 	bl	834f8 <_ZN7Mailbox18AddRequestPropertyEjjjjj>
   82e10:	910083e0 	add	x0, sp, #0x20
   82e14:	52800003 	mov	w3, #0x0                   	// #0
   82e18:	52800002 	mov	w2, #0x0                   	// #0
   82e1c:	52800021 	mov	w1, #0x1                   	// #1
   82e20:	72a00081 	movk	w1, #0x4, lsl #16
   82e24:	9400017f 	bl	83420 <_ZN7Mailbox18AddRequestPropertyEjjj>
   82e28:	f90027e0 	str	x0, [sp, #72]
   82e2c:	910083e0 	add	x0, sp, #0x20
   82e30:	940001d3 	bl	8357c <_ZN7Mailbox4PackEv>
   82e34:	910083e0 	add	x0, sp, #0x20
   82e38:	940001df 	bl	835b4 <_ZN7Mailbox5WriteEv>
   82e3c:	f94027e0 	ldr	x0, [sp, #72]
   82e40:	b9400000 	ldr	w0, [x0]
   82e44:	b90047e0 	str	w0, [sp, #68]
   82e48:	b94047e0 	ldr	w0, [sp, #68]
   82e4c:	7100001f 	cmp	w0, #0x0
   82e50:	54ffff20 	b.eq	82e34 <_ZN11FramebufferC1Eii+0xfc>  // b.none
   82e54:	b94047e0 	ldr	w0, [sp, #68]
   82e58:	92407400 	and	x0, x0, #0x3fffffff
   82e5c:	aa0003e1 	mov	x1, x0
   82e60:	f9400fe0 	ldr	x0, [sp, #24]
   82e64:	f9000001 	str	x1, [x0]
   82e68:	d503201f 	nop
   82e6c:	a8c57bfd 	ldp	x29, x30, [sp], #80
   82e70:	d65f03c0 	ret

0000000000082e74 <_ZN10GPIOHandleC1Ev>:
   82e74:	d10043ff 	sub	sp, sp, #0x10
   82e78:	f90007e0 	str	x0, [sp, #8]
   82e7c:	d503201f 	nop
   82e80:	910043ff 	add	sp, sp, #0x10
   82e84:	d65f03c0 	ret

0000000000082e88 <_ZN10GPIOHandleC1Ei>:
   82e88:	a9be7bfd 	stp	x29, x30, [sp, #-32]!
   82e8c:	910003fd 	mov	x29, sp
   82e90:	f9000fe0 	str	x0, [sp, #24]
   82e94:	b90017e1 	str	w1, [sp, #20]
   82e98:	b94017e1 	ldr	w1, [sp, #20]
   82e9c:	f9400fe0 	ldr	x0, [sp, #24]
   82ea0:	94000004 	bl	82eb0 <_ZN10GPIOHandle6SetPinEi>
   82ea4:	d503201f 	nop
   82ea8:	a8c27bfd 	ldp	x29, x30, [sp], #32
   82eac:	d65f03c0 	ret

0000000000082eb0 <_ZN10GPIOHandle6SetPinEi>:
   82eb0:	d10043ff 	sub	sp, sp, #0x10
   82eb4:	f90007e0 	str	x0, [sp, #8]
   82eb8:	b90007e1 	str	w1, [sp, #4]
   82ebc:	f94007e0 	ldr	x0, [sp, #8]
   82ec0:	b94007e1 	ldr	w1, [sp, #4]
   82ec4:	b9000001 	str	w1, [x0]
   82ec8:	b94007e0 	ldr	w0, [sp, #4]
   82ecc:	7100241f 	cmp	w0, #0x9
   82ed0:	5400018c 	b.gt	82f00 <_ZN10GPIOHandle6SetPinEi+0x50>
   82ed4:	f94007e0 	ldr	x0, [sp, #8]
   82ed8:	d2a7e401 	mov	x1, #0x3f200000            	// #1059061760
   82edc:	f9000401 	str	x1, [x0, #8]
   82ee0:	b94007e1 	ldr	w1, [sp, #4]
   82ee4:	2a0103e0 	mov	w0, w1
   82ee8:	0b000000 	add	w0, w0, w0
   82eec:	0b010000 	add	w0, w0, w1
   82ef0:	2a0003e1 	mov	w1, w0
   82ef4:	f94007e0 	ldr	x0, [sp, #8]
   82ef8:	b9002c01 	str	w1, [x0, #44]
   82efc:	14000050 	b	8303c <_ZN10GPIOHandle6SetPinEi+0x18c>
   82f00:	b94007e0 	ldr	w0, [sp, #4]
   82f04:	71004c1f 	cmp	w0, #0x13
   82f08:	540001cc 	b.gt	82f40 <_ZN10GPIOHandle6SetPinEi+0x90>
   82f0c:	f94007e0 	ldr	x0, [sp, #8]
   82f10:	d2800081 	mov	x1, #0x4                   	// #4
   82f14:	f2a7e401 	movk	x1, #0x3f20, lsl #16
   82f18:	f9000401 	str	x1, [x0, #8]
   82f1c:	b94007e0 	ldr	w0, [sp, #4]
   82f20:	51002801 	sub	w1, w0, #0xa
   82f24:	2a0103e0 	mov	w0, w1
   82f28:	0b000000 	add	w0, w0, w0
   82f2c:	0b010000 	add	w0, w0, w1
   82f30:	2a0003e1 	mov	w1, w0
   82f34:	f94007e0 	ldr	x0, [sp, #8]
   82f38:	b9002c01 	str	w1, [x0, #44]
   82f3c:	14000040 	b	8303c <_ZN10GPIOHandle6SetPinEi+0x18c>
   82f40:	b94007e0 	ldr	w0, [sp, #4]
   82f44:	7100741f 	cmp	w0, #0x1d
   82f48:	540001cc 	b.gt	82f80 <_ZN10GPIOHandle6SetPinEi+0xd0>
   82f4c:	f94007e0 	ldr	x0, [sp, #8]
   82f50:	d2800101 	mov	x1, #0x8                   	// #8
   82f54:	f2a7e401 	movk	x1, #0x3f20, lsl #16
   82f58:	f9000401 	str	x1, [x0, #8]
   82f5c:	b94007e0 	ldr	w0, [sp, #4]
   82f60:	51005001 	sub	w1, w0, #0x14
   82f64:	2a0103e0 	mov	w0, w1
   82f68:	0b000000 	add	w0, w0, w0
   82f6c:	0b010000 	add	w0, w0, w1
   82f70:	2a0003e1 	mov	w1, w0
   82f74:	f94007e0 	ldr	x0, [sp, #8]
   82f78:	b9002c01 	str	w1, [x0, #44]
   82f7c:	14000030 	b	8303c <_ZN10GPIOHandle6SetPinEi+0x18c>
   82f80:	b94007e0 	ldr	w0, [sp, #4]
   82f84:	71009c1f 	cmp	w0, #0x27
   82f88:	540001cc 	b.gt	82fc0 <_ZN10GPIOHandle6SetPinEi+0x110>
   82f8c:	f94007e0 	ldr	x0, [sp, #8]
   82f90:	d2800181 	mov	x1, #0xc                   	// #12
   82f94:	f2a7e401 	movk	x1, #0x3f20, lsl #16
   82f98:	f9000401 	str	x1, [x0, #8]
   82f9c:	b94007e0 	ldr	w0, [sp, #4]
   82fa0:	51007801 	sub	w1, w0, #0x1e
   82fa4:	2a0103e0 	mov	w0, w1
   82fa8:	0b000000 	add	w0, w0, w0
   82fac:	0b010000 	add	w0, w0, w1
   82fb0:	2a0003e1 	mov	w1, w0
   82fb4:	f94007e0 	ldr	x0, [sp, #8]
   82fb8:	b9002c01 	str	w1, [x0, #44]
   82fbc:	14000020 	b	8303c <_ZN10GPIOHandle6SetPinEi+0x18c>
   82fc0:	b94007e0 	ldr	w0, [sp, #4]
   82fc4:	7100c41f 	cmp	w0, #0x31
   82fc8:	540001cc 	b.gt	83000 <_ZN10GPIOHandle6SetPinEi+0x150>
   82fcc:	f94007e0 	ldr	x0, [sp, #8]
   82fd0:	d2800201 	mov	x1, #0x10                  	// #16
   82fd4:	f2a7e401 	movk	x1, #0x3f20, lsl #16
   82fd8:	f9000401 	str	x1, [x0, #8]
   82fdc:	b94007e0 	ldr	w0, [sp, #4]
   82fe0:	5100a001 	sub	w1, w0, #0x28
   82fe4:	2a0103e0 	mov	w0, w1
   82fe8:	0b000000 	add	w0, w0, w0
   82fec:	0b010000 	add	w0, w0, w1
   82ff0:	2a0003e1 	mov	w1, w0
   82ff4:	f94007e0 	ldr	x0, [sp, #8]
   82ff8:	b9002c01 	str	w1, [x0, #44]
   82ffc:	14000010 	b	8303c <_ZN10GPIOHandle6SetPinEi+0x18c>
   83000:	b94007e0 	ldr	w0, [sp, #4]
   83004:	7100d41f 	cmp	w0, #0x35
   83008:	540001ac 	b.gt	8303c <_ZN10GPIOHandle6SetPinEi+0x18c>
   8300c:	f94007e0 	ldr	x0, [sp, #8]
   83010:	d2800281 	mov	x1, #0x14                  	// #20
   83014:	f2a7e401 	movk	x1, #0x3f20, lsl #16
   83018:	f9000401 	str	x1, [x0, #8]
   8301c:	b94007e0 	ldr	w0, [sp, #4]
   83020:	5100c801 	sub	w1, w0, #0x32
   83024:	2a0103e0 	mov	w0, w1
   83028:	0b000000 	add	w0, w0, w0
   8302c:	0b010000 	add	w0, w0, w1
   83030:	2a0003e1 	mov	w1, w0
   83034:	f94007e0 	ldr	x0, [sp, #8]
   83038:	b9002c01 	str	w1, [x0, #44]
   8303c:	b94007e0 	ldr	w0, [sp, #4]
   83040:	71007c1f 	cmp	w0, #0x1f
   83044:	5400028c 	b.gt	83094 <_ZN10GPIOHandle6SetPinEi+0x1e4>
   83048:	f94007e0 	ldr	x0, [sp, #8]
   8304c:	d2800381 	mov	x1, #0x1c                  	// #28
   83050:	f2a7e401 	movk	x1, #0x3f20, lsl #16
   83054:	f9000801 	str	x1, [x0, #16]
   83058:	f94007e0 	ldr	x0, [sp, #8]
   8305c:	d2800501 	mov	x1, #0x28                  	// #40
   83060:	f2a7e401 	movk	x1, #0x3f20, lsl #16
   83064:	f9000c01 	str	x1, [x0, #24]
   83068:	f94007e0 	ldr	x0, [sp, #8]
   8306c:	d2800681 	mov	x1, #0x34                  	// #52
   83070:	f2a7e401 	movk	x1, #0x3f20, lsl #16
   83074:	f9001001 	str	x1, [x0, #32]
   83078:	b94007e0 	ldr	w0, [sp, #4]
   8307c:	52800021 	mov	w1, #0x1                   	// #1
   83080:	1ac02020 	lsl	w0, w1, w0
   83084:	2a0003e1 	mov	w1, w0
   83088:	f94007e0 	ldr	x0, [sp, #8]
   8308c:	b9002801 	str	w1, [x0, #40]
   83090:	14000014 	b	830e0 <_ZN10GPIOHandle6SetPinEi+0x230>
   83094:	f94007e0 	ldr	x0, [sp, #8]
   83098:	d2800401 	mov	x1, #0x20                  	// #32
   8309c:	f2a7e401 	movk	x1, #0x3f20, lsl #16
   830a0:	f9000801 	str	x1, [x0, #16]
   830a4:	f94007e0 	ldr	x0, [sp, #8]
   830a8:	d2800581 	mov	x1, #0x2c                  	// #44
   830ac:	f2a7e401 	movk	x1, #0x3f20, lsl #16
   830b0:	f9000c01 	str	x1, [x0, #24]
   830b4:	f94007e0 	ldr	x0, [sp, #8]
   830b8:	d2800701 	mov	x1, #0x38                  	// #56
   830bc:	f2a7e401 	movk	x1, #0x3f20, lsl #16
   830c0:	f9001001 	str	x1, [x0, #32]
   830c4:	b94007e0 	ldr	w0, [sp, #4]
   830c8:	51008000 	sub	w0, w0, #0x20
   830cc:	52800021 	mov	w1, #0x1                   	// #1
   830d0:	1ac02020 	lsl	w0, w1, w0
   830d4:	2a0003e1 	mov	w1, w0
   830d8:	f94007e0 	ldr	x0, [sp, #8]
   830dc:	b9002801 	str	w1, [x0, #40]
   830e0:	d503201f 	nop
   830e4:	910043ff 	add	sp, sp, #0x10
   830e8:	d65f03c0 	ret

00000000000830ec <_ZN10GPIOHandle8SetInputEv>:
   830ec:	d10043ff 	sub	sp, sp, #0x10
   830f0:	f90007e0 	str	x0, [sp, #8]
   830f4:	f94007e0 	ldr	x0, [sp, #8]
   830f8:	f9400400 	ldr	x0, [x0, #8]
   830fc:	b9400001 	ldr	w1, [x0]
   83100:	f94007e0 	ldr	x0, [sp, #8]
   83104:	b9402c00 	ldr	w0, [x0, #44]
   83108:	528000e2 	mov	w2, #0x7                   	// #7
   8310c:	1ac02040 	lsl	w0, w2, w0
   83110:	2a2003e0 	mvn	w0, w0
   83114:	2a0003e2 	mov	w2, w0
   83118:	f94007e0 	ldr	x0, [sp, #8]
   8311c:	f9400400 	ldr	x0, [x0, #8]
   83120:	0a020021 	and	w1, w1, w2
   83124:	b9000001 	str	w1, [x0]
   83128:	d503201f 	nop
   8312c:	910043ff 	add	sp, sp, #0x10
   83130:	d65f03c0 	ret

0000000000083134 <_ZN10GPIOHandle9SetOutputEv>:
   83134:	d10083ff 	sub	sp, sp, #0x20
   83138:	f90007e0 	str	x0, [sp, #8]
   8313c:	f94007e0 	ldr	x0, [sp, #8]
   83140:	f9400400 	ldr	x0, [x0, #8]
   83144:	b9400000 	ldr	w0, [x0]
   83148:	b9001fe0 	str	w0, [sp, #28]
   8314c:	f94007e0 	ldr	x0, [sp, #8]
   83150:	b9402c00 	ldr	w0, [x0, #44]
   83154:	528000e1 	mov	w1, #0x7                   	// #7
   83158:	1ac02020 	lsl	w0, w1, w0
   8315c:	2a2003e0 	mvn	w0, w0
   83160:	2a0003e1 	mov	w1, w0
   83164:	b9401fe0 	ldr	w0, [sp, #28]
   83168:	0a010000 	and	w0, w0, w1
   8316c:	b9001fe0 	str	w0, [sp, #28]
   83170:	f94007e0 	ldr	x0, [sp, #8]
   83174:	b9402c00 	ldr	w0, [x0, #44]
   83178:	52800021 	mov	w1, #0x1                   	// #1
   8317c:	1ac02020 	lsl	w0, w1, w0
   83180:	2a0003e1 	mov	w1, w0
   83184:	b9401fe0 	ldr	w0, [sp, #28]
   83188:	2a010000 	orr	w0, w0, w1
   8318c:	b9001fe0 	str	w0, [sp, #28]
   83190:	f94007e0 	ldr	x0, [sp, #8]
   83194:	f9400400 	ldr	x0, [x0, #8]
   83198:	b9401fe1 	ldr	w1, [sp, #28]
   8319c:	b9000001 	str	w1, [x0]
   831a0:	d503201f 	nop
   831a4:	910083ff 	add	sp, sp, #0x20
   831a8:	d65f03c0 	ret

00000000000831ac <_ZN10GPIOHandle5WriteEb>:
   831ac:	d10043ff 	sub	sp, sp, #0x10
   831b0:	f90007e0 	str	x0, [sp, #8]
   831b4:	39001fe1 	strb	w1, [sp, #7]
   831b8:	39401fe0 	ldrb	w0, [sp, #7]
   831bc:	7100001f 	cmp	w0, #0x0
   831c0:	54000160 	b.eq	831ec <_ZN10GPIOHandle5WriteEb+0x40>  // b.none
   831c4:	f94007e0 	ldr	x0, [sp, #8]
   831c8:	f9400800 	ldr	x0, [x0, #16]
   831cc:	b9400002 	ldr	w2, [x0]
   831d0:	f94007e0 	ldr	x0, [sp, #8]
   831d4:	b9402801 	ldr	w1, [x0, #40]
   831d8:	f94007e0 	ldr	x0, [sp, #8]
   831dc:	f9400800 	ldr	x0, [x0, #16]
   831e0:	2a010041 	orr	w1, w2, w1
   831e4:	b9000001 	str	w1, [x0]
   831e8:	1400000a 	b	83210 <_ZN10GPIOHandle5WriteEb+0x64>
   831ec:	f94007e0 	ldr	x0, [sp, #8]
   831f0:	f9400c00 	ldr	x0, [x0, #24]
   831f4:	b9400002 	ldr	w2, [x0]
   831f8:	f94007e0 	ldr	x0, [sp, #8]
   831fc:	b9402801 	ldr	w1, [x0, #40]
   83200:	f94007e0 	ldr	x0, [sp, #8]
   83204:	f9400c00 	ldr	x0, [x0, #24]
   83208:	2a010041 	orr	w1, w2, w1
   8320c:	b9000001 	str	w1, [x0]
   83210:	d503201f 	nop
   83214:	910043ff 	add	sp, sp, #0x10
   83218:	d65f03c0 	ret

000000000008321c <_ZN10GPIOHandle8IsActiveEv>:
   8321c:	d10043ff 	sub	sp, sp, #0x10
   83220:	f90007e0 	str	x0, [sp, #8]
   83224:	f94007e0 	ldr	x0, [sp, #8]
   83228:	f9401000 	ldr	x0, [x0, #32]
   8322c:	b9400001 	ldr	w1, [x0]
   83230:	f94007e0 	ldr	x0, [sp, #8]
   83234:	b9402800 	ldr	w0, [x0, #40]
   83238:	0a000020 	and	w0, w1, w0
   8323c:	7100001f 	cmp	w0, #0x0
   83240:	54000060 	b.eq	8324c <_ZN10GPIOHandle8IsActiveEv+0x30>  // b.none
   83244:	52800020 	mov	w0, #0x1                   	// #1
   83248:	14000002 	b	83250 <_ZN10GPIOHandle8IsActiveEv+0x34>
   8324c:	52800000 	mov	w0, #0x0                   	// #0
   83250:	910043ff 	add	sp, sp, #0x10
   83254:	d65f03c0 	ret

0000000000083258 <_Z41__static_initialization_and_destruction_0ii>:
   83258:	a9be7bfd 	stp	x29, x30, [sp, #-32]!
   8325c:	910003fd 	mov	x29, sp
   83260:	b9001fe0 	str	w0, [sp, #28]
   83264:	b9001be1 	str	w1, [sp, #24]
   83268:	b9401fe0 	ldr	w0, [sp, #28]
   8326c:	7100041f 	cmp	w0, #0x1
   83270:	54000101 	b.ne	83290 <_Z41__static_initialization_and_destruction_0ii+0x38>  // b.any
   83274:	b9401be1 	ldr	w1, [sp, #24]
   83278:	529fffe0 	mov	w0, #0xffff                	// #65535
   8327c:	6b00003f 	cmp	w1, w0
   83280:	54000081 	b.ne	83290 <_Z41__static_initialization_and_destruction_0ii+0x38>  // b.any
   83284:	90000060 	adrp	x0, 8f000 <_ZL4mbox+0xa20>
   83288:	9117c000 	add	x0, x0, #0x5f0
   8328c:	97fffea2 	bl	82d14 <_ZN11FramebufferC1Ev>
   83290:	d503201f 	nop
   83294:	a8c27bfd 	ldp	x29, x30, [sp], #32
   83298:	d65f03c0 	ret

000000000008329c <_GLOBAL__sub_I__ZN10GPIOHandleC2Ev>:
   8329c:	a9bf7bfd 	stp	x29, x30, [sp, #-16]!
   832a0:	910003fd 	mov	x29, sp
   832a4:	529fffe1 	mov	w1, #0xffff                	// #65535
   832a8:	52800020 	mov	w0, #0x1                   	// #1
   832ac:	97ffffeb 	bl	83258 <_Z41__static_initialization_and_destruction_0ii>
   832b0:	a8c17bfd 	ldp	x29, x30, [sp], #16
   832b4:	d65f03c0 	ret

00000000000832b8 <_ZN7MailboxC1Ev>:
   832b8:	a9be7bfd 	stp	x29, x30, [sp, #-32]!
   832bc:	910003fd 	mov	x29, sp
   832c0:	f9000fe0 	str	x0, [sp, #24]
   832c4:	f9400fe0 	ldr	x0, [sp, #24]
   832c8:	b900101f 	str	wzr, [x0, #16]
   832cc:	f9400fe0 	ldr	x0, [sp, #24]
   832d0:	b900141f 	str	wzr, [x0, #20]
   832d4:	f9400fe0 	ldr	x0, [sp, #24]
   832d8:	d2971501 	mov	x1, #0xb8a8                	// #47272
   832dc:	f2a7e001 	movk	x1, #0x3f00, lsl #16
   832e0:	f9000001 	str	x1, [x0]
   832e4:	f9400fe0 	ldr	x0, [sp, #24]
   832e8:	90000061 	adrp	x1, 8f000 <_ZL4mbox+0xa20>
   832ec:	91180021 	add	x1, x1, #0x600
   832f0:	f9000401 	str	x1, [x0, #8]
   832f4:	f9400fe0 	ldr	x0, [sp, #24]
   832f8:	94000004 	bl	83308 <_ZN7Mailbox5ResetEv>
   832fc:	d503201f 	nop
   83300:	a8c27bfd 	ldp	x29, x30, [sp], #32
   83304:	d65f03c0 	ret

0000000000083308 <_ZN7Mailbox5ResetEv>:
   83308:	a9be7bfd 	stp	x29, x30, [sp, #-32]!
   8330c:	910003fd 	mov	x29, sp
   83310:	f9000fe0 	str	x0, [sp, #24]
   83314:	f9400fe0 	ldr	x0, [sp, #24]
   83318:	b900101f 	str	wzr, [x0, #16]
   8331c:	f9400fe0 	ldr	x0, [sp, #24]
   83320:	b900141f 	str	wzr, [x0, #20]
   83324:	52800001 	mov	w1, #0x0                   	// #0
   83328:	f9400fe0 	ldr	x0, [sp, #24]
   8332c:	94000007 	bl	83348 <_ZN7Mailbox7AddDataEj>
   83330:	52800001 	mov	w1, #0x0                   	// #0
   83334:	f9400fe0 	ldr	x0, [sp, #24]
   83338:	94000004 	bl	83348 <_ZN7Mailbox7AddDataEj>
   8333c:	d503201f 	nop
   83340:	a8c27bfd 	ldp	x29, x30, [sp], #32
   83344:	d65f03c0 	ret

0000000000083348 <_ZN7Mailbox7AddDataEj>:
   83348:	d10083ff 	sub	sp, sp, #0x20
   8334c:	f90007e0 	str	x0, [sp, #8]
   83350:	b90007e1 	str	w1, [sp, #4]
   83354:	f94007e0 	ldr	x0, [sp, #8]
   83358:	f9400401 	ldr	x1, [x0, #8]
   8335c:	f94007e0 	ldr	x0, [sp, #8]
   83360:	b9401000 	ldr	w0, [x0, #16]
   83364:	2a0003e0 	mov	w0, w0
   83368:	d37ef400 	lsl	x0, x0, #2
   8336c:	8b000020 	add	x0, x1, x0
   83370:	f9000fe0 	str	x0, [sp, #24]
   83374:	f94007e0 	ldr	x0, [sp, #8]
   83378:	f9400401 	ldr	x1, [x0, #8]
   8337c:	f94007e0 	ldr	x0, [sp, #8]
   83380:	b9401000 	ldr	w0, [x0, #16]
   83384:	2a0003e0 	mov	w0, w0
   83388:	d37ef400 	lsl	x0, x0, #2
   8338c:	8b000020 	add	x0, x1, x0
   83390:	b94007e1 	ldr	w1, [sp, #4]
   83394:	b9000001 	str	w1, [x0]
   83398:	f94007e0 	ldr	x0, [sp, #8]
   8339c:	b9401400 	ldr	w0, [x0, #20]
   833a0:	11001001 	add	w1, w0, #0x4
   833a4:	f94007e0 	ldr	x0, [sp, #8]
   833a8:	b9001401 	str	w1, [x0, #20]
   833ac:	f94007e0 	ldr	x0, [sp, #8]
   833b0:	b9401000 	ldr	w0, [x0, #16]
   833b4:	11000401 	add	w1, w0, #0x1
   833b8:	f94007e0 	ldr	x0, [sp, #8]
   833bc:	b9001001 	str	w1, [x0, #16]
   833c0:	f9400fe0 	ldr	x0, [sp, #24]
   833c4:	910083ff 	add	sp, sp, #0x20
   833c8:	d65f03c0 	ret

00000000000833cc <_ZN7Mailbox18AddRequestPropertyEjj>:
   833cc:	a9bd7bfd 	stp	x29, x30, [sp, #-48]!
   833d0:	910003fd 	mov	x29, sp
   833d4:	f9000fe0 	str	x0, [sp, #24]
   833d8:	b90017e1 	str	w1, [sp, #20]
   833dc:	b90013e2 	str	w2, [sp, #16]
   833e0:	b94017e1 	ldr	w1, [sp, #20]
   833e4:	f9400fe0 	ldr	x0, [sp, #24]
   833e8:	97ffffd8 	bl	83348 <_ZN7Mailbox7AddDataEj>
   833ec:	52800081 	mov	w1, #0x4                   	// #4
   833f0:	f9400fe0 	ldr	x0, [sp, #24]
   833f4:	97ffffd5 	bl	83348 <_ZN7Mailbox7AddDataEj>
   833f8:	52800081 	mov	w1, #0x4                   	// #4
   833fc:	f9400fe0 	ldr	x0, [sp, #24]
   83400:	97ffffd2 	bl	83348 <_ZN7Mailbox7AddDataEj>
   83404:	b94013e1 	ldr	w1, [sp, #16]
   83408:	f9400fe0 	ldr	x0, [sp, #24]
   8340c:	97ffffcf 	bl	83348 <_ZN7Mailbox7AddDataEj>
   83410:	f90017e0 	str	x0, [sp, #40]
   83414:	f94017e0 	ldr	x0, [sp, #40]
   83418:	a8c37bfd 	ldp	x29, x30, [sp], #48
   8341c:	d65f03c0 	ret

0000000000083420 <_ZN7Mailbox18AddRequestPropertyEjjj>:
   83420:	a9bc7bfd 	stp	x29, x30, [sp, #-64]!
   83424:	910003fd 	mov	x29, sp
   83428:	f90017e0 	str	x0, [sp, #40]
   8342c:	b90027e1 	str	w1, [sp, #36]
   83430:	b90023e2 	str	w2, [sp, #32]
   83434:	b9001fe3 	str	w3, [sp, #28]
   83438:	b94027e1 	ldr	w1, [sp, #36]
   8343c:	f94017e0 	ldr	x0, [sp, #40]
   83440:	97ffffc2 	bl	83348 <_ZN7Mailbox7AddDataEj>
   83444:	52800101 	mov	w1, #0x8                   	// #8
   83448:	f94017e0 	ldr	x0, [sp, #40]
   8344c:	97ffffbf 	bl	83348 <_ZN7Mailbox7AddDataEj>
   83450:	52800101 	mov	w1, #0x8                   	// #8
   83454:	f94017e0 	ldr	x0, [sp, #40]
   83458:	97ffffbc 	bl	83348 <_ZN7Mailbox7AddDataEj>
   8345c:	b94023e1 	ldr	w1, [sp, #32]
   83460:	f94017e0 	ldr	x0, [sp, #40]
   83464:	97ffffb9 	bl	83348 <_ZN7Mailbox7AddDataEj>
   83468:	f9001fe0 	str	x0, [sp, #56]
   8346c:	b9401fe1 	ldr	w1, [sp, #28]
   83470:	f94017e0 	ldr	x0, [sp, #40]
   83474:	97ffffb5 	bl	83348 <_ZN7Mailbox7AddDataEj>
   83478:	f9401fe0 	ldr	x0, [sp, #56]
   8347c:	a8c47bfd 	ldp	x29, x30, [sp], #64
   83480:	d65f03c0 	ret

0000000000083484 <_ZN7Mailbox18AddRequestPropertyEjjjj>:
   83484:	a9bc7bfd 	stp	x29, x30, [sp, #-64]!
   83488:	910003fd 	mov	x29, sp
   8348c:	f90017e0 	str	x0, [sp, #40]
   83490:	b90027e1 	str	w1, [sp, #36]
   83494:	b90023e2 	str	w2, [sp, #32]
   83498:	b9001fe3 	str	w3, [sp, #28]
   8349c:	b9001be4 	str	w4, [sp, #24]
   834a0:	b94027e1 	ldr	w1, [sp, #36]
   834a4:	f94017e0 	ldr	x0, [sp, #40]
   834a8:	97ffffa8 	bl	83348 <_ZN7Mailbox7AddDataEj>
   834ac:	52800181 	mov	w1, #0xc                   	// #12
   834b0:	f94017e0 	ldr	x0, [sp, #40]
   834b4:	97ffffa5 	bl	83348 <_ZN7Mailbox7AddDataEj>
   834b8:	52800181 	mov	w1, #0xc                   	// #12
   834bc:	f94017e0 	ldr	x0, [sp, #40]
   834c0:	97ffffa2 	bl	83348 <_ZN7Mailbox7AddDataEj>
   834c4:	b94023e1 	ldr	w1, [sp, #32]
   834c8:	f94017e0 	ldr	x0, [sp, #40]
   834cc:	97ffff9f 	bl	83348 <_ZN7Mailbox7AddDataEj>
   834d0:	f9001fe0 	str	x0, [sp, #56]
   834d4:	b9401fe1 	ldr	w1, [sp, #28]
   834d8:	f94017e0 	ldr	x0, [sp, #40]
   834dc:	97ffff9b 	bl	83348 <_ZN7Mailbox7AddDataEj>
   834e0:	b9401be1 	ldr	w1, [sp, #24]
   834e4:	f94017e0 	ldr	x0, [sp, #40]
   834e8:	97ffff98 	bl	83348 <_ZN7Mailbox7AddDataEj>
   834ec:	f9401fe0 	ldr	x0, [sp, #56]
   834f0:	a8c47bfd 	ldp	x29, x30, [sp], #64
   834f4:	d65f03c0 	ret

00000000000834f8 <_ZN7Mailbox18AddRequestPropertyEjjjjj>:
   834f8:	a9bc7bfd 	stp	x29, x30, [sp, #-64]!
   834fc:	910003fd 	mov	x29, sp
   83500:	f90017e0 	str	x0, [sp, #40]
   83504:	b90027e1 	str	w1, [sp, #36]
   83508:	b90023e2 	str	w2, [sp, #32]
   8350c:	b9001fe3 	str	w3, [sp, #28]
   83510:	b9001be4 	str	w4, [sp, #24]
   83514:	b90017e5 	str	w5, [sp, #20]
   83518:	b94027e1 	ldr	w1, [sp, #36]
   8351c:	f94017e0 	ldr	x0, [sp, #40]
   83520:	97ffff8a 	bl	83348 <_ZN7Mailbox7AddDataEj>
   83524:	52800201 	mov	w1, #0x10                  	// #16
   83528:	f94017e0 	ldr	x0, [sp, #40]
   8352c:	97ffff87 	bl	83348 <_ZN7Mailbox7AddDataEj>
   83530:	52800201 	mov	w1, #0x10                  	// #16
   83534:	f94017e0 	ldr	x0, [sp, #40]
   83538:	97ffff84 	bl	83348 <_ZN7Mailbox7AddDataEj>
   8353c:	b94023e1 	ldr	w1, [sp, #32]
   83540:	f94017e0 	ldr	x0, [sp, #40]
   83544:	97ffff81 	bl	83348 <_ZN7Mailbox7AddDataEj>
   83548:	f9001fe0 	str	x0, [sp, #56]
   8354c:	b9401fe1 	ldr	w1, [sp, #28]
   83550:	f94017e0 	ldr	x0, [sp, #40]
   83554:	97ffff7d 	bl	83348 <_ZN7Mailbox7AddDataEj>
   83558:	b9401be1 	ldr	w1, [sp, #24]
   8355c:	f94017e0 	ldr	x0, [sp, #40]
   83560:	97ffff7a 	bl	83348 <_ZN7Mailbox7AddDataEj>
   83564:	b94017e1 	ldr	w1, [sp, #20]
   83568:	f94017e0 	ldr	x0, [sp, #40]
   8356c:	97ffff77 	bl	83348 <_ZN7Mailbox7AddDataEj>
   83570:	f9401fe0 	ldr	x0, [sp, #56]
   83574:	a8c47bfd 	ldp	x29, x30, [sp], #64
   83578:	d65f03c0 	ret

000000000008357c <_ZN7Mailbox4PackEv>:
   8357c:	a9be7bfd 	stp	x29, x30, [sp, #-32]!
   83580:	910003fd 	mov	x29, sp
   83584:	f9000fe0 	str	x0, [sp, #24]
   83588:	52800001 	mov	w1, #0x0                   	// #0
   8358c:	f9400fe0 	ldr	x0, [sp, #24]
   83590:	97ffff6e 	bl	83348 <_ZN7Mailbox7AddDataEj>
   83594:	f9400fe0 	ldr	x0, [sp, #24]
   83598:	f9400400 	ldr	x0, [x0, #8]
   8359c:	f9400fe1 	ldr	x1, [sp, #24]
   835a0:	b9401421 	ldr	w1, [x1, #20]
   835a4:	b9000001 	str	w1, [x0]
   835a8:	d503201f 	nop
   835ac:	a8c27bfd 	ldp	x29, x30, [sp], #32
   835b0:	d65f03c0 	ret

00000000000835b4 <_ZN7Mailbox5WriteEv>:
   835b4:	d10043ff 	sub	sp, sp, #0x10
   835b8:	f90007e0 	str	x0, [sp, #8]
   835bc:	f94007e0 	ldr	x0, [sp, #8]
   835c0:	f9400400 	ldr	x0, [x0, #8]
   835c4:	2a0003e1 	mov	w1, w0
   835c8:	f94007e0 	ldr	x0, [sp, #8]
   835cc:	f9400000 	ldr	x0, [x0]
   835d0:	11002021 	add	w1, w1, #0x8
   835d4:	b9000001 	str	w1, [x0]
   835d8:	d503201f 	nop
   835dc:	910043ff 	add	sp, sp, #0x10
   835e0:	d65f03c0 	ret

00000000000835e4 <_Z41__static_initialization_and_destruction_0ii>:
   835e4:	a9be7bfd 	stp	x29, x30, [sp, #-32]!
   835e8:	910003fd 	mov	x29, sp
   835ec:	b9001fe0 	str	w0, [sp, #28]
   835f0:	b9001be1 	str	w1, [sp, #24]
   835f4:	b9401fe0 	ldr	w0, [sp, #28]
   835f8:	7100041f 	cmp	w0, #0x1
   835fc:	54000101 	b.ne	8361c <_Z41__static_initialization_and_destruction_0ii+0x38>  // b.any
   83600:	b9401be1 	ldr	w1, [sp, #24]
   83604:	529fffe0 	mov	w0, #0xffff                	// #65535
   83608:	6b00003f 	cmp	w1, w0
   8360c:	54000081 	b.ne	8361c <_Z41__static_initialization_and_destruction_0ii+0x38>  // b.any
   83610:	b0000060 	adrp	x0, 90000 <_ZL4mbox+0xa00>
   83614:	91184000 	add	x0, x0, #0x610
   83618:	97fffdbf 	bl	82d14 <_ZN11FramebufferC1Ev>
   8361c:	d503201f 	nop
   83620:	a8c27bfd 	ldp	x29, x30, [sp], #32
   83624:	d65f03c0 	ret

0000000000083628 <_GLOBAL__sub_I__ZN7MailboxC2Ev>:
   83628:	a9bf7bfd 	stp	x29, x30, [sp, #-16]!
   8362c:	910003fd 	mov	x29, sp
   83630:	529fffe1 	mov	w1, #0xffff                	// #65535
   83634:	52800020 	mov	w0, #0x1                   	// #1
   83638:	97ffffeb 	bl	835e4 <_Z41__static_initialization_and_destruction_0ii>
   8363c:	a8c17bfd 	ldp	x29, x30, [sp], #16
   83640:	d65f03c0 	ret

0000000000083644 <_ZN11SystemTimer14GetSystemTimerEv>:
   83644:	d2860000 	mov	x0, #0x3000                	// #12288
   83648:	f2a7e000 	movk	x0, #0x3f00, lsl #16
   8364c:	d65f03c0 	ret

0000000000083650 <_ZN11SystemTimer23GetSystemTimerFrequencyEv>:
   83650:	f81f0ff3 	str	x19, [sp, #-16]!
   83654:	d53be000 	mrs	x0, cntfrq_el0
   83658:	aa0003f3 	mov	x19, x0
   8365c:	2a1303e0 	mov	w0, w19
   83660:	f84107f3 	ldr	x19, [sp], #16
   83664:	d65f03c0 	ret

0000000000083668 <_ZN11SystemTimer13GetSystemTimeEv>:
   83668:	a9bd7bfd 	stp	x29, x30, [sp, #-48]!
   8366c:	910003fd 	mov	x29, sp
   83670:	97fffff5 	bl	83644 <_ZN11SystemTimer14GetSystemTimerEv>
   83674:	f9000fe0 	str	x0, [sp, #24]
   83678:	f9400fe0 	ldr	x0, [sp, #24]
   8367c:	b9400400 	ldr	w0, [x0, #4]
   83680:	2a0003e0 	mov	w0, w0
   83684:	f90017e0 	str	x0, [sp, #40]
   83688:	f9400fe0 	ldr	x0, [sp, #24]
   8368c:	b9400800 	ldr	w0, [x0, #8]
   83690:	2a0003e0 	mov	w0, w0
   83694:	f90013e0 	str	x0, [sp, #32]
   83698:	f9400fe0 	ldr	x0, [sp, #24]
   8369c:	b9400800 	ldr	w0, [x0, #8]
   836a0:	2a0003e0 	mov	w0, w0
   836a4:	f94013e1 	ldr	x1, [sp, #32]
   836a8:	eb00003f 	cmp	x1, x0
   836ac:	1a9f07e0 	cset	w0, ne  // ne = any
   836b0:	12001c00 	and	w0, w0, #0xff
   836b4:	7100001f 	cmp	w0, #0x0
   836b8:	54000120 	b.eq	836dc <_ZN11SystemTimer13GetSystemTimeEv+0x74>  // b.none
   836bc:	f9400fe0 	ldr	x0, [sp, #24]
   836c0:	b9400400 	ldr	w0, [x0, #4]
   836c4:	2a0003e0 	mov	w0, w0
   836c8:	f90017e0 	str	x0, [sp, #40]
   836cc:	f9400fe0 	ldr	x0, [sp, #24]
   836d0:	b9400800 	ldr	w0, [x0, #8]
   836d4:	2a0003e0 	mov	w0, w0
   836d8:	f90013e0 	str	x0, [sp, #32]
   836dc:	f94013e0 	ldr	x0, [sp, #32]
   836e0:	d3607c01 	lsl	x1, x0, #32
   836e4:	f94017e0 	ldr	x0, [sp, #40]
   836e8:	aa000020 	orr	x0, x1, x0
   836ec:	a8c37bfd 	ldp	x29, x30, [sp], #48
   836f0:	d65f03c0 	ret

00000000000836f4 <_Z41__static_initialization_and_destruction_0ii>:
   836f4:	a9be7bfd 	stp	x29, x30, [sp, #-32]!
   836f8:	910003fd 	mov	x29, sp
   836fc:	b9001fe0 	str	w0, [sp, #28]
   83700:	b9001be1 	str	w1, [sp, #24]
   83704:	b9401fe0 	ldr	w0, [sp, #28]
   83708:	7100041f 	cmp	w0, #0x1
   8370c:	54000101 	b.ne	8372c <_Z41__static_initialization_and_destruction_0ii+0x38>  // b.any
   83710:	b9401be1 	ldr	w1, [sp, #24]
   83714:	529fffe0 	mov	w0, #0xffff                	// #65535
   83718:	6b00003f 	cmp	w1, w0
   8371c:	54000081 	b.ne	8372c <_Z41__static_initialization_and_destruction_0ii+0x38>  // b.any
   83720:	b0000060 	adrp	x0, 90000 <_ZL4mbox+0xa00>
   83724:	91188000 	add	x0, x0, #0x620
   83728:	97fffd7b 	bl	82d14 <_ZN11FramebufferC1Ev>
   8372c:	d503201f 	nop
   83730:	a8c27bfd 	ldp	x29, x30, [sp], #32
   83734:	d65f03c0 	ret

0000000000083738 <_GLOBAL__sub_I__ZN11SystemTimer14GetSystemTimerEv>:
   83738:	a9bf7bfd 	stp	x29, x30, [sp, #-16]!
   8373c:	910003fd 	mov	x29, sp
   83740:	529fffe1 	mov	w1, #0xffff                	// #65535
   83744:	52800020 	mov	w0, #0x1                   	// #1
   83748:	97ffffeb 	bl	836f4 <_Z41__static_initialization_and_destruction_0ii>
   8374c:	a8c17bfd 	ldp	x29, x30, [sp], #16
   83750:	d65f03c0 	ret

0000000000083754 <_Z14getFunctionMapv>:
   83754:	f0000020 	adrp	x0, 8a000 <_ZL17_systemFontBuffer+0x1e98>
   83758:	91158c00 	add	x0, x0, #0x563
   8375c:	d65f03c0 	ret

0000000000083760 <_Z13setSystemFont8PSF2Font>:
   83760:	a9be7bfd 	stp	x29, x30, [sp, #-32]!
   83764:	910003fd 	mov	x29, sp
   83768:	f9000bf3 	str	x19, [sp, #16]
   8376c:	aa0003f3 	mov	x19, x0
   83770:	b0000060 	adrp	x0, 90000 <_ZL4mbox+0xa00>
   83774:	9118c000 	add	x0, x0, #0x630
   83778:	aa0003e3 	mov	x3, x0
   8377c:	aa1303e1 	mov	x1, x19
   83780:	d2808100 	mov	x0, #0x408                 	// #1032
   83784:	aa0003e2 	mov	x2, x0
   83788:	aa0303e0 	mov	x0, x3
   8378c:	97fff699 	bl	811f0 <memcpy>
   83790:	d503201f 	nop
   83794:	f9400bf3 	ldr	x19, [sp, #16]
   83798:	a8c27bfd 	ldp	x29, x30, [sp], #32
   8379c:	d65f03c0 	ret

00000000000837a0 <_Z13getSystemFontv>:
   837a0:	a9bf7bfd 	stp	x29, x30, [sp, #-16]!
   837a4:	910003fd 	mov	x29, sp
   837a8:	aa0803e1 	mov	x1, x8
   837ac:	b0000060 	adrp	x0, 90000 <_ZL4mbox+0xa00>
   837b0:	9118c000 	add	x0, x0, #0x630
   837b4:	aa0103e3 	mov	x3, x1
   837b8:	aa0003e1 	mov	x1, x0
   837bc:	d2808100 	mov	x0, #0x408                 	// #1032
   837c0:	aa0003e2 	mov	x2, x0
   837c4:	aa0303e0 	mov	x0, x3
   837c8:	97fff68a 	bl	811f0 <memcpy>
   837cc:	a8c17bfd 	ldp	x29, x30, [sp], #16
   837d0:	d65f03c0 	ret

00000000000837d4 <_Z41__static_initialization_and_destruction_0ii>:
   837d4:	a9be7bfd 	stp	x29, x30, [sp, #-32]!
   837d8:	910003fd 	mov	x29, sp
   837dc:	b9001fe0 	str	w0, [sp, #28]
   837e0:	b9001be1 	str	w1, [sp, #24]
   837e4:	b9401fe0 	ldr	w0, [sp, #28]
   837e8:	7100041f 	cmp	w0, #0x1
   837ec:	54000101 	b.ne	8380c <_Z41__static_initialization_and_destruction_0ii+0x38>  // b.any
   837f0:	b9401be1 	ldr	w1, [sp, #24]
   837f4:	529fffe0 	mov	w0, #0xffff                	// #65535
   837f8:	6b00003f 	cmp	w1, w0
   837fc:	54000081 	b.ne	8380c <_Z41__static_initialization_and_destruction_0ii+0x38>  // b.any
   83800:	b0000060 	adrp	x0, 90000 <_ZL4mbox+0xa00>
   83804:	9118c000 	add	x0, x0, #0x630
   83808:	97fffaff 	bl	82404 <_ZN8PSF2FontC1Ev>
   8380c:	d503201f 	nop
   83810:	a8c27bfd 	ldp	x29, x30, [sp], #32
   83814:	d65f03c0 	ret

0000000000083818 <_GLOBAL__sub_I__Z13setSystemFont8PSF2Font>:
   83818:	a9bf7bfd 	stp	x29, x30, [sp, #-16]!
   8381c:	910003fd 	mov	x29, sp
   83820:	529fffe1 	mov	w1, #0xffff                	// #65535
   83824:	52800020 	mov	w0, #0x1                   	// #1
   83828:	97ffffeb 	bl	837d4 <_Z41__static_initialization_and_destruction_0ii>
   8382c:	a8c17bfd 	ldp	x29, x30, [sp], #16
   83830:	d65f03c0 	ret

Disassembly of section .rodata:

0000000000083838 <_ZL17_systemFontBuffer>:
   83838:	864ab572 	.inst	0x864ab572 ; undefined
   8383c:	00000000 	udf	#0
   83840:	00000020 	udf	#32
   83844:	00000001 	udf	#1
   83848:	00000100 	udf	#256
   8384c:	00000020 	udf	#32
   83850:	00000010 	udf	#16
   83854:	0000000a 	udf	#10
	...
   83860:	00550000 	.inst	0x00550000 ; undefined
   83864:	00410000 	.inst	0x00410000 ; undefined
   83868:	00410000 	.inst	0x00410000 ; undefined
   8386c:	00410000 	.inst	0x00410000 ; undefined
   83870:	00550000 	.inst	0x00550000 ; undefined
	...
   83884:	0022007f 	.inst	0x0022007f ; NYI
   83888:	00220022 	.inst	0x00220022 ; NYI
   8388c:	00220022 	.inst	0x00220022 ; NYI
   83890:	00210022 	.inst	0x00210022 ; NYI
	...
   8389c:	00010000 	.inst	0x00010000 ; undefined
   838a0:	00020001 	.inst	0x00020001 ; undefined
   838a4:	00040002 	.inst	0x00040002 ; undefined
   838a8:	0008007f 	.inst	0x0008007f ; undefined
   838ac:	0010007f 	.inst	0x0010007f ; undefined
   838b0:	00200010 	.inst	0x00200010 ; NYI
   838b4:	00000020 	udf	#32
	...
   838c0:	00020000 	.inst	0x00020000 ; undefined
   838c4:	00080004 	.inst	0x00080004 ; undefined
   838c8:	00200010 	.inst	0x00200010 ; NYI
   838cc:	00080010 	.inst	0x00080010 ; undefined
   838d0:	00000004 	udf	#4
   838d4:	0000003c 	udf	#60
	...
   838e4:	00080010 	.inst	0x00080010 ; undefined
   838e8:	00020004 	.inst	0x00020004 ; undefined
   838ec:	00080004 	.inst	0x00080004 ; undefined
   838f0:	00000010 	udf	#16
   838f4:	0000001e 	udf	#30
	...
   83904:	003e0000 	.inst	0x003e0000 ; NYI
   83908:	003e003e 	.inst	0x003e003e ; NYI
   8390c:	003e003e 	.inst	0x003e003e ; NYI
	...
   83924:	001c0008 	.inst	0x001c0008 ; undefined
   83928:	007f003e 	.inst	0x007f003e ; undefined
   8392c:	001c003e 	.inst	0x001c003e ; undefined
   83930:	00000008 	udf	#8
	...
   83940:	00c40044 	.inst	0x00c40044 ; undefined
   83944:	00480048 	.inst	0x00480048 ; undefined
   83948:	00550053 	.inst	0x00550053 ; undefined
   8394c:	802f0029 	.inst	0x802f0029 ; NYI
   83950:	00410041 	.inst	0x00410041 ; undefined
	...
   83960:	00c40044 	.inst	0x00c40044 ; undefined
   83964:	00480048 	.inst	0x00480048 ; undefined
   83968:	00570050 	.inst	0x00570050 ; undefined
   8396c:	00138010 	.inst	0x00138010 ; undefined
   83970:	80270024 	.inst	0x80270024 ; NYI
	...
   83980:	002400e4 	.inst	0x002400e4 ; NYI
   83984:	002800c8 	.inst	0x002800c8 ; NYI
   83988:	001500d3 	.inst	0x001500d3 ; undefined
   8398c:	802f0029 	.inst	0x802f0029 ; NYI
   83990:	00410041 	.inst	0x00410041 ; undefined
	...
   8399c:	00080000 	.inst	0x00080000 ; undefined
   839a0:	00080008 	.inst	0x00080008 ; undefined
   839a4:	00080008 	.inst	0x00080008 ; undefined
   839a8:	00000000 	udf	#0
   839ac:	00080008 	.inst	0x00080008 ; undefined
   839b0:	00080008 	.inst	0x00080008 ; undefined
   839b4:	00000008 	udf	#8
   839b8:	00000000 	udf	#0
   839bc:	00140000 	.inst	0x00140000 ; undefined
   839c0:	00000014 	udf	#20
	...
   839f4:	00300008 	.inst	0x00300008 ; NYI
	...
   83a00:	0011000e 	.inst	0x0011000e ; undefined
   83a04:	00100010 	.inst	0x00100010 ; undefined
   83a08:	0020007e 	.inst	0x0020007e ; NYI
   83a0c:	00200020 	.inst	0x00200020 ; NYI
   83a10:	00400040 	.inst	0x00400040 ; undefined
   83a14:	00000040 	udf	#64
	...
   83a20:	00080008 	.inst	0x00080008 ; undefined
   83a24:	003e0008 	.inst	0x003e0008 ; NYI
   83a28:	00080008 	.inst	0x00080008 ; undefined
   83a2c:	00080008 	.inst	0x00080008 ; undefined
   83a30:	00080008 	.inst	0x00080008 ; undefined
   83a34:	00000008 	udf	#8
	...
   83a40:	00080008 	.inst	0x00080008 ; undefined
   83a44:	003e0008 	.inst	0x003e0008 ; NYI
   83a48:	00080008 	.inst	0x00080008 ; undefined
   83a4c:	003e0008 	.inst	0x003e0008 ; NYI
   83a50:	00080008 	.inst	0x00080008 ; undefined
   83a54:	00000008 	udf	#8
	...
   83a60:	00480030 	.inst	0x00480030 ; undefined
   83a64:	00338048 	.inst	0x00338048 ; NYI
   83a68:	0030000c 	.inst	0x0030000c ; NYI
   83a6c:	802400db 	.inst	0x802400db ; NYI
   83a70:	001b8024 	.inst	0x001b8024 ; undefined
	...
   83a80:	005500fb 	.inst	0x005500fb ; undefined
   83a84:	00510055 	.inst	0x00510055 ; undefined
	...
   83ab0:	80248024 	.inst	0x80248024 ; NYI
	...
   83ac4:	00040000 	.inst	0x00040000 ; undefined
   83ac8:	00100008 	.inst	0x00100008 ; undefined
   83acc:	00040008 	.inst	0x00040008 ; undefined
	...
   83ae4:	00100000 	.inst	0x00100000 ; undefined
   83ae8:	00040008 	.inst	0x00040008 ; undefined
   83aec:	00100008 	.inst	0x00100008 ; undefined
	...
   83afc:	00440000 	.inst	0x00440000 ; undefined
   83b00:	00440044 	.inst	0x00440044 ; undefined
   83b04:	00000033 	udf	#51
	...
   83b1c:	00110000 	.inst	0x00110000 ; undefined
   83b20:	00110011 	.inst	0x00110011 ; undefined
   83b24:	00000066 	udf	#102
	...
   83b50:	00110011 	.inst	0x00110011 ; undefined
   83b54:	00660011 	.inst	0x00660011 ; undefined
	...
   83b70:	00440044 	.inst	0x00440044 ; undefined
   83b74:	00330044 	.inst	0x00330044 ; NYI
	...
   83b90:	00100010 	.inst	0x00100010 ; undefined
   83b94:	000c0010 	.inst	0x000c0010 ; undefined
   83b98:	00220000 	.inst	0x00220000 ; NYI
   83b9c:	0000001c 	udf	#28
   83ba0:	0021001e 	.inst	0x0021001e ; NYI
   83ba4:	00400040 	.inst	0x00400040 ; undefined
   83ba8:	00410040 	.inst	0x00410040 ; undefined
   83bac:	00410041 	.inst	0x00410041 ; undefined
   83bb0:	001f0021 	.inst	0x001f0021 ; undefined
	...
   83bbc:	00220000 	.inst	0x00220000 ; NYI
   83bc0:	0000001c 	udf	#28
   83bc4:	0021001f 	.inst	0x0021001f ; NYI
   83bc8:	00410041 	.inst	0x00410041 ; undefined
   83bcc:	00230041 	.inst	0x00230041 ; NYI
   83bd0:	0001001d 	.inst	0x0001001d ; undefined
   83bd4:	003c0042 	.inst	0x003c0042 ; NYI
   83bd8:	00080000 	.inst	0x00080000 ; undefined
   83bdc:	00000008 	udf	#8
   83be0:	0008003e 	.inst	0x0008003e ; undefined
   83be4:	00080008 	.inst	0x00080008 ; undefined
   83be8:	00080008 	.inst	0x00080008 ; undefined
   83bec:	00080008 	.inst	0x00080008 ; undefined
   83bf0:	003e0008 	.inst	0x003e0008 ; NYI
	...
   83c04:	0004003c 	.inst	0x0004003c ; undefined
   83c08:	00040004 	.inst	0x00040004 ; undefined
   83c0c:	00040004 	.inst	0x00040004 ; undefined
   83c10:	00040004 	.inst	0x00040004 ; undefined
	...
   83c20:	0041003e 	.inst	0x0041003e ; undefined
   83c24:	00400040 	.inst	0x00400040 ; undefined
   83c28:	000e0030 	.inst	0x000e0030 ; undefined
   83c2c:	00010001 	.inst	0x00010001 ; undefined
   83c30:	003e0041 	.inst	0x003e0041 ; NYI
   83c34:	00180004 	.inst	0x00180004 ; undefined
	...
   83c44:	0041003e 	.inst	0x0041003e ; undefined
   83c48:	00380040 	.inst	0x00380040 ; NYI
   83c4c:	00010006 	.inst	0x00010006 ; undefined
   83c50:	003e0041 	.inst	0x003e0041 ; NYI
   83c54:	00180004 	.inst	0x00180004 ; undefined
	...
   83c80:	00040004 	.inst	0x00040004 ; undefined
   83c84:	00040004 	.inst	0x00040004 ; undefined
   83c88:	00040004 	.inst	0x00040004 ; undefined
   83c8c:	00000004 	udf	#4
   83c90:	00040004 	.inst	0x00040004 ; undefined
	...
   83c9c:	00120012 	.inst	0x00120012 ; undefined
   83ca0:	00000012 	udf	#18
	...
   83cc0:	00120012 	.inst	0x00120012 ; undefined
   83cc4:	007f0012 	.inst	0x007f0012 ; undefined
   83cc8:	00240024 	.inst	0x00240024 ; NYI
   83ccc:	004800fe 	.inst	0x004800fe ; undefined
   83cd0:	00480048 	.inst	0x00480048 ; undefined
	...
   83cdc:	00080000 	.inst	0x00080000 ; undefined
   83ce0:	0049003e 	.inst	0x0049003e ; undefined
   83ce4:	00480048 	.inst	0x00480048 ; undefined
   83ce8:	000e0038 	.inst	0x000e0038 ; undefined
   83cec:	00090009 	.inst	0x00090009 ; undefined
   83cf0:	003e0049 	.inst	0x003e0049 ; NYI
   83cf4:	00000008 	udf	#8
	...
   83d00:	00490030 	.inst	0x00490030 ; undefined
   83d04:	0034004a 	.inst	0x0034004a ; NYI
   83d08:	00080008 	.inst	0x00080008 ; undefined
   83d0c:	00290016 	.inst	0x00290016 ; NYI
   83d10:	00060049 	.inst	0x00060049 ; undefined
	...
   83d20:	0022001c 	.inst	0x0022001c ; NYI
   83d24:	00240022 	.inst	0x00240022 ; NYI
   83d28:	00258019 	.inst	0x00258019 ; NYI
   83d2c:	00420042 	.inst	0x00420042 ; undefined
   83d30:	80390046 	.inst	0x80390046 ; NYI
	...
   83d3c:	00040000 	.inst	0x00040000 ; undefined
   83d40:	00040004 	.inst	0x00040004 ; undefined
   83d44:	00000018 	udf	#24
	...
   83d5c:	00060000 	.inst	0x00060000 ; undefined
   83d60:	00100008 	.inst	0x00100008 ; undefined
   83d64:	00200010 	.inst	0x00200010 ; NYI
   83d68:	00200020 	.inst	0x00200020 ; NYI
   83d6c:	00100020 	.inst	0x00100020 ; undefined
   83d70:	00080010 	.inst	0x00080010 ; undefined
   83d74:	00000006 	udf	#6
   83d78:	00000000 	udf	#0
   83d7c:	00300000 	.inst	0x00300000 ; NYI
   83d80:	00040008 	.inst	0x00040008 ; undefined
   83d84:	00020004 	.inst	0x00020004 ; undefined
   83d88:	00020002 	.inst	0x00020002 ; undefined
   83d8c:	00040002 	.inst	0x00040002 ; undefined
   83d90:	00080004 	.inst	0x00080004 ; undefined
   83d94:	00000030 	udf	#48
	...
   83da0:	002a0008 	.inst	0x002a0008 ; NYI
   83da4:	002a0014 	.inst	0x002a0014 ; NYI
   83da8:	00000008 	udf	#8
	...
   83dc4:	00080008 	.inst	0x00080008 ; undefined
   83dc8:	007f0008 	.inst	0x007f0008 ; undefined
   83dcc:	00080008 	.inst	0x00080008 ; undefined
   83dd0:	00000008 	udf	#8
	...
   83df0:	00040004 	.inst	0x00040004 ; undefined
   83df4:	00180004 	.inst	0x00180004 ; undefined
	...
   83e08:	007f0000 	.inst	0x007f0000 ; undefined
	...
   83e30:	00080008 	.inst	0x00080008 ; undefined
	...
   83e3c:	00010000 	.inst	0x00010000 ; undefined
   83e40:	00020001 	.inst	0x00020001 ; undefined
   83e44:	00040002 	.inst	0x00040002 ; undefined
   83e48:	00080004 	.inst	0x00080004 ; undefined
   83e4c:	00100008 	.inst	0x00100008 ; undefined
   83e50:	00200010 	.inst	0x00200010 ; NYI
   83e54:	00000020 	udf	#32
	...
   83e60:	0022001c 	.inst	0x0022001c ; NYI
   83e64:	00410022 	.inst	0x00410022 ; undefined
   83e68:	00490049 	.inst	0x00490049 ; undefined
   83e6c:	00220041 	.inst	0x00220041 ; NYI
   83e70:	001c0022 	.inst	0x001c0022 ; undefined
	...
   83e80:	00180008 	.inst	0x00180008 ; undefined
   83e84:	00080028 	.inst	0x00080028 ; undefined
   83e88:	00080008 	.inst	0x00080008 ; undefined
   83e8c:	00080008 	.inst	0x00080008 ; undefined
   83e90:	00080008 	.inst	0x00080008 ; undefined
	...
   83ea0:	0022001c 	.inst	0x0022001c ; NYI
   83ea4:	00020002 	.inst	0x00020002 ; undefined
   83ea8:	00080004 	.inst	0x00080004 ; undefined
   83eac:	00200010 	.inst	0x00200010 ; NYI
   83eb0:	003e0020 	.inst	0x003e0020 ; NYI
	...
   83ec0:	0022001c 	.inst	0x0022001c ; NYI
   83ec4:	00040002 	.inst	0x00040002 ; undefined
   83ec8:	00040018 	.inst	0x00040018 ; undefined
   83ecc:	00020002 	.inst	0x00020002 ; undefined
   83ed0:	001c0022 	.inst	0x001c0022 ; undefined
	...
   83ee0:	00060002 	.inst	0x00060002 ; undefined
   83ee4:	0012000a 	.inst	0x0012000a ; undefined
   83ee8:	00220022 	.inst	0x00220022 ; NYI
   83eec:	0002803f 	.inst	0x0002803f ; undefined
   83ef0:	00020002 	.inst	0x00020002 ; undefined
	...
   83f00:	0020003e 	.inst	0x0020003e ; NYI
   83f04:	00200020 	.inst	0x00200020 ; NYI
   83f08:	0002003c 	.inst	0x0002003c ; undefined
   83f0c:	00020002 	.inst	0x00020002 ; undefined
   83f10:	00380044 	.inst	0x00380044 ; NYI
	...
   83f20:	0011000e 	.inst	0x0011000e ; undefined
   83f24:	002c0020 	.inst	0x002c0020 ; NYI
   83f28:	00210032 	.inst	0x00210032 ; NYI
   83f2c:	00210021 	.inst	0x00210021 ; NYI
   83f30:	000c0012 	.inst	0x000c0012 ; undefined
	...
   83f40:	0002007e 	.inst	0x0002007e ; undefined
   83f44:	00040002 	.inst	0x00040002 ; undefined
   83f48:	00100008 	.inst	0x00100008 ; undefined
   83f4c:	00200010 	.inst	0x00200010 ; NYI
   83f50:	00200020 	.inst	0x00200020 ; NYI
	...
   83f60:	0021001e 	.inst	0x0021001e ; NYI
   83f64:	00120021 	.inst	0x00120021 ; undefined
   83f68:	0012000c 	.inst	0x0012000c ; undefined
   83f6c:	00210021 	.inst	0x00210021 ; NYI
   83f70:	001e0021 	.inst	0x001e0021 ; undefined
	...
   83f80:	00240018 	.inst	0x00240018 ; NYI
   83f84:	00420042 	.inst	0x00420042 ; undefined
   83f88:	00260042 	.inst	0x00260042 ; NYI
   83f8c:	0002001a 	.inst	0x0002001a ; undefined
   83f90:	00380044 	.inst	0x00380044 ; NYI
	...
   83fa4:	00080000 	.inst	0x00080000 ; undefined
   83fa8:	00000008 	udf	#8
   83fac:	00000000 	udf	#0
   83fb0:	00080008 	.inst	0x00080008 ; undefined
	...
   83fc4:	00080000 	.inst	0x00080000 ; undefined
   83fc8:	00000008 	udf	#8
   83fcc:	00000000 	udf	#0
   83fd0:	00080008 	.inst	0x00080008 ; undefined
   83fd4:	00300008 	.inst	0x00300008 ; NYI
	...
   83fe4:	00080004 	.inst	0x00080004 ; undefined
   83fe8:	00200010 	.inst	0x00200010 ; NYI
   83fec:	00080010 	.inst	0x00080010 ; undefined
   83ff0:	00000004 	udf	#4
	...
   84008:	0000007f 	udf	#127
   8400c:	0000007f 	udf	#127
	...
   84024:	00080010 	.inst	0x00080010 ; undefined
   84028:	00020004 	.inst	0x00020004 ; undefined
   8402c:	00080004 	.inst	0x00080004 ; undefined
   84030:	00000010 	udf	#16
	...
   84040:	0042003c 	.inst	0x0042003c ; undefined
   84044:	00020002 	.inst	0x00020002 ; undefined
   84048:	00080004 	.inst	0x00080004 ; undefined
   8404c:	00000010 	udf	#16
   84050:	00100010 	.inst	0x00100010 ; undefined
	...
   84060:	0031000e 	.inst	0x0031000e ; NYI
   84064:	00470021 	.inst	0x00470021 ; undefined
   84068:	00490049 	.inst	0x00490049 ; undefined
   8406c:	80260049 	.inst	0x80260049 ; NYI
   84070:	000f0030 	.inst	0x000f0030 ; undefined
	...
   84080:	00080008 	.inst	0x00080008 ; undefined
   84084:	00140014 	.inst	0x00140014 ; undefined
   84088:	00220022 	.inst	0x00220022 ; NYI
   8408c:	0041007f 	.inst	0x0041007f ; undefined
   84090:	00410041 	.inst	0x00410041 ; undefined
	...
   840a0:	0021003e 	.inst	0x0021003e ; NYI
   840a4:	00220021 	.inst	0x00220021 ; NYI
   840a8:	0022003c 	.inst	0x0022003c ; NYI
   840ac:	00210021 	.inst	0x00210021 ; NYI
   840b0:	003e0021 	.inst	0x003e0021 ; NYI
	...
   840c0:	0021001e 	.inst	0x0021001e ; NYI
   840c4:	00400040 	.inst	0x00400040 ; undefined
   840c8:	00400040 	.inst	0x00400040 ; undefined
   840cc:	00400040 	.inst	0x00400040 ; undefined
   840d0:	001e0021 	.inst	0x001e0021 ; undefined
	...
   840e0:	0022003c 	.inst	0x0022003c ; NYI
   840e4:	00210021 	.inst	0x00210021 ; NYI
   840e8:	00210021 	.inst	0x00210021 ; NYI
   840ec:	00210021 	.inst	0x00210021 ; NYI
   840f0:	003c0022 	.inst	0x003c0022 ; NYI
	...
   84100:	0020003f 	.inst	0x0020003f ; NYI
   84104:	00200020 	.inst	0x00200020 ; NYI
   84108:	0020003e 	.inst	0x0020003e ; NYI
   8410c:	00200020 	.inst	0x00200020 ; NYI
   84110:	003f0020 	.inst	0x003f0020 ; NYI
	...
   84120:	0020003f 	.inst	0x0020003f ; NYI
   84124:	00200020 	.inst	0x00200020 ; NYI
   84128:	003f0020 	.inst	0x003f0020 ; NYI
   8412c:	00200020 	.inst	0x00200020 ; NYI
   84130:	00200020 	.inst	0x00200020 ; NYI
	...
   84140:	0021001e 	.inst	0x0021001e ; NYI
   84144:	00400040 	.inst	0x00400040 ; undefined
   84148:	00410040 	.inst	0x00410040 ; undefined
   8414c:	00410041 	.inst	0x00410041 ; undefined
   84150:	001f0021 	.inst	0x001f0021 ; undefined
	...
   84160:	00410041 	.inst	0x00410041 ; undefined
   84164:	00410041 	.inst	0x00410041 ; undefined
   84168:	0041007f 	.inst	0x0041007f ; undefined
   8416c:	00410041 	.inst	0x00410041 ; undefined
   84170:	00410041 	.inst	0x00410041 ; undefined
	...
   84180:	0008003e 	.inst	0x0008003e ; undefined
   84184:	00080008 	.inst	0x00080008 ; undefined
   84188:	00080008 	.inst	0x00080008 ; undefined
   8418c:	00080008 	.inst	0x00080008 ; undefined
   84190:	003e0008 	.inst	0x003e0008 ; NYI
	...
   841a0:	0004003c 	.inst	0x0004003c ; undefined
   841a4:	00040004 	.inst	0x00040004 ; undefined
   841a8:	00040004 	.inst	0x00040004 ; undefined
   841ac:	00040004 	.inst	0x00040004 ; undefined
   841b0:	00700008 	.inst	0x00700008 ; undefined
	...
   841c0:	00220021 	.inst	0x00220021 ; NYI
   841c4:	00280024 	.inst	0x00280024 ; NYI
   841c8:	00280030 	.inst	0x00280030 ; NYI
   841cc:	00220024 	.inst	0x00220024 ; NYI
   841d0:	00210021 	.inst	0x00210021 ; NYI
	...
   841e0:	00200020 	.inst	0x00200020 ; NYI
   841e4:	00200020 	.inst	0x00200020 ; NYI
   841e8:	00200020 	.inst	0x00200020 ; NYI
   841ec:	00200020 	.inst	0x00200020 ; NYI
   841f0:	003f0020 	.inst	0x003f0020 ; NYI
	...
   84200:	00630063 	.inst	0x00630063 ; undefined
   84204:	00550055 	.inst	0x00550055 ; undefined
   84208:	00550055 	.inst	0x00550055 ; undefined
   8420c:	00490049 	.inst	0x00490049 ; undefined
   84210:	00410041 	.inst	0x00410041 ; undefined
	...
   84220:	00610061 	.inst	0x00610061 ; undefined
   84224:	00510051 	.inst	0x00510051 ; undefined
   84228:	00490049 	.inst	0x00490049 ; undefined
   8422c:	00450045 	.inst	0x00450045 ; undefined
   84230:	00430043 	.inst	0x00430043 ; undefined
	...
   84240:	0022001c 	.inst	0x0022001c ; NYI
   84244:	00410041 	.inst	0x00410041 ; undefined
   84248:	00410041 	.inst	0x00410041 ; undefined
   8424c:	00410041 	.inst	0x00410041 ; undefined
   84250:	001c0022 	.inst	0x001c0022 ; undefined
	...
   84260:	0021003e 	.inst	0x0021003e ; NYI
   84264:	00210021 	.inst	0x00210021 ; NYI
   84268:	003c0022 	.inst	0x003c0022 ; NYI
   8426c:	00200020 	.inst	0x00200020 ; NYI
   84270:	00200020 	.inst	0x00200020 ; NYI
	...
   84280:	0022001c 	.inst	0x0022001c ; NYI
   84284:	00410041 	.inst	0x00410041 ; undefined
   84288:	00410041 	.inst	0x00410041 ; undefined
   8428c:	00410041 	.inst	0x00410041 ; undefined
   84290:	001c0022 	.inst	0x001c0022 ; undefined
   84294:	80010002 	.inst	0x80010002 ; undefined
	...
   842a0:	0021003e 	.inst	0x0021003e ; NYI
   842a4:	00210021 	.inst	0x00210021 ; NYI
   842a8:	003c0022 	.inst	0x003c0022 ; NYI
   842ac:	00220022 	.inst	0x00220022 ; NYI
   842b0:	00210021 	.inst	0x00210021 ; NYI
	...
   842c0:	0041003e 	.inst	0x0041003e ; undefined
   842c4:	00400040 	.inst	0x00400040 ; undefined
   842c8:	000e0030 	.inst	0x000e0030 ; undefined
   842cc:	00010001 	.inst	0x00010001 ; undefined
   842d0:	003e0041 	.inst	0x003e0041 ; NYI
	...
   842e0:	0008007f 	.inst	0x0008007f ; undefined
   842e4:	00080008 	.inst	0x00080008 ; undefined
   842e8:	00080008 	.inst	0x00080008 ; undefined
   842ec:	00080008 	.inst	0x00080008 ; undefined
   842f0:	00080008 	.inst	0x00080008 ; undefined
	...
   84300:	00410041 	.inst	0x00410041 ; undefined
   84304:	00410041 	.inst	0x00410041 ; undefined
   84308:	00410041 	.inst	0x00410041 ; undefined
   8430c:	00410041 	.inst	0x00410041 ; undefined
   84310:	001c0022 	.inst	0x001c0022 ; undefined
	...
   84320:	00410041 	.inst	0x00410041 ; undefined
   84324:	00220041 	.inst	0x00220041 ; NYI
   84328:	00220022 	.inst	0x00220022 ; NYI
   8432c:	00140014 	.inst	0x00140014 ; undefined
   84330:	00080008 	.inst	0x00080008 ; undefined
	...
   84340:	00490041 	.inst	0x00490041 ; undefined
   84344:	00550049 	.inst	0x00550049 ; undefined
   84348:	00550055 	.inst	0x00550055 ; undefined
   8434c:	00220022 	.inst	0x00220022 ; NYI
   84350:	00220022 	.inst	0x00220022 ; NYI
	...
   84360:	00410041 	.inst	0x00410041 ; undefined
   84364:	00140022 	.inst	0x00140022 ; undefined
   84368:	00140008 	.inst	0x00140008 ; undefined
   8436c:	00220022 	.inst	0x00220022 ; NYI
   84370:	00410041 	.inst	0x00410041 ; undefined
	...
   84380:	00410041 	.inst	0x00410041 ; undefined
   84384:	00220022 	.inst	0x00220022 ; NYI
   84388:	0008001c 	.inst	0x0008001c ; undefined
   8438c:	00080008 	.inst	0x00080008 ; undefined
   84390:	00080008 	.inst	0x00080008 ; undefined
	...
   843a0:	0001007f 	.inst	0x0001007f ; undefined
   843a4:	00040002 	.inst	0x00040002 ; undefined
   843a8:	00100008 	.inst	0x00100008 ; undefined
   843ac:	00400020 	.inst	0x00400020 ; undefined
   843b0:	007f0040 	.inst	0x007f0040 ; undefined
	...
   843bc:	001e0000 	.inst	0x001e0000 ; undefined
   843c0:	00100010 	.inst	0x00100010 ; undefined
   843c4:	00100010 	.inst	0x00100010 ; undefined
   843c8:	00100010 	.inst	0x00100010 ; undefined
   843cc:	00100010 	.inst	0x00100010 ; undefined
   843d0:	00100010 	.inst	0x00100010 ; undefined
   843d4:	0000001e 	udf	#30
   843d8:	00000000 	udf	#0
   843dc:	00200000 	.inst	0x00200000 ; NYI
   843e0:	00100020 	.inst	0x00100020 ; undefined
   843e4:	00080010 	.inst	0x00080010 ; undefined
   843e8:	00040008 	.inst	0x00040008 ; undefined
   843ec:	00020004 	.inst	0x00020004 ; undefined
   843f0:	00010002 	.inst	0x00010002 ; undefined
   843f4:	00000001 	udf	#1
   843f8:	00000000 	udf	#0
   843fc:	003c0000 	.inst	0x003c0000 ; NYI
   84400:	00040004 	.inst	0x00040004 ; undefined
   84404:	00040004 	.inst	0x00040004 ; undefined
   84408:	00040004 	.inst	0x00040004 ; undefined
   8440c:	00040004 	.inst	0x00040004 ; undefined
   84410:	00040004 	.inst	0x00040004 ; undefined
   84414:	0000003c 	udf	#60
	...
   84420:	00080008 	.inst	0x00080008 ; undefined
   84424:	00140014 	.inst	0x00140014 ; undefined
   84428:	00220022 	.inst	0x00220022 ; NYI
   8442c:	00000022 	udf	#34
	...
   84454:	000080ff 	udf	#33023
   84458:	00000000 	udf	#0
   8445c:	00100000 	.inst	0x00100000 ; undefined
   84460:	00100010 	.inst	0x00100010 ; undefined
   84464:	0000000c 	udf	#12
	...
   84484:	0002003c 	.inst	0x0002003c ; undefined
   84488:	003e0002 	.inst	0x003e0002 ; NYI
   8448c:	00420042 	.inst	0x00420042 ; undefined
   84490:	80390046 	.inst	0x80390046 ; NYI
	...
   8449c:	00400000 	.inst	0x00400000 ; undefined
   844a0:	00400040 	.inst	0x00400040 ; undefined
   844a4:	0062005c 	.inst	0x0062005c ; undefined
   844a8:	00410041 	.inst	0x00410041 ; undefined
   844ac:	00410041 	.inst	0x00410041 ; undefined
   844b0:	007c0042 	.inst	0x007c0042 ; undefined
	...
   844c4:	0021001e 	.inst	0x0021001e ; NYI
   844c8:	00400040 	.inst	0x00400040 ; undefined
   844cc:	00400040 	.inst	0x00400040 ; undefined
   844d0:	001e0021 	.inst	0x001e0021 ; undefined
	...
   844dc:	00010000 	.inst	0x00010000 ; undefined
   844e0:	00010001 	.inst	0x00010001 ; undefined
   844e4:	0021001f 	.inst	0x0021001f ; NYI
   844e8:	00410041 	.inst	0x00410041 ; undefined
   844ec:	00410041 	.inst	0x00410041 ; undefined
   844f0:	001d0023 	.inst	0x001d0023 ; undefined
	...
   84504:	0021001e 	.inst	0x0021001e ; NYI
   84508:	007f0041 	.inst	0x007f0041 ; undefined
   8450c:	00400040 	.inst	0x00400040 ; undefined
   84510:	001e0021 	.inst	0x001e0021 ; undefined
	...
   8451c:	000f0000 	.inst	0x000f0000 ; undefined
   84520:	00100010 	.inst	0x00100010 ; undefined
   84524:	007f0010 	.inst	0x007f0010 ; undefined
   84528:	00100010 	.inst	0x00100010 ; undefined
   8452c:	00100010 	.inst	0x00100010 ; undefined
   84530:	00100010 	.inst	0x00100010 ; undefined
	...
   84544:	0021001f 	.inst	0x0021001f ; NYI
   84548:	00410041 	.inst	0x00410041 ; undefined
   8454c:	00230041 	.inst	0x00230041 ; NYI
   84550:	0001001d 	.inst	0x0001001d ; undefined
   84554:	003c0042 	.inst	0x003c0042 ; NYI
   84558:	00000000 	udf	#0
   8455c:	00400000 	.inst	0x00400000 ; undefined
   84560:	00400040 	.inst	0x00400040 ; undefined
   84564:	0053004e 	.inst	0x0053004e ; undefined
   84568:	00410061 	.inst	0x00410061 ; undefined
   8456c:	00410041 	.inst	0x00410041 ; undefined
   84570:	00410041 	.inst	0x00410041 ; undefined
	...
   8457c:	00040000 	.inst	0x00040000 ; undefined
   84580:	00000004 	udf	#4
   84584:	0004003c 	.inst	0x0004003c ; undefined
   84588:	00040004 	.inst	0x00040004 ; undefined
   8458c:	00040004 	.inst	0x00040004 ; undefined
   84590:	00040004 	.inst	0x00040004 ; undefined
	...
   8459c:	00040000 	.inst	0x00040000 ; undefined
   845a0:	00000004 	udf	#4
   845a4:	0004003c 	.inst	0x0004003c ; undefined
   845a8:	00040004 	.inst	0x00040004 ; undefined
   845ac:	00040004 	.inst	0x00040004 ; undefined
   845b0:	00040004 	.inst	0x00040004 ; undefined
   845b4:	00700008 	.inst	0x00700008 ; undefined
   845b8:	00000000 	udf	#0
   845bc:	00400000 	.inst	0x00400000 ; undefined
   845c0:	00400040 	.inst	0x00400040 ; undefined
   845c4:	00440042 	.inst	0x00440042 ; undefined
   845c8:	00700048 	.inst	0x00700048 ; undefined
   845cc:	00440048 	.inst	0x00440048 ; undefined
   845d0:	00410042 	.inst	0x00410042 ; undefined
	...
   845dc:	00780000 	.inst	0x00780000 ; undefined
   845e0:	00080008 	.inst	0x00080008 ; undefined
   845e4:	00080008 	.inst	0x00080008 ; undefined
   845e8:	00080008 	.inst	0x00080008 ; undefined
   845ec:	00080008 	.inst	0x00080008 ; undefined
   845f0:	00080008 	.inst	0x00080008 ; undefined
	...
   84604:	006d0052 	.inst	0x006d0052 ; undefined
   84608:	00490049 	.inst	0x00490049 ; undefined
   8460c:	00490049 	.inst	0x00490049 ; undefined
   84610:	00490049 	.inst	0x00490049 ; undefined
	...
   84624:	0053004e 	.inst	0x0053004e ; undefined
   84628:	00410061 	.inst	0x00410061 ; undefined
   8462c:	00410041 	.inst	0x00410041 ; undefined
   84630:	00410041 	.inst	0x00410041 ; undefined
	...
   84644:	0022001c 	.inst	0x0022001c ; NYI
   84648:	00410041 	.inst	0x00410041 ; undefined
   8464c:	00410041 	.inst	0x00410041 ; undefined
   84650:	001c0022 	.inst	0x001c0022 ; undefined
	...
   84664:	0052004c 	.inst	0x0052004c ; undefined
   84668:	00410061 	.inst	0x00410061 ; undefined
   8466c:	00410041 	.inst	0x00410041 ; undefined
   84670:	007c0042 	.inst	0x007c0042 ; undefined
   84674:	00400040 	.inst	0x00400040 ; undefined
	...
   84684:	0021001f 	.inst	0x0021001f ; NYI
   84688:	00410041 	.inst	0x00410041 ; undefined
   8468c:	00430041 	.inst	0x00430041 ; undefined
   84690:	00190025 	.inst	0x00190025 ; undefined
   84694:	00010001 	.inst	0x00010001 ; undefined
	...
   846a4:	002d0023 	.inst	0x002d0023 ; NYI
   846a8:	00200030 	.inst	0x00200030 ; NYI
   846ac:	00200020 	.inst	0x00200020 ; NYI
   846b0:	00200020 	.inst	0x00200020 ; NYI
	...
   846c4:	0041003e 	.inst	0x0041003e ; undefined
   846c8:	00380040 	.inst	0x00380040 ; NYI
   846cc:	00010006 	.inst	0x00010006 ; undefined
   846d0:	003e0041 	.inst	0x003e0041 ; NYI
	...
   846e0:	00080008 	.inst	0x00080008 ; undefined
   846e4:	0008007f 	.inst	0x0008007f ; undefined
   846e8:	00080008 	.inst	0x00080008 ; undefined
   846ec:	00080008 	.inst	0x00080008 ; undefined
   846f0:	00070008 	.inst	0x00070008 ; undefined
	...
   84704:	00410041 	.inst	0x00410041 ; undefined
   84708:	00410041 	.inst	0x00410041 ; undefined
   8470c:	00430041 	.inst	0x00430041 ; undefined
   84710:	00390065 	.inst	0x00390065 ; NYI
	...
   84724:	00410041 	.inst	0x00410041 ; undefined
   84728:	00220022 	.inst	0x00220022 ; NYI
   8472c:	00140014 	.inst	0x00140014 ; undefined
   84730:	00080008 	.inst	0x00080008 ; undefined
	...
   84744:	00490041 	.inst	0x00490041 ; undefined
   84748:	00550049 	.inst	0x00550049 ; undefined
   8474c:	00220055 	.inst	0x00220055 ; NYI
   84750:	00220022 	.inst	0x00220022 ; NYI
	...
   84764:	00220041 	.inst	0x00220041 ; NYI
   84768:	00080014 	.inst	0x00080014 ; undefined
   8476c:	00220014 	.inst	0x00220014 ; NYI
   84770:	00410041 	.inst	0x00410041 ; undefined
	...
   84784:	00410041 	.inst	0x00410041 ; undefined
   84788:	00220022 	.inst	0x00220022 ; NYI
   8478c:	00140014 	.inst	0x00140014 ; undefined
   84790:	00080008 	.inst	0x00080008 ; undefined
   84794:	00300010 	.inst	0x00300010 ; NYI
	...
   847a4:	0002007f 	.inst	0x0002007f ; undefined
   847a8:	00080004 	.inst	0x00080004 ; undefined
   847ac:	00200010 	.inst	0x00200010 ; NYI
   847b0:	007f0040 	.inst	0x007f0040 ; undefined
	...
   847bc:	000f0000 	.inst	0x000f0000 ; undefined
   847c0:	00100010 	.inst	0x00100010 ; undefined
   847c4:	00040008 	.inst	0x00040008 ; undefined
   847c8:	00040038 	.inst	0x00040038 ; undefined
   847cc:	00100008 	.inst	0x00100008 ; undefined
   847d0:	00100010 	.inst	0x00100010 ; undefined
   847d4:	0000000f 	udf	#15
   847d8:	00000000 	udf	#0
   847dc:	00080000 	.inst	0x00080000 ; undefined
   847e0:	00080008 	.inst	0x00080008 ; undefined
   847e4:	00080008 	.inst	0x00080008 ; undefined
   847e8:	00080008 	.inst	0x00080008 ; undefined
   847ec:	00080008 	.inst	0x00080008 ; undefined
   847f0:	00080008 	.inst	0x00080008 ; undefined
   847f4:	00000008 	udf	#8
   847f8:	00000000 	udf	#0
   847fc:	00780000 	.inst	0x00780000 ; undefined
   84800:	00040004 	.inst	0x00040004 ; undefined
   84804:	00100008 	.inst	0x00100008 ; undefined
   84808:	0010000e 	.inst	0x0010000e ; undefined
   8480c:	00040008 	.inst	0x00040008 ; undefined
   84810:	00040004 	.inst	0x00040004 ; undefined
   84814:	00000078 	udf	#120
	...
   84828:	00490031 	.inst	0x00490031 ; undefined
   8482c:	00000046 	udf	#70
	...
   84848:	00180000 	.inst	0x00180000 ; undefined
   8484c:	00000018 	udf	#24
	...
   84858:	00300000 	.inst	0x00300000 ; NYI
   8485c:	0000000c 	udf	#12
   84860:	00080008 	.inst	0x00080008 ; undefined
   84864:	00140014 	.inst	0x00140014 ; undefined
   84868:	00220022 	.inst	0x00220022 ; NYI
   8486c:	0041007f 	.inst	0x0041007f ; undefined
   84870:	00410041 	.inst	0x00410041 ; undefined
   84874:	00000000 	udf	#0
   84878:	00060000 	.inst	0x00060000 ; undefined
   8487c:	00000018 	udf	#24
   84880:	00080008 	.inst	0x00080008 ; undefined
   84884:	00140014 	.inst	0x00140014 ; undefined
   84888:	00220022 	.inst	0x00220022 ; NYI
   8488c:	0041007f 	.inst	0x0041007f ; undefined
   84890:	00410041 	.inst	0x00410041 ; undefined
   84894:	00000000 	udf	#0
   84898:	000c0000 	.inst	0x000c0000 ; undefined
   8489c:	00000012 	udf	#18
   848a0:	00080008 	.inst	0x00080008 ; undefined
   848a4:	00140014 	.inst	0x00140014 ; undefined
   848a8:	00220022 	.inst	0x00220022 ; NYI
   848ac:	0041007f 	.inst	0x0041007f ; undefined
   848b0:	00410041 	.inst	0x00410041 ; undefined
   848b4:	00000000 	udf	#0
   848b8:	000d0000 	.inst	0x000d0000 ; undefined
   848bc:	00000016 	udf	#22
   848c0:	00080008 	.inst	0x00080008 ; undefined
   848c4:	00140014 	.inst	0x00140014 ; undefined
   848c8:	00220022 	.inst	0x00220022 ; NYI
   848cc:	0041007f 	.inst	0x0041007f ; undefined
   848d0:	00410041 	.inst	0x00410041 ; undefined
   848d4:	00000000 	udf	#0
   848d8:	00220000 	.inst	0x00220000 ; NYI
   848dc:	00000022 	udf	#34
   848e0:	00080008 	.inst	0x00080008 ; undefined
   848e4:	00140014 	.inst	0x00140014 ; undefined
   848e8:	00220022 	.inst	0x00220022 ; NYI
   848ec:	0041007f 	.inst	0x0041007f ; undefined
   848f0:	00410041 	.inst	0x00410041 ; undefined
	...
   848fc:	00140008 	.inst	0x00140008 ; undefined
   84900:	00080008 	.inst	0x00080008 ; undefined
   84904:	00140014 	.inst	0x00140014 ; undefined
   84908:	00220022 	.inst	0x00220022 ; NYI
   8490c:	0041007f 	.inst	0x0041007f ; undefined
   84910:	00410041 	.inst	0x00410041 ; undefined
	...
   84920:	000c800f 	.inst	0x000c800f ; undefined
   84924:	00140014 	.inst	0x00140014 ; undefined
   84928:	00240027 	.inst	0x00240027 ; NYI
   8492c:	0044003c 	.inst	0x0044003c ; undefined
   84930:	80470044 	.inst	0x80470044 ; undefined
	...
   84940:	0021001e 	.inst	0x0021001e ; NYI
   84944:	00400040 	.inst	0x00400040 ; undefined
   84948:	00400040 	.inst	0x00400040 ; undefined
   8494c:	00400040 	.inst	0x00400040 ; undefined
   84950:	001e0021 	.inst	0x001e0021 ; undefined
   84954:	00180004 	.inst	0x00180004 ; undefined
   84958:	00180000 	.inst	0x00180000 ; undefined
   8495c:	00000006 	udf	#6
   84960:	0020003f 	.inst	0x0020003f ; NYI
   84964:	00200020 	.inst	0x00200020 ; NYI
   84968:	0020003e 	.inst	0x0020003e ; NYI
   8496c:	00200020 	.inst	0x00200020 ; NYI
   84970:	003f0020 	.inst	0x003f0020 ; NYI
   84974:	00000000 	udf	#0
   84978:	00060000 	.inst	0x00060000 ; undefined
   8497c:	00000018 	udf	#24
   84980:	0020003f 	.inst	0x0020003f ; NYI
   84984:	00200020 	.inst	0x00200020 ; NYI
   84988:	0020003e 	.inst	0x0020003e ; NYI
   8498c:	00200020 	.inst	0x00200020 ; NYI
   84990:	003f0020 	.inst	0x003f0020 ; NYI
   84994:	00000000 	udf	#0
   84998:	000c0000 	.inst	0x000c0000 ; undefined
   8499c:	00000012 	udf	#18
   849a0:	0020003f 	.inst	0x0020003f ; NYI
   849a4:	00200020 	.inst	0x00200020 ; NYI
   849a8:	0020003e 	.inst	0x0020003e ; NYI
   849ac:	00200020 	.inst	0x00200020 ; NYI
   849b0:	003f0020 	.inst	0x003f0020 ; NYI
   849b4:	00000000 	udf	#0
   849b8:	00120000 	.inst	0x00120000 ; undefined
   849bc:	00000012 	udf	#18
   849c0:	0020003f 	.inst	0x0020003f ; NYI
   849c4:	00200020 	.inst	0x00200020 ; NYI
   849c8:	0020003e 	.inst	0x0020003e ; NYI
   849cc:	00200020 	.inst	0x00200020 ; NYI
   849d0:	003f0020 	.inst	0x003f0020 ; NYI
   849d4:	00000000 	udf	#0
   849d8:	00300000 	.inst	0x00300000 ; NYI
   849dc:	0000000c 	udf	#12
   849e0:	0008003e 	.inst	0x0008003e ; undefined
   849e4:	00080008 	.inst	0x00080008 ; undefined
   849e8:	00080008 	.inst	0x00080008 ; undefined
   849ec:	00080008 	.inst	0x00080008 ; undefined
   849f0:	003e0008 	.inst	0x003e0008 ; NYI
   849f4:	00000000 	udf	#0
   849f8:	00060000 	.inst	0x00060000 ; undefined
   849fc:	00000018 	udf	#24
   84a00:	0008003e 	.inst	0x0008003e ; undefined
   84a04:	00080008 	.inst	0x00080008 ; undefined
   84a08:	00080008 	.inst	0x00080008 ; undefined
   84a0c:	00080008 	.inst	0x00080008 ; undefined
   84a10:	003e0008 	.inst	0x003e0008 ; NYI
   84a14:	00000000 	udf	#0
   84a18:	000c0000 	.inst	0x000c0000 ; undefined
   84a1c:	00000012 	udf	#18
   84a20:	0008003e 	.inst	0x0008003e ; undefined
   84a24:	00080008 	.inst	0x00080008 ; undefined
   84a28:	00080008 	.inst	0x00080008 ; undefined
   84a2c:	00080008 	.inst	0x00080008 ; undefined
   84a30:	003e0008 	.inst	0x003e0008 ; NYI
   84a34:	00000000 	udf	#0
   84a38:	00220000 	.inst	0x00220000 ; NYI
   84a3c:	00000022 	udf	#34
   84a40:	0008003e 	.inst	0x0008003e ; undefined
   84a44:	00080008 	.inst	0x00080008 ; undefined
   84a48:	00080008 	.inst	0x00080008 ; undefined
   84a4c:	00080008 	.inst	0x00080008 ; undefined
   84a50:	003e0008 	.inst	0x003e0008 ; NYI
	...
   84a60:	0022003c 	.inst	0x0022003c ; NYI
   84a64:	00210021 	.inst	0x00210021 ; NYI
   84a68:	002100f9 	.inst	0x002100f9 ; NYI
   84a6c:	00210021 	.inst	0x00210021 ; NYI
   84a70:	003c0022 	.inst	0x003c0022 ; NYI
   84a74:	00000000 	udf	#0
   84a78:	001a0000 	.inst	0x001a0000 ; undefined
   84a7c:	0000002c 	udf	#44
   84a80:	00610061 	.inst	0x00610061 ; undefined
   84a84:	00510051 	.inst	0x00510051 ; undefined
   84a88:	00490049 	.inst	0x00490049 ; undefined
   84a8c:	00450045 	.inst	0x00450045 ; undefined
   84a90:	00430043 	.inst	0x00430043 ; undefined
   84a94:	00000000 	udf	#0
   84a98:	00300000 	.inst	0x00300000 ; NYI
   84a9c:	0000000c 	udf	#12
   84aa0:	0022001c 	.inst	0x0022001c ; NYI
   84aa4:	00410041 	.inst	0x00410041 ; undefined
   84aa8:	00410041 	.inst	0x00410041 ; undefined
   84aac:	00410041 	.inst	0x00410041 ; undefined
   84ab0:	001c0022 	.inst	0x001c0022 ; undefined
   84ab4:	00000000 	udf	#0
   84ab8:	00060000 	.inst	0x00060000 ; undefined
   84abc:	00000018 	udf	#24
   84ac0:	0022001c 	.inst	0x0022001c ; NYI
   84ac4:	00410041 	.inst	0x00410041 ; undefined
   84ac8:	00410041 	.inst	0x00410041 ; undefined
   84acc:	00410041 	.inst	0x00410041 ; undefined
   84ad0:	001c0022 	.inst	0x001c0022 ; undefined
   84ad4:	00000000 	udf	#0
   84ad8:	000c0000 	.inst	0x000c0000 ; undefined
   84adc:	00000012 	udf	#18
   84ae0:	0022001c 	.inst	0x0022001c ; NYI
   84ae4:	00410041 	.inst	0x00410041 ; undefined
   84ae8:	00410041 	.inst	0x00410041 ; undefined
   84aec:	00410041 	.inst	0x00410041 ; undefined
   84af0:	001c0022 	.inst	0x001c0022 ; undefined
   84af4:	00000000 	udf	#0
   84af8:	001a0000 	.inst	0x001a0000 ; undefined
   84afc:	0000002c 	udf	#44
   84b00:	0022001c 	.inst	0x0022001c ; NYI
   84b04:	00410041 	.inst	0x00410041 ; undefined
   84b08:	00410041 	.inst	0x00410041 ; undefined
   84b0c:	00410041 	.inst	0x00410041 ; undefined
   84b10:	001c0022 	.inst	0x001c0022 ; undefined
   84b14:	00000000 	udf	#0
   84b18:	00220000 	.inst	0x00220000 ; NYI
   84b1c:	00000022 	udf	#34
   84b20:	0022001c 	.inst	0x0022001c ; NYI
   84b24:	00410041 	.inst	0x00410041 ; undefined
   84b28:	00410041 	.inst	0x00410041 ; undefined
   84b2c:	00410041 	.inst	0x00410041 ; undefined
   84b30:	001c0022 	.inst	0x001c0022 ; undefined
	...
   84b44:	00120021 	.inst	0x00120021 ; undefined
   84b48:	000c000c 	.inst	0x000c000c ; undefined
   84b4c:	00210012 	.inst	0x00210012 ; NYI
	...
   84b60:	0022001d 	.inst	0x0022001d ; NYI
   84b64:	00450045 	.inst	0x00450045 ; undefined
   84b68:	00490049 	.inst	0x00490049 ; undefined
   84b6c:	00510051 	.inst	0x00510051 ; undefined
   84b70:	005c0022 	.inst	0x005c0022 ; undefined
   84b74:	00000000 	udf	#0
   84b78:	00300000 	.inst	0x00300000 ; NYI
   84b7c:	0000000c 	udf	#12
   84b80:	00410041 	.inst	0x00410041 ; undefined
   84b84:	00410041 	.inst	0x00410041 ; undefined
   84b88:	00410041 	.inst	0x00410041 ; undefined
   84b8c:	00410041 	.inst	0x00410041 ; undefined
   84b90:	001c0022 	.inst	0x001c0022 ; undefined
   84b94:	00000000 	udf	#0
   84b98:	00060000 	.inst	0x00060000 ; undefined
   84b9c:	00000018 	udf	#24
   84ba0:	00410041 	.inst	0x00410041 ; undefined
   84ba4:	00410041 	.inst	0x00410041 ; undefined
   84ba8:	00410041 	.inst	0x00410041 ; undefined
   84bac:	00410041 	.inst	0x00410041 ; undefined
   84bb0:	001c0022 	.inst	0x001c0022 ; undefined
   84bb4:	00000000 	udf	#0
   84bb8:	000c0000 	.inst	0x000c0000 ; undefined
   84bbc:	00000012 	udf	#18
   84bc0:	00410041 	.inst	0x00410041 ; undefined
   84bc4:	00410041 	.inst	0x00410041 ; undefined
   84bc8:	00410041 	.inst	0x00410041 ; undefined
   84bcc:	00410041 	.inst	0x00410041 ; undefined
   84bd0:	001c0022 	.inst	0x001c0022 ; undefined
   84bd4:	00000000 	udf	#0
   84bd8:	00220000 	.inst	0x00220000 ; NYI
   84bdc:	00000022 	udf	#34
   84be0:	00410041 	.inst	0x00410041 ; undefined
   84be4:	00410041 	.inst	0x00410041 ; undefined
   84be8:	00410041 	.inst	0x00410041 ; undefined
   84bec:	00410041 	.inst	0x00410041 ; undefined
   84bf0:	001c0022 	.inst	0x001c0022 ; undefined
   84bf4:	00000000 	udf	#0
   84bf8:	00060000 	.inst	0x00060000 ; undefined
   84bfc:	00000018 	udf	#24
   84c00:	00410041 	.inst	0x00410041 ; undefined
   84c04:	00220022 	.inst	0x00220022 ; NYI
   84c08:	0008001c 	.inst	0x0008001c ; undefined
   84c0c:	00080008 	.inst	0x00080008 ; undefined
   84c10:	00080008 	.inst	0x00080008 ; undefined
	...
   84c20:	00200020 	.inst	0x00200020 ; NYI
   84c24:	0021003e 	.inst	0x0021003e ; NYI
   84c28:	00210021 	.inst	0x00210021 ; NYI
   84c2c:	003c0022 	.inst	0x003c0022 ; NYI
   84c30:	00200020 	.inst	0x00200020 ; NYI
	...
   84c3c:	001c0000 	.inst	0x001c0000 ; undefined
   84c40:	00220022 	.inst	0x00220022 ; NYI
   84c44:	00280024 	.inst	0x00280024 ; NYI
   84c48:	00210026 	.inst	0x00210026 ; NYI
   84c4c:	00210021 	.inst	0x00210021 ; NYI
   84c50:	002e0021 	.inst	0x002e0021 ; NYI
   84c54:	00000000 	udf	#0
   84c58:	80aa4055 	.inst	0x80aa4055 ; undefined
   84c5c:	80aa4055 	.inst	0x80aa4055 ; undefined
   84c60:	80aa4055 	.inst	0x80aa4055 ; undefined
   84c64:	80aa4055 	.inst	0x80aa4055 ; undefined
   84c68:	80aa4055 	.inst	0x80aa4055 ; undefined
   84c6c:	80aa4055 	.inst	0x80aa4055 ; undefined
   84c70:	80aa4055 	.inst	0x80aa4055 ; undefined
   84c74:	80aa4055 	.inst	0x80aa4055 ; undefined
	...
   84c84:	00080008 	.inst	0x00080008 ; undefined
   84c88:	00080000 	.inst	0x00080000 ; undefined
   84c8c:	00080008 	.inst	0x00080008 ; undefined
   84c90:	00080008 	.inst	0x00080008 ; undefined
   84c94:	00080008 	.inst	0x00080008 ; undefined
   84c98:	00000000 	udf	#0
   84c9c:	00080000 	.inst	0x00080000 ; undefined
   84ca0:	001e0008 	.inst	0x001e0008 ; undefined
   84ca4:	00480029 	.inst	0x00480029 ; undefined
   84ca8:	00480048 	.inst	0x00480048 ; undefined
   84cac:	00290048 	.inst	0x00290048 ; NYI
   84cb0:	0008001e 	.inst	0x0008001e ; undefined
   84cb4:	00000008 	udf	#8
	...
   84cc0:	0011000e 	.inst	0x0011000e ; undefined
   84cc4:	00100010 	.inst	0x00100010 ; undefined
   84cc8:	0010007e 	.inst	0x0010007e ; undefined
   84ccc:	00100010 	.inst	0x00100010 ; undefined
   84cd0:	007f0020 	.inst	0x007f0020 ; undefined
	...
   84ce0:	8010000f 	.inst	0x8010000f ; undefined
   84ce4:	00fe0020 	.inst	0x00fe0020 ; undefined
   84ce8:	00fc0020 	.inst	0x00fc0020 ; undefined
   84cec:	00200020 	.inst	0x00200020 ; NYI
   84cf0:	000f8010 	.inst	0x000f8010 ; undefined
	...
   84d00:	00410041 	.inst	0x00410041 ; undefined
   84d04:	00220022 	.inst	0x00220022 ; NYI
   84d08:	003e001c 	.inst	0x003e001c ; NYI
   84d0c:	003e0008 	.inst	0x003e0008 ; NYI
   84d10:	00080008 	.inst	0x00080008 ; undefined
   84d14:	00000000 	udf	#0
   84d18:	00120000 	.inst	0x00120000 ; undefined
   84d1c:	0000000c 	udf	#12
   84d20:	0041003e 	.inst	0x0041003e ; undefined
   84d24:	00400040 	.inst	0x00400040 ; undefined
   84d28:	000e0030 	.inst	0x000e0030 ; undefined
   84d2c:	00010001 	.inst	0x00010001 ; undefined
   84d30:	003e0041 	.inst	0x003e0041 ; NYI
	...
   84d40:	0022001c 	.inst	0x0022001c ; NYI
   84d44:	00180020 	.inst	0x00180020 ; undefined
   84d48:	00220024 	.inst	0x00220024 ; NYI
   84d4c:	000c0012 	.inst	0x000c0012 ; undefined
   84d50:	00220002 	.inst	0x00220002 ; NYI
   84d54:	0000001c 	udf	#28
   84d58:	00000000 	udf	#0
   84d5c:	00120000 	.inst	0x00120000 ; undefined
   84d60:	0000000c 	udf	#12
   84d64:	0041003e 	.inst	0x0041003e ; undefined
   84d68:	00380040 	.inst	0x00380040 ; NYI
   84d6c:	00010006 	.inst	0x00010006 ; undefined
   84d70:	003e0041 	.inst	0x003e0041 ; NYI
	...
   84d80:	0021001e 	.inst	0x0021001e ; NYI
   84d84:	8050804e 	.inst	0x8050804e ; undefined
   84d88:	80508050 	.inst	0x80508050 ; undefined
   84d8c:	804e8050 	.inst	0x804e8050 ; undefined
   84d90:	001e0021 	.inst	0x001e0021 ; undefined
	...
   84da0:	00040038 	.inst	0x00040038 ; undefined
   84da4:	003c0004 	.inst	0x003c0004 ; NYI
   84da8:	004c0044 	.inst	0x004c0044 ; undefined
   84dac:	00000032 	udf	#50
	...
   84dc4:	00110000 	.inst	0x00110000 ; undefined
   84dc8:	00440022 	.inst	0x00440022 ; undefined
   84dcc:	00110022 	.inst	0x00110022 ; undefined
	...
   84de8:	0001007f 	.inst	0x0001007f ; undefined
   84dec:	00000001 	udf	#1
	...
   84e00:	80800000 	.inst	0x80800000 ; undefined
   84e04:	003e0041 	.inst	0x003e0041 ; NYI
   84e08:	00220022 	.inst	0x00220022 ; NYI
   84e0c:	003e0022 	.inst	0x003e0022 ; NYI
   84e10:	80800041 	.inst	0x80800041 ; undefined
	...
   84e20:	0021001e 	.inst	0x0021001e ; NYI
   84e24:	8052805c 	.inst	0x8052805c ; undefined
   84e28:	8052805c 	.inst	0x8052805c ; undefined
   84e2c:	001e0021 	.inst	0x001e0021 ; undefined
	...
   84e3c:	001c0000 	.inst	0x001c0000 ; undefined
	...
   84e60:	00240018 	.inst	0x00240018 ; NYI
   84e64:	00180024 	.inst	0x00180024 ; undefined
	...
   84e84:	00080008 	.inst	0x00080008 ; undefined
   84e88:	0008007f 	.inst	0x0008007f ; undefined
   84e8c:	00000008 	udf	#8
   84e90:	0000007f 	udf	#127
	...
   84ea0:	0002003c 	.inst	0x0002003c ; undefined
   84ea4:	000c0002 	.inst	0x000c0002 ; undefined
   84ea8:	00200010 	.inst	0x00200010 ; NYI
   84eac:	0000003e 	udf	#62
	...
   84ec0:	0002003c 	.inst	0x0002003c ; undefined
   84ec4:	001c0002 	.inst	0x001c0002 ; undefined
   84ec8:	00020002 	.inst	0x00020002 ; undefined
   84ecc:	0000003c 	udf	#60
	...
   84ed8:	00120000 	.inst	0x00120000 ; undefined
   84edc:	0000000c 	udf	#12
   84ee0:	0001007f 	.inst	0x0001007f ; undefined
   84ee4:	00040002 	.inst	0x00040002 ; undefined
   84ee8:	00100008 	.inst	0x00100008 ; undefined
   84eec:	00400020 	.inst	0x00400020 ; undefined
   84ef0:	007f0040 	.inst	0x007f0040 ; undefined
	...
   84f04:	00410041 	.inst	0x00410041 ; undefined
   84f08:	00410041 	.inst	0x00410041 ; undefined
   84f0c:	00430041 	.inst	0x00430041 ; undefined
   84f10:	00590065 	.inst	0x00590065 ; undefined
   84f14:	00400040 	.inst	0x00400040 ; undefined
	...
   84f20:	004a003e 	.inst	0x004a003e ; undefined
   84f24:	004a004a 	.inst	0x004a004a ; undefined
   84f28:	000a003a 	.inst	0x000a003a ; undefined
   84f2c:	000a000a 	.inst	0x000a000a ; undefined
   84f30:	000a000a 	.inst	0x000a000a ; undefined
   84f34:	0000000a 	udf	#10
	...
   84f48:	00080000 	.inst	0x00080000 ; undefined
   84f4c:	00000008 	udf	#8
	...
   84f5c:	00120000 	.inst	0x00120000 ; undefined
   84f60:	0000000c 	udf	#12
   84f64:	0002007f 	.inst	0x0002007f ; undefined
   84f68:	00080004 	.inst	0x00080004 ; undefined
   84f6c:	00200010 	.inst	0x00200010 ; NYI
   84f70:	007f0040 	.inst	0x007f0040 ; undefined
	...
   84f80:	00280018 	.inst	0x00280018 ; NYI
   84f84:	00080008 	.inst	0x00080008 ; undefined
   84f88:	00080008 	.inst	0x00080008 ; undefined
   84f8c:	0000003e 	udf	#62
	...
   84fa0:	00240018 	.inst	0x00240018 ; NYI
   84fa4:	00420042 	.inst	0x00420042 ; undefined
   84fa8:	00240042 	.inst	0x00240042 ; NYI
   84fac:	00000018 	udf	#24
	...
   84fc4:	00440000 	.inst	0x00440000 ; undefined
   84fc8:	00110022 	.inst	0x00110022 ; undefined
   84fcc:	00440022 	.inst	0x00440022 ; undefined
	...
   84fe0:	0024801f 	.inst	0x0024801f ; NYI
   84fe4:	00440044 	.inst	0x00440044 ; undefined
   84fe8:	00448047 	.inst	0x00448047 ; undefined
   84fec:	00440044 	.inst	0x00440044 ; undefined
   84ff0:	801f0024 	.inst	0x801f0024 ; undefined
	...
   85004:	00490036 	.inst	0x00490036 ; undefined
   85008:	004f0049 	.inst	0x004f0049 ; undefined
   8500c:	00480048 	.inst	0x00480048 ; undefined
   85010:	0036004d 	.inst	0x0036004d ; NYI
   85014:	00000000 	udf	#0
   85018:	00220000 	.inst	0x00220000 ; NYI
   8501c:	00000022 	udf	#34
   85020:	00410041 	.inst	0x00410041 ; undefined
   85024:	00220022 	.inst	0x00220022 ; NYI
   85028:	0008001c 	.inst	0x0008001c ; undefined
   8502c:	00080008 	.inst	0x00080008 ; undefined
   85030:	00080008 	.inst	0x00080008 ; undefined
	...
   85044:	00040004 	.inst	0x00040004 ; undefined
   85048:	00040000 	.inst	0x00040000 ; undefined
   8504c:	00100008 	.inst	0x00100008 ; undefined
   85050:	00200020 	.inst	0x00200020 ; NYI
   85054:	001e0021 	.inst	0x001e0021 ; undefined
	...
   85068:	0000c0ff 	udf	#49407
	...
   85078:	00080008 	.inst	0x00080008 ; undefined
   8507c:	00080008 	.inst	0x00080008 ; undefined
   85080:	00080008 	.inst	0x00080008 ; undefined
   85084:	00080008 	.inst	0x00080008 ; undefined
   85088:	00080008 	.inst	0x00080008 ; undefined
   8508c:	00080008 	.inst	0x00080008 ; undefined
   85090:	00080008 	.inst	0x00080008 ; undefined
   85094:	00080008 	.inst	0x00080008 ; undefined
	...
   850a8:	0008c00f 	.inst	0x0008c00f ; undefined
   850ac:	00080008 	.inst	0x00080008 ; undefined
   850b0:	00080008 	.inst	0x00080008 ; undefined
   850b4:	00080008 	.inst	0x00080008 ; undefined
	...
   850c8:	000800f8 	.inst	0x000800f8 ; undefined
   850cc:	00080008 	.inst	0x00080008 ; undefined
   850d0:	00080008 	.inst	0x00080008 ; undefined
   850d4:	00080008 	.inst	0x00080008 ; undefined
   850d8:	00080008 	.inst	0x00080008 ; undefined
   850dc:	00080008 	.inst	0x00080008 ; undefined
   850e0:	00080008 	.inst	0x00080008 ; undefined
   850e4:	00080008 	.inst	0x00080008 ; undefined
   850e8:	0000c00f 	udf	#49167
	...
   850f8:	00080008 	.inst	0x00080008 ; undefined
   850fc:	00080008 	.inst	0x00080008 ; undefined
   85100:	00080008 	.inst	0x00080008 ; undefined
   85104:	00080008 	.inst	0x00080008 ; undefined
   85108:	000000f8 	udf	#248
	...
   85118:	00080008 	.inst	0x00080008 ; undefined
   8511c:	00080008 	.inst	0x00080008 ; undefined
   85120:	00080008 	.inst	0x00080008 ; undefined
   85124:	00080008 	.inst	0x00080008 ; undefined
   85128:	0008c00f 	.inst	0x0008c00f ; undefined
   8512c:	00080008 	.inst	0x00080008 ; undefined
   85130:	00080008 	.inst	0x00080008 ; undefined
   85134:	00080008 	.inst	0x00080008 ; undefined
   85138:	00080008 	.inst	0x00080008 ; undefined
   8513c:	00080008 	.inst	0x00080008 ; undefined
   85140:	00080008 	.inst	0x00080008 ; undefined
   85144:	00080008 	.inst	0x00080008 ; undefined
   85148:	000800f8 	.inst	0x000800f8 ; undefined
   8514c:	00080008 	.inst	0x00080008 ; undefined
   85150:	00080008 	.inst	0x00080008 ; undefined
   85154:	00080008 	.inst	0x00080008 ; undefined
	...
   85168:	0008c0ff 	.inst	0x0008c0ff ; undefined
   8516c:	00080008 	.inst	0x00080008 ; undefined
   85170:	00080008 	.inst	0x00080008 ; undefined
   85174:	00080008 	.inst	0x00080008 ; undefined
   85178:	00080008 	.inst	0x00080008 ; undefined
   8517c:	00080008 	.inst	0x00080008 ; undefined
   85180:	00080008 	.inst	0x00080008 ; undefined
   85184:	00080008 	.inst	0x00080008 ; undefined
   85188:	0000c0ff 	udf	#49407
	...
   85198:	00080008 	.inst	0x00080008 ; undefined
   8519c:	00080008 	.inst	0x00080008 ; undefined
   851a0:	00080008 	.inst	0x00080008 ; undefined
   851a4:	00080008 	.inst	0x00080008 ; undefined
   851a8:	0008c0ff 	.inst	0x0008c0ff ; undefined
   851ac:	00080008 	.inst	0x00080008 ; undefined
   851b0:	00080008 	.inst	0x00080008 ; undefined
   851b4:	00080008 	.inst	0x00080008 ; undefined
   851b8:	00004055 	udf	#16469
   851bc:	000080aa 	udf	#32938
   851c0:	00004055 	udf	#16469
   851c4:	000080aa 	udf	#32938
   851c8:	00004055 	udf	#16469
   851cc:	000080aa 	udf	#32938
   851d0:	00004055 	udf	#16469
   851d4:	000080aa 	udf	#32938
   851d8:	0000c0ff 	udf	#49407
	...
   85200:	0000c0ff 	udf	#49407
	...
   85230:	c0ff0000 	.inst	0xc0ff0000 ; undefined
	...
   85254:	c0ff0000 	.inst	0xc0ff0000 ; undefined
	...
   85264:	c0ff0000 	.inst	0xc0ff0000 ; undefined
   85268:	c0ff0000 	.inst	0xc0ff0000 ; undefined
	...
   85278:	00140014 	.inst	0x00140014 ; undefined
   8527c:	00140014 	.inst	0x00140014 ; undefined
   85280:	00140014 	.inst	0x00140014 ; undefined
   85284:	00140014 	.inst	0x00140014 ; undefined
   85288:	00140014 	.inst	0x00140014 ; undefined
   8528c:	00140014 	.inst	0x00140014 ; undefined
   85290:	00140014 	.inst	0x00140014 ; undefined
   85294:	00140014 	.inst	0x00140014 ; undefined
	...
   852a4:	c01f0000 	.inst	0xc01f0000 ; undefined
   852a8:	c0170010 	.inst	0xc0170010 ; undefined
   852ac:	00140014 	.inst	0x00140014 ; undefined
   852b0:	00140014 	.inst	0x00140014 ; undefined
   852b4:	00140014 	.inst	0x00140014 ; undefined
	...
   852c4:	00fc0000 	.inst	0x00fc0000 ; undefined
   852c8:	00f40004 	.inst	0x00f40004 ; undefined
   852cc:	00140014 	.inst	0x00140014 ; undefined
   852d0:	00140014 	.inst	0x00140014 ; undefined
   852d4:	00140014 	.inst	0x00140014 ; undefined
   852d8:	00140014 	.inst	0x00140014 ; undefined
   852dc:	00140014 	.inst	0x00140014 ; undefined
   852e0:	00140014 	.inst	0x00140014 ; undefined
   852e4:	c0170014 	.inst	0xc0170014 ; undefined
   852e8:	c01f0010 	.inst	0xc01f0010 ; undefined
	...
   852f8:	00140014 	.inst	0x00140014 ; undefined
   852fc:	00140014 	.inst	0x00140014 ; undefined
   85300:	00140014 	.inst	0x00140014 ; undefined
   85304:	00f40014 	.inst	0x00f40014 ; undefined
   85308:	00fc0004 	.inst	0x00fc0004 ; undefined
	...
   85318:	00140014 	.inst	0x00140014 ; undefined
   8531c:	00140014 	.inst	0x00140014 ; undefined
   85320:	00140014 	.inst	0x00140014 ; undefined
   85324:	c0170014 	.inst	0xc0170014 ; undefined
   85328:	c0170010 	.inst	0xc0170010 ; undefined
   8532c:	00140014 	.inst	0x00140014 ; undefined
   85330:	00140014 	.inst	0x00140014 ; undefined
   85334:	00140014 	.inst	0x00140014 ; undefined
   85338:	00140014 	.inst	0x00140014 ; undefined
   8533c:	00140014 	.inst	0x00140014 ; undefined
   85340:	00140014 	.inst	0x00140014 ; undefined
   85344:	00f40014 	.inst	0x00f40014 ; undefined
   85348:	00f40004 	.inst	0x00f40004 ; undefined
   8534c:	00140014 	.inst	0x00140014 ; undefined
   85350:	00140014 	.inst	0x00140014 ; undefined
   85354:	00140014 	.inst	0x00140014 ; undefined
	...
   85364:	c0ff0000 	.inst	0xc0ff0000 ; undefined
   85368:	c0f70000 	.inst	0xc0f70000 ; undefined
   8536c:	00140014 	.inst	0x00140014 ; undefined
   85370:	00140014 	.inst	0x00140014 ; undefined
   85374:	00140014 	.inst	0x00140014 ; undefined
   85378:	00140014 	.inst	0x00140014 ; undefined
   8537c:	00140014 	.inst	0x00140014 ; undefined
   85380:	00140014 	.inst	0x00140014 ; undefined
   85384:	c0f70014 	.inst	0xc0f70014 ; undefined
   85388:	c0ff0000 	.inst	0xc0ff0000 ; undefined
	...
   85398:	00140014 	.inst	0x00140014 ; undefined
   8539c:	00140014 	.inst	0x00140014 ; undefined
   853a0:	00140014 	.inst	0x00140014 ; undefined
   853a4:	c0f70014 	.inst	0xc0f70014 ; undefined
   853a8:	c0f70000 	.inst	0xc0f70000 ; undefined
   853ac:	00140014 	.inst	0x00140014 ; undefined
   853b0:	00140014 	.inst	0x00140014 ; undefined
   853b4:	00140014 	.inst	0x00140014 ; undefined
   853b8:	c0ffc0ff 	.inst	0xc0ffc0ff ; undefined
   853bc:	c0ffc0ff 	.inst	0xc0ffc0ff ; undefined
   853c0:	c0ffc0ff 	.inst	0xc0ffc0ff ; undefined
   853c4:	c0ffc0ff 	.inst	0xc0ffc0ff ; undefined
   853c8:	c0ffc0ff 	.inst	0xc0ffc0ff ; undefined
   853cc:	c0ffc0ff 	.inst	0xc0ffc0ff ; undefined
   853d0:	c0ffc0ff 	.inst	0xc0ffc0ff ; undefined
   853d4:	c0ffc0ff 	.inst	0xc0ffc0ff ; undefined
	...
   853e0:	001c0008 	.inst	0x001c0008 ; undefined
   853e4:	0008002a 	.inst	0x0008002a ; undefined
   853e8:	00080008 	.inst	0x00080008 ; undefined
   853ec:	00080008 	.inst	0x00080008 ; undefined
   853f0:	00080008 	.inst	0x00080008 ; undefined
	...
   85400:	00080008 	.inst	0x00080008 ; undefined
   85404:	00080008 	.inst	0x00080008 ; undefined
   85408:	00080008 	.inst	0x00080008 ; undefined
   8540c:	002a0008 	.inst	0x002a0008 ; NYI
   85410:	0008001c 	.inst	0x0008001c ; undefined
	...
   85424:	00200010 	.inst	0x00200010 ; NYI
   85428:	0020c07f 	.inst	0x0020c07f ; NYI
   8542c:	00000010 	udf	#16
	...
   85444:	00010002 	.inst	0x00010002 ; undefined
   85448:	000180ff 	.inst	0x000180ff ; undefined
   8544c:	00000002 	udf	#2
	...
   8545c:	00300000 	.inst	0x00300000 ; NYI
   85460:	0000000c 	udf	#12
   85464:	0002003c 	.inst	0x0002003c ; undefined
   85468:	003e0002 	.inst	0x003e0002 ; NYI
   8546c:	00420042 	.inst	0x00420042 ; undefined
   85470:	80390046 	.inst	0x80390046 ; NYI
	...
   8547c:	00060000 	.inst	0x00060000 ; undefined
   85480:	00000018 	udf	#24
   85484:	0002003c 	.inst	0x0002003c ; undefined
   85488:	003e0002 	.inst	0x003e0002 ; NYI
   8548c:	00420042 	.inst	0x00420042 ; undefined
   85490:	80390046 	.inst	0x80390046 ; NYI
	...
   8549c:	000c0000 	.inst	0x000c0000 ; undefined
   854a0:	00000012 	udf	#18
   854a4:	0002003c 	.inst	0x0002003c ; undefined
   854a8:	003e0002 	.inst	0x003e0002 ; NYI
   854ac:	00420042 	.inst	0x00420042 ; undefined
   854b0:	80390046 	.inst	0x80390046 ; NYI
	...
   854bc:	001a0000 	.inst	0x001a0000 ; undefined
   854c0:	0000002c 	udf	#44
   854c4:	0002003c 	.inst	0x0002003c ; undefined
   854c8:	003e0002 	.inst	0x003e0002 ; NYI
   854cc:	00420042 	.inst	0x00420042 ; undefined
   854d0:	80390046 	.inst	0x80390046 ; NYI
	...
   854dc:	00140000 	.inst	0x00140000 ; undefined
   854e0:	00000014 	udf	#20
   854e4:	0002003c 	.inst	0x0002003c ; undefined
   854e8:	003e0002 	.inst	0x003e0002 ; NYI
   854ec:	00420042 	.inst	0x00420042 ; undefined
   854f0:	80390046 	.inst	0x80390046 ; NYI
	...
   854fc:	00080000 	.inst	0x00080000 ; undefined
   85500:	00080014 	.inst	0x00080014 ; undefined
   85504:	0002003c 	.inst	0x0002003c ; undefined
   85508:	003e0002 	.inst	0x003e0002 ; NYI
   8550c:	00420042 	.inst	0x00420042 ; undefined
   85510:	80390046 	.inst	0x80390046 ; NYI
	...
   85524:	00090076 	.inst	0x00090076 ; undefined
   85528:	003f0009 	.inst	0x003f0009 ; NYI
   8552c:	00480048 	.inst	0x00480048 ; undefined
   85530:	00360049 	.inst	0x00360049 ; NYI
	...
   85544:	0021001e 	.inst	0x0021001e ; NYI
   85548:	00400040 	.inst	0x00400040 ; undefined
   8554c:	00400040 	.inst	0x00400040 ; undefined
   85550:	001e0021 	.inst	0x001e0021 ; undefined
   85554:	00180004 	.inst	0x00180004 ; undefined
   85558:	00000000 	udf	#0
   8555c:	00180000 	.inst	0x00180000 ; undefined
   85560:	00000006 	udf	#6
   85564:	0021001e 	.inst	0x0021001e ; NYI
   85568:	007f0041 	.inst	0x007f0041 ; undefined
   8556c:	00400040 	.inst	0x00400040 ; undefined
   85570:	001e0021 	.inst	0x001e0021 ; undefined
	...
   8557c:	00060000 	.inst	0x00060000 ; undefined
   85580:	00000018 	udf	#24
   85584:	0021001e 	.inst	0x0021001e ; NYI
   85588:	007f0041 	.inst	0x007f0041 ; undefined
   8558c:	00400040 	.inst	0x00400040 ; undefined
   85590:	001e0021 	.inst	0x001e0021 ; undefined
	...
   8559c:	000c0000 	.inst	0x000c0000 ; undefined
   855a0:	00000012 	udf	#18
   855a4:	0021001e 	.inst	0x0021001e ; NYI
   855a8:	007f0041 	.inst	0x007f0041 ; undefined
   855ac:	00400040 	.inst	0x00400040 ; undefined
   855b0:	001e0021 	.inst	0x001e0021 ; undefined
	...
   855bc:	00120000 	.inst	0x00120000 ; undefined
   855c0:	00000012 	udf	#18
   855c4:	0021001e 	.inst	0x0021001e ; NYI
   855c8:	007f0041 	.inst	0x007f0041 ; undefined
   855cc:	00400040 	.inst	0x00400040 ; undefined
   855d0:	001e0021 	.inst	0x001e0021 ; undefined
	...
   855dc:	00300000 	.inst	0x00300000 ; NYI
   855e0:	0000000c 	udf	#12
   855e4:	00080078 	.inst	0x00080078 ; undefined
   855e8:	00080008 	.inst	0x00080008 ; undefined
   855ec:	00080008 	.inst	0x00080008 ; undefined
   855f0:	00080008 	.inst	0x00080008 ; undefined
	...
   855fc:	000c0000 	.inst	0x000c0000 ; undefined
   85600:	00000030 	udf	#48
   85604:	00080078 	.inst	0x00080078 ; undefined
   85608:	00080008 	.inst	0x00080008 ; undefined
   8560c:	00080008 	.inst	0x00080008 ; undefined
   85610:	00080008 	.inst	0x00080008 ; undefined
	...
   8561c:	00180000 	.inst	0x00180000 ; undefined
   85620:	00000024 	udf	#36
   85624:	00080078 	.inst	0x00080078 ; undefined
   85628:	00080008 	.inst	0x00080008 ; undefined
   8562c:	00080008 	.inst	0x00080008 ; undefined
   85630:	00080008 	.inst	0x00080008 ; undefined
	...
   8563c:	00240000 	.inst	0x00240000 ; NYI
   85640:	00000024 	udf	#36
   85644:	00080078 	.inst	0x00080078 ; undefined
   85648:	00080008 	.inst	0x00080008 ; undefined
   8564c:	00080008 	.inst	0x00080008 ; undefined
   85650:	00080008 	.inst	0x00080008 ; undefined
	...
   8565c:	00660000 	.inst	0x00660000 ; undefined
   85660:	00680018 	.inst	0x00680018 ; undefined
   85664:	0022001e 	.inst	0x0022001e ; NYI
   85668:	00410041 	.inst	0x00410041 ; undefined
   8566c:	00410041 	.inst	0x00410041 ; undefined
   85670:	001c0022 	.inst	0x001c0022 ; undefined
	...
   8567c:	001a0000 	.inst	0x001a0000 ; undefined
   85680:	0000002c 	udf	#44
   85684:	0053004e 	.inst	0x0053004e ; undefined
   85688:	00410061 	.inst	0x00410061 ; undefined
   8568c:	00410041 	.inst	0x00410041 ; undefined
   85690:	00410041 	.inst	0x00410041 ; undefined
	...
   8569c:	00300000 	.inst	0x00300000 ; NYI
   856a0:	0000000c 	udf	#12
   856a4:	0022001c 	.inst	0x0022001c ; NYI
   856a8:	00410041 	.inst	0x00410041 ; undefined
   856ac:	00410041 	.inst	0x00410041 ; undefined
   856b0:	001c0022 	.inst	0x001c0022 ; undefined
	...
   856bc:	00060000 	.inst	0x00060000 ; undefined
   856c0:	00000018 	udf	#24
   856c4:	0022001c 	.inst	0x0022001c ; NYI
   856c8:	00410041 	.inst	0x00410041 ; undefined
   856cc:	00410041 	.inst	0x00410041 ; undefined
   856d0:	001c0022 	.inst	0x001c0022 ; undefined
	...
   856dc:	000c0000 	.inst	0x000c0000 ; undefined
   856e0:	00000012 	udf	#18
   856e4:	0022001c 	.inst	0x0022001c ; NYI
   856e8:	00410041 	.inst	0x00410041 ; undefined
   856ec:	00410041 	.inst	0x00410041 ; undefined
   856f0:	001c0022 	.inst	0x001c0022 ; undefined
	...
   856fc:	001a0000 	.inst	0x001a0000 ; undefined
   85700:	0000002c 	udf	#44
   85704:	0022001c 	.inst	0x0022001c ; NYI
   85708:	00410041 	.inst	0x00410041 ; undefined
   8570c:	00410041 	.inst	0x00410041 ; undefined
   85710:	001c0022 	.inst	0x001c0022 ; undefined
	...
   8571c:	00140000 	.inst	0x00140000 ; undefined
   85720:	00000014 	udf	#20
   85724:	0022001c 	.inst	0x0022001c ; NYI
   85728:	00410041 	.inst	0x00410041 ; undefined
   8572c:	00410041 	.inst	0x00410041 ; undefined
   85730:	001c0022 	.inst	0x001c0022 ; undefined
	...
   85744:	00080008 	.inst	0x00080008 ; undefined
   85748:	007f0000 	.inst	0x007f0000 ; undefined
   8574c:	00080000 	.inst	0x00080000 ; undefined
   85750:	00000008 	udf	#8
	...
   85764:	0022001d 	.inst	0x0022001d ; NYI
   85768:	00490045 	.inst	0x00490045 ; undefined
   8576c:	00510049 	.inst	0x00510049 ; undefined
   85770:	005c0022 	.inst	0x005c0022 ; undefined
	...
   8577c:	00300000 	.inst	0x00300000 ; NYI
   85780:	0000000c 	udf	#12
   85784:	00410041 	.inst	0x00410041 ; undefined
   85788:	00410041 	.inst	0x00410041 ; undefined
   8578c:	00430041 	.inst	0x00430041 ; undefined
   85790:	00390065 	.inst	0x00390065 ; NYI
	...
   8579c:	00060000 	.inst	0x00060000 ; undefined
   857a0:	00000018 	udf	#24
   857a4:	00410041 	.inst	0x00410041 ; undefined
   857a8:	00410041 	.inst	0x00410041 ; undefined
   857ac:	00430041 	.inst	0x00430041 ; undefined
   857b0:	00390065 	.inst	0x00390065 ; NYI
	...
   857bc:	000c0000 	.inst	0x000c0000 ; undefined
   857c0:	00000012 	udf	#18
   857c4:	00410041 	.inst	0x00410041 ; undefined
   857c8:	00410041 	.inst	0x00410041 ; undefined
   857cc:	00430041 	.inst	0x00430041 ; undefined
   857d0:	00390065 	.inst	0x00390065 ; NYI
	...
   857dc:	00140000 	.inst	0x00140000 ; undefined
   857e0:	00000014 	udf	#20
   857e4:	00410041 	.inst	0x00410041 ; undefined
   857e8:	00410041 	.inst	0x00410041 ; undefined
   857ec:	00430041 	.inst	0x00430041 ; undefined
   857f0:	00390065 	.inst	0x00390065 ; NYI
	...
   857fc:	00060000 	.inst	0x00060000 ; undefined
   85800:	00000018 	udf	#24
   85804:	00410041 	.inst	0x00410041 ; undefined
   85808:	00220022 	.inst	0x00220022 ; NYI
   8580c:	00140014 	.inst	0x00140014 ; undefined
   85810:	00080008 	.inst	0x00080008 ; undefined
   85814:	00300010 	.inst	0x00300010 ; NYI
   85818:	00000000 	udf	#0
   8581c:	00400000 	.inst	0x00400000 ; undefined
   85820:	00400040 	.inst	0x00400040 ; undefined
   85824:	0062005c 	.inst	0x0062005c ; undefined
   85828:	00410041 	.inst	0x00410041 ; undefined
   8582c:	00410041 	.inst	0x00410041 ; undefined
   85830:	007c0042 	.inst	0x007c0042 ; undefined
   85834:	00400040 	.inst	0x00400040 ; undefined
   85838:	00000000 	udf	#0
   8583c:	00140000 	.inst	0x00140000 ; undefined
   85840:	00000014 	udf	#20
   85844:	00410041 	.inst	0x00410041 ; undefined
   85848:	00220022 	.inst	0x00220022 ; NYI
   8584c:	00140014 	.inst	0x00140014 ; undefined
   85850:	00080008 	.inst	0x00080008 ; undefined
   85854:	00300010 	.inst	0x00300010 ; NYI
   85858:	ffbdbfef 	.inst	0xffbdbfef ; undefined
   8585c:	e2ff80cf 	.inst	0xe2ff80cf ; undefined
   85860:	e2ffa089 	.inst	0xe2ffa089 ; undefined
   85864:	e2ffa489 	.inst	0xe2ffa489 ; undefined
   85868:	e2ffa589 	.inst	0xe2ffa589 ; undefined
   8586c:	96e2a096 	bl	fffffffffb92dac4 <__bss_end+0xfffffffffb89d08c>
   85870:	ae96e2ac 	.inst	0xae96e2ac ; undefined
   85874:	e2bc97e2 	.inst	0xe2bc97e2 ; undefined
   85878:	ace2be97 	ldp	q23, q15, [x20], #-944
   8587c:	8e88e29b 	.inst	0x8e88e29b ; undefined
   85880:	8697e2ff 	.inst	0x8697e2ff ; undefined
   85884:	e2a699e2 	.inst	0xe2a699e2 ; undefined
   85888:	ace2a5ac 	ldp	q12, q9, [x13], #-944
   8588c:	bcc2ffa7 	.inst	0xbcc2ffa7 ; undefined
   85890:	ffbdc2ff 	.inst	0xffbdc2ff ; undefined
   85894:	c2ffbec2 	.inst	0xc2ffbec2 ; undefined
   85898:	a8c2ffa6 	ldp	x6, xzr, [x29], #40
   8589c:	ffb8c2ff 	.inst	0xffb8c2ff ; undefined
   858a0:	e2ff92c6 	.inst	0xe2ff92c6 ; undefined
   858a4:	e2ffa080 	.inst	0xe2ffa080 ; undefined
   858a8:	e2ffa180 	.inst	0xe2ffa180 ; undefined
   858ac:	e2ffb080 	.inst	0xe2ffb080 ; undefined
   858b0:	e2ffa284 	.inst	0xe2ffa284 ; undefined
   858b4:	e2ffa680 	.inst	0xe2ffa680 ; undefined
   858b8:	e2ffb980 	.inst	0xe2ffb980 ; undefined
   858bc:	e2ffba80 	.inst	0xe2ffba80 ; undefined
   858c0:	80e29c80 	.inst	0x80e29c80 ; undefined
   858c4:	b680e29f 	tbz	xzr, #48, 87514 <_ZL17_systemFontBuffer+0x186c>
   858c8:	9d80e2ff 	.inst	0x9d80e2ff ; undefined
   858cc:	9dcbbaca 	.inst	0x9dcbbaca ; undefined
   858d0:	80e2aecb 	.inst	0x80e2aecb ; undefined
   858d4:	80e2ffb3 	.inst	0x80e2ffb3 ; undefined
   858d8:	b9e2ff9e 	.inst	0xb9e2ff9e ; undefined
   858dc:	b9e2ff82 	.inst	0xb9e2ff82 ; undefined
   858e0:	ff8ecb81 	.inst	0xff8ecb81 ; undefined
   858e4:	c4ff9ec4 	ld1sh	{z4.d}, p7/z, [x22, z31.d, lsl #1]
   858e8:	b0c4ff9f 	adrp	xzr, ffffffff8a076000 <__bss_end+0xffffffff89fe55c8>
   858ec:	ffb1c4ff 	.inst	0xffb1c4ff ; undefined
   858f0:	c5ff9ec5 	.inst	0xc5ff9ec5 ; undefined
   858f4:	c220ff9f 	.inst	0xc220ff9f ; undefined
   858f8:	8080e2a0 	.inst	0x8080e2a0 ; undefined
   858fc:	e28180e2 	.inst	0xe28180e2 ; undefined
   85900:	80e28280 	.inst	0x80e28280 ; undefined
   85904:	8480e283 	prfh	pldl2strm, p0, [z20.s]
   85908:	e28580e2 	.inst	0xe28580e2 ; undefined
   8590c:	80e28680 	.inst	0x80e28680 ; undefined
   85910:	8880e287 	stlr	w7, [x20]
   85914:	e28980e2 	.inst	0xe28980e2 ; undefined
   85918:	80e28a80 	.inst	0x80e28a80 ; undefined
   8591c:	9f81e2af 	.inst	0x9f81e2af ; undefined
   85920:	22ff21ff 	.inst	0x22ff21ff ; undefined
   85924:	24ff23ff 	cmpls	p15.d, p0/z, z31.d, #124
   85928:	26ff25ff 	.inst	0x26ff25ff ; undefined
   8592c:	b4c227ff 	cbz	xzr, 9e28 <__bss_size+0x9489>
   85930:	bccab9ca 	.inst	0xbccab9ca ; undefined
   85934:	80e28acb 	.inst	0x80e28acb ; undefined
   85938:	b280e299 	.inst	0xb280e299 ; undefined
   8593c:	29ff28ff 	ldp	wzr, w10, [x7, #-8]!
   85940:	81e22aff 	.inst	0x81e22aff ; undefined
   85944:	9788e28e 	bl	fffffffffe2be37c <__bss_end+0xfffffffffe22d944>
   85948:	2cff2bff 	ldp	s31, s10, [sp], #-8
   8594c:	80e28fcb 	.inst	0x80e28fcb ; undefined
   85950:	c22dff9a 	.inst	0xc22dff9a ; undefined
   85954:	9080e2ad 	adrp	x13, ffffffff01cd9000 <__bss_end+0xffffffff01c485c8>
   85958:	e29180e2 	.inst	0xe29180e2 ; undefined
   8595c:	80e29280 	.inst	0x80e29280 ; undefined
   85960:	8381e293 	.inst	0x8381e293 ; undefined
   85964:	ff9288e2 	.inst	0xff9288e2 ; undefined
   85968:	a480e22e 	ldnt1h	{z14.h}, p0/z, [x17]
   8596c:	81e22fff 	.inst	0x81e22fff ; undefined
   85970:	9588e284 	bl	62be380 <__bss_end+0x622d948>
   85974:	31ff30ff 	.inst	0x31ff30ff ; undefined
   85978:	33ff32ff 	.inst	0x33ff32ff ; undefined
   8597c:	35ff34ff 	cbnz	wzr, 84018 <_ZL17_systemFontBuffer+0x7e0>
   85980:	37ff36ff 	tbnz	wzr, #31, 8405c <_ZL17_systemFontBuffer+0x824>
   85984:	39ff38ff 	ldrsb	wzr, [x7, #4046]
   85988:	88e23aff 	.inst	0x88e23aff ; undefined
   8598c:	ff3bffb6 	.inst	0xff3bffb6 ; undefined
   85990:	e23dff3c 	.inst	0xe23dff3c ; undefined
   85994:	3eff80b9 	.inst	0x3eff80b9 ; undefined
   85998:	40ff3fff 	.inst	0x40ff3fff ; undefined
   8599c:	42ff41ff 	.inst	0x42ff41ff ; undefined
   859a0:	44ff43ff 	cdot	z31.d, z31.h, z15.h[1], #0
   859a4:	46ff45ff 	.inst	0x46ff45ff ; undefined
   859a8:	48ff47ff 	.inst	0x48ff47ff ; undefined
   859ac:	4aff49ff 	eon	wzr, w15, wzr, ror #18
   859b0:	84e24bff 	ld1h	{z31.s}, p2/z, [sp, z2.s, sxtw #1]
   859b4:	ff4cffaa 	.inst	0xff4cffaa ; undefined
   859b8:	ff4eff4d 	.inst	0xff4eff4d ; undefined
   859bc:	ff50ff4f 	.inst	0xff50ff4f ; undefined
   859c0:	ff52ff51 	.inst	0xff52ff51 ; undefined
   859c4:	ff54ff53 	.inst	0xff54ff53 ; undefined
   859c8:	ff56ff55 	.inst	0xff56ff55 ; undefined
   859cc:	ff58ff57 	.inst	0xff58ff57 ; undefined
   859d0:	ff5aff59 	.inst	0xff5aff59 ; undefined
   859d4:	e25cff5b 	.inst	0xe25cff5b ; undefined
   859d8:	5dffb5a7 	.inst	0x5dffb5a7 ; undefined
   859dc:	84cb5eff 	ld1h	{z31.s}, p7/z, [x23, z11.s, sxtw]
   859e0:	8ce286cb 	.inst	0x8ce286cb ; undefined
   859e4:	ff5fff83 	.inst	0xff5fff83 ; undefined
   859e8:	cabbca60 	eon	x0, x19, x27, asr #50
   859ec:	e28bcbbd 	.inst	0xe28bcbbd ; undefined
   859f0:	80e29880 	.inst	0x80e29880 ; undefined
   859f4:	b580e29b 	cbnz	x27, fffffffffff87644 <__bss_end+0xffffffffffef6c0c>
   859f8:	62ff61ff 	.inst	0x62ff61ff ; undefined
   859fc:	64ff63ff 	.inst	0x64ff63ff ; undefined
   85a00:	66ff65ff 	.inst	0x66ff65ff ; undefined
   85a04:	68ff67ff 	ldpsw	xzr, x25, [sp], #-8
   85a08:	6aff69ff 	bics	wzr, w15, wzr, ror #26
   85a0c:	6cff6bff 	ldp	d31, d26, [sp], #-16
   85a10:	6eff6dff 	.inst	0x6eff6dff ; undefined
   85a14:	70ff6fff 	adr	xzr, 84813 <_ZL17_systemFontBuffer+0xfdb>
   85a18:	72ff71ff 	.inst	0x72ff71ff ; undefined
   85a1c:	74ff73ff 	.inst	0x74ff73ff ; undefined
   85a20:	76ff75ff 	.inst	0x76ff75ff ; undefined
   85a24:	78ff77ff 	.inst	0x78ff77ff ; undefined
   85a28:	7aff79ff 	.inst	0x7aff79ff ; undefined
   85a2c:	7cff7bff 	.inst	0x7cff7bff ; undefined
   85a30:	ffa388e2 	.inst	0xffa388e2 ; undefined
   85a34:	cb7eff7d 	.inst	0xcb7eff7d ; undefined
   85a38:	80e2ff9c 	.inst	0x80e2ff9c ; undefined
   85a3c:	9988e2a2 	ldapursw	x2, [x21, #142]
   85a40:	ff8f97e2 	.inst	0xff8f97e2 ; undefined
   85a44:	c3ff80c3 	.inst	0xc3ff80c3 ; undefined
   85a48:	82c3ff81 	.inst	0x82c3ff81 ; undefined
   85a4c:	ff83c3ff 	.inst	0xff83c3ff ; undefined
   85a50:	c3ff84c3 	.inst	0xc3ff84c3 ; undefined
   85a54:	ab84e285 	adds	x5, x20, x4, asr #56
   85a58:	ff86c3ff 	.inst	0xff86c3ff ; undefined
   85a5c:	c3ff87c3 	.inst	0xc3ff87c3 ; undefined
   85a60:	89c3ff88 	.inst	0x89c3ff88 ; undefined
   85a64:	ff8ac3ff 	.inst	0xff8ac3ff ; undefined
   85a68:	c3ff8bc3 	.inst	0xc3ff8bc3 ; undefined
   85a6c:	8dc3ff8c 	.inst	0x8dc3ff8c ; undefined
   85a70:	ff8ec3ff 	.inst	0xff8ec3ff ; undefined
   85a74:	c3ff8fc3 	.inst	0xc3ff8fc3 ; undefined
   85a78:	ff90c490 	.inst	0xff90c490 ; undefined
   85a7c:	c3ff91c3 	.inst	0xc3ff91c3 ; undefined
   85a80:	93c3ff92 	extr	x18, x28, x3, #63
   85a84:	ff94c3ff 	.inst	0xff94c3ff ; undefined
   85a88:	c3ff95c3 	.inst	0xc3ff95c3 ; undefined
   85a8c:	97c3ff96 	bl	ffffffffff1858e4 <__bss_end+0xffffffffff0f4eac>
   85a90:	ff98c3ff 	.inst	0xff98c3ff ; undefined
   85a94:	c3ff99c3 	.inst	0xc3ff99c3 ; undefined
   85a98:	9bc3ff9a 	.inst	0x9bc3ff9a ; undefined
   85a9c:	ff9cc3ff 	.inst	0xff9cc3ff ; undefined
   85aa0:	c3ff9dc3 	.inst	0xc3ff9dc3 ; undefined
   85aa4:	9fc3ff9e 	.inst	0x9fc3ff9e ; undefined
   85aa8:	9296e2ff 	mov	xzr, #0xffffffffffff48e8    	// #-46872
   85aac:	ffa1c2ff 	.inst	0xffa1c2ff ; undefined
   85ab0:	c2ffa2c2 	.inst	0xc2ffa2c2 ; undefined
   85ab4:	82e2ffa3 	.inst	0x82e2ffa3 ; undefined
   85ab8:	a5c2ffac 	ld3d	{z12.d-z14.d}, p7/z, [x29, #6, mul vl]
   85abc:	ffa0c5ff 	.inst	0xffa0c5ff ; undefined
   85ac0:	c5ffa7c2 	.inst	0xc5ffa7c2 ; undefined
   85ac4:	a9c2ffa1 	ldp	x1, xzr, [x29, #40]!
   85ac8:	ffaac2ff 	.inst	0xffaac2ff ; undefined
   85acc:	c2ffabc2 	.inst	0xc2ffabc2 ; undefined
   85ad0:	a4c2ffac 	ld3h	{z12.h-z14.h}, p7/z, [x29, #6, mul vl]
   85ad4:	ffaec2ff 	.inst	0xffaec2ff ; undefined
   85ad8:	89cbafc2 	.inst	0x89cbafc2 ; undefined
   85adc:	cbb0c2ff 	.inst	0xcbb0c2ff ; undefined
   85ae0:	b1c2ff9a 	.inst	0xb1c2ff9a ; undefined
   85ae4:	ffb2c2ff 	.inst	0xffb2c2ff ; undefined
   85ae8:	c5ffb3c2 	.inst	0xc5ffb3c2 ; undefined
   85aec:	b5c2ffbd 	cbnz	x29, bae0 <__bss_size+0xb141>
   85af0:	c2ffbcce 	.inst	0xc2ffbcce ; undefined
   85af4:	b7c2ffb6 	tbnz	x22, #56, 8bae8 <_funcmap+0x1585>
   85af8:	e2a780e2 	.inst	0xe2a780e2 ; undefined
   85afc:	b8e2858b 	.inst	0xb8e2858b ; undefined
   85b00:	bec5ffb1 	.inst	0xbec5ffb1 ; undefined
   85b04:	ffb9c2ff 	.inst	0xffb9c2ff ; undefined
   85b08:	c2ffbac2 	.inst	0xc2ffbac2 ; undefined
   85b0c:	92c5ffbb 	mov	x27, #0xffffd002ffffffff    	// #-52763673231361
   85b10:	ff93c5ff 	.inst	0xff93c5ff ; undefined
   85b14:	c2ffb8c5 	.inst	0xc2ffb8c5 ; undefined
   85b18:	94e2ffbf 	bl	3945a14 <__bss_end+0x38b4fdc>
   85b1c:	9480e280 	bl	20be51c <__bss_end+0x202dae4>
   85b20:	e29580e2 	.inst	0xe29580e2 ; undefined
   85b24:	e2ffaf8e 	.inst	0xe2ffaf8e ; undefined
   85b28:	e2ff8294 	.inst	0xe2ff8294 ; undefined
   85b2c:	95e28c94 	bl	7928d7c <__bss_end+0x7898344>
   85b30:	94e2ffad 	bl	39459e4 <__bss_end+0x38b4fac>
   85b34:	ae95e290 	.inst	0xae95e290 ; undefined
   85b38:	9494e2ff 	bl	25be734 <__bss_end+0x252dcfc>
   85b3c:	ffb095e2 	.inst	0xffb095e2 ; undefined
   85b40:	e29894e2 	.inst	0xe29894e2 ; undefined
   85b44:	e2ffaf95 	.inst	0xe2ffaf95 ; undefined
   85b48:	e2ff9c94 	.inst	0xe2ff9c94 ; undefined
   85b4c:	e2ffa494 	.inst	0xe2ffa494 ; undefined
   85b50:	e2ffac94 	.inst	0xe2ffac94 ; undefined
   85b54:	e2ffb494 	.inst	0xe2ffb494 ; undefined
   85b58:	e2ffbc94 	.inst	0xe2ffbc94 ; undefined
   85b5c:	e2ff9196 	.inst	0xe2ff9196 ; undefined
   85b60:	80e2ba8e 	.inst	0x80e2ba8e ; undefined
   85b64:	8ee2ffbe 	.inst	0x8ee2ffbe ; undefined
   85b68:	8ee2ffbb 	.inst	0x8ee2ffbb ; undefined
   85b6c:	8ee2ffbc 	.inst	0x8ee2ffbc ; undefined
   85b70:	95e2ffbd 	bl	7945a64 <__bss_end+0x78b502c>
   85b74:	8194e290 	.inst	0x8194e290 ; undefined
   85b78:	9195e2ff 	.inst	0x9195e2ff ; undefined
   85b7c:	ff8394e2 	.inst	0xff8394e2 ; undefined
   85b80:	e29495e2 	.inst	0xe29495e2 ; undefined
   85b84:	e2ff8f94 	.inst	0xe2ff8f94 ; undefined
   85b88:	94e29795 	bl	392b9dc <__bss_end+0x389afa4>
   85b8c:	95e2ff93 	bl	79459d8 <__bss_end+0x78b4fa0>
   85b90:	9794e29a 	bl	fffffffffe5be5f8 <__bss_end+0xfffffffffe52dbc0>
   85b94:	9d95e2ff 	.inst	0x9d95e2ff ; undefined
   85b98:	ff9b94e2 	.inst	0xff9b94e2 ; undefined
   85b9c:	e2a095e2 	.inst	0xe2a095e2 ; undefined
   85ba0:	e2ffa394 	.inst	0xe2ffa394 ; undefined
   85ba4:	94e2a395 	bl	392e9f8 <__bss_end+0x389dfc0>
   85ba8:	95e2ffab 	bl	7945a54 <__bss_end+0x78b501c>
   85bac:	b394e2a6 	.inst	0xb394e2a6 ; undefined
   85bb0:	a995e2ff 	stp	xzr, x24, [x23, #344]!
   85bb4:	ffbb94e2 	.inst	0xffbb94e2 ; undefined
   85bb8:	e2ac95e2 	.inst	0xe2ac95e2 ; undefined
   85bbc:	e2ff8b95 	.inst	0xe2ff8b95 ; undefined
   85bc0:	e2ff8896 	.inst	0xe2ff8896 ; undefined
   85bc4:	e2ff9186 	.inst	0xe2ff9186 ; undefined
   85bc8:	e2ff9386 	.inst	0xe2ff9386 ; undefined
   85bcc:	e2ff9086 	.inst	0xe2ff9086 ; undefined
   85bd0:	c3ff9286 	.inst	0xc3ff9286 ; undefined
   85bd4:	a1c3ffa0 	.inst	0xa1c3ffa0 ; undefined
   85bd8:	ffa2c3ff 	.inst	0xffa2c3ff ; undefined
   85bdc:	c3ffa3c3 	.inst	0xc3ffa3c3 ; undefined
   85be0:	a5c3ffa4 	ld3d	{z4.d-z6.d}, p7/z, [x29, #9, mul vl]
   85be4:	ffa6c3ff 	.inst	0xffa6c3ff ; undefined
   85be8:	c3ffa7c3 	.inst	0xc3ffa7c3 ; undefined
   85bec:	a9c3ffa8 	ldp	x8, xzr, [x29, #56]!
   85bf0:	ffaac3ff 	.inst	0xffaac3ff ; undefined
   85bf4:	c3ffabc3 	.inst	0xc3ffabc3 ; undefined
   85bf8:	adc3ffac 	ldp	q12, q31, [x29, #112]!
   85bfc:	ffaec3ff 	.inst	0xffaec3ff ; undefined
   85c00:	c3ffafc3 	.inst	0xc3ffafc3 ; undefined
   85c04:	b1c3ffb0 	.inst	0xb1c3ffb0 ; undefined
   85c08:	ffb2c3ff 	.inst	0xffb2c3ff ; undefined
   85c0c:	c3ffb3c3 	.inst	0xc3ffb3c3 ; undefined
   85c10:	b5c3ffb4 	cbnz	x20, dc04 <__bss_size+0xd265>
   85c14:	ffb6c3ff 	.inst	0xffb6c3ff ; undefined
   85c18:	c3ffb7c3 	.inst	0xc3ffb7c3 ; undefined
   85c1c:	b9c3ffb8 	.inst	0xb9c3ffb8 ; undefined
   85c20:	ffbac3ff 	.inst	0xffbac3ff ; undefined
   85c24:	c3ffbbc3 	.inst	0xc3ffbbc3 ; undefined
   85c28:	bdc3ffbc 	.inst	0xbdc3ffbc ; undefined
   85c2c:	ffbec3ff 	.inst	0xffbec3ff ; undefined
   85c30:	00ffbfc3 	.inst	0x00ffbfc3 ; undefined
   85c34:	00000000 	udf	#0
   85c38:	6e206f44 	umin	v4.16b, v26.16b, v0.16b
   85c3c:	7020746f 	adr	x15, c6acb <__bss_end+0x36093>
   85c40:	73736572 	.inst	0x73736572 ; undefined
   85c44:	65687420 	fnmls	z0.h, p5/m, z1.h, z8.h
   85c48:	74756220 	.inst	0x74756220 ; undefined
   85c4c:	006e6f74 	.inst	0x006e6f74 ; undefined
   85c50:	656d6954 	fnmls	z20.h, p2/m, z10.h, z13.h
   85c54:	0000203a 	udf	#8250
   85c58:	6f6d654d 	sqshlu	v13.2d, v10.2d, #45
   85c5c:	50207972 	adr	x18, c6b8a <__bss_end+0x36152>
   85c60:	7469736f 	.inst	0x7469736f ; undefined
   85c64:	3a6e6f69 	.inst	0x3a6e6f69 ; undefined
   85c68:	00000020 	udf	#32
   85c6c:	00000000 	udf	#0
   85c70:	75706e49 	.inst	0x75706e49 ; undefined
   85c74:	73692074 	.inst	0x73692074 ; undefined
   85c78:	74634120 	.inst	0x74634120 ; undefined
   85c7c:	00657669 	.inst	0x00657669 ; undefined
   85c80:	75706e49 	.inst	0x75706e49 ; undefined
   85c84:	73692074 	.inst	0x73692074 ; undefined
   85c88:	746f6e20 	.inst	0x746f6e20 ; undefined
   85c8c:	74634120 	.inst	0x74634120 ; undefined
   85c90:	00657669 	.inst	0x00657669 ; undefined
   85c94:	00000000 	udf	#0
   85c98:	656d6954 	fnmls	z20.h, p2/m, z10.h, z13.h
   85c9c:	206f7420 	.inst	0x206f7420 ; undefined
   85ca0:	74696157 	.inst	0x74696157 ; undefined
   85ca4:	0000203a 	udf	#8250

0000000000085ca8 <_ZL17_systemFontBuffer>:
   85ca8:	864ab572 	.inst	0x864ab572 ; undefined
   85cac:	00000000 	udf	#0
   85cb0:	00000020 	udf	#32
   85cb4:	00000001 	udf	#1
   85cb8:	00000100 	udf	#256
   85cbc:	00000020 	udf	#32
   85cc0:	00000010 	udf	#16
   85cc4:	0000000a 	udf	#10
	...
   85cd0:	00550000 	.inst	0x00550000 ; undefined
   85cd4:	00410000 	.inst	0x00410000 ; undefined
   85cd8:	00410000 	.inst	0x00410000 ; undefined
   85cdc:	00410000 	.inst	0x00410000 ; undefined
   85ce0:	00550000 	.inst	0x00550000 ; undefined
	...
   85cf4:	0022007f 	.inst	0x0022007f ; NYI
   85cf8:	00220022 	.inst	0x00220022 ; NYI
   85cfc:	00220022 	.inst	0x00220022 ; NYI
   85d00:	00210022 	.inst	0x00210022 ; NYI
	...
   85d0c:	00010000 	.inst	0x00010000 ; undefined
   85d10:	00020001 	.inst	0x00020001 ; undefined
   85d14:	00040002 	.inst	0x00040002 ; undefined
   85d18:	0008007f 	.inst	0x0008007f ; undefined
   85d1c:	0010007f 	.inst	0x0010007f ; undefined
   85d20:	00200010 	.inst	0x00200010 ; NYI
   85d24:	00000020 	udf	#32
	...
   85d30:	00020000 	.inst	0x00020000 ; undefined
   85d34:	00080004 	.inst	0x00080004 ; undefined
   85d38:	00200010 	.inst	0x00200010 ; NYI
   85d3c:	00080010 	.inst	0x00080010 ; undefined
   85d40:	00000004 	udf	#4
   85d44:	0000003c 	udf	#60
	...
   85d54:	00080010 	.inst	0x00080010 ; undefined
   85d58:	00020004 	.inst	0x00020004 ; undefined
   85d5c:	00080004 	.inst	0x00080004 ; undefined
   85d60:	00000010 	udf	#16
   85d64:	0000001e 	udf	#30
	...
   85d74:	003e0000 	.inst	0x003e0000 ; NYI
   85d78:	003e003e 	.inst	0x003e003e ; NYI
   85d7c:	003e003e 	.inst	0x003e003e ; NYI
	...
   85d94:	001c0008 	.inst	0x001c0008 ; undefined
   85d98:	007f003e 	.inst	0x007f003e ; undefined
   85d9c:	001c003e 	.inst	0x001c003e ; undefined
   85da0:	00000008 	udf	#8
	...
   85db0:	00c40044 	.inst	0x00c40044 ; undefined
   85db4:	00480048 	.inst	0x00480048 ; undefined
   85db8:	00550053 	.inst	0x00550053 ; undefined
   85dbc:	802f0029 	.inst	0x802f0029 ; NYI
   85dc0:	00410041 	.inst	0x00410041 ; undefined
	...
   85dd0:	00c40044 	.inst	0x00c40044 ; undefined
   85dd4:	00480048 	.inst	0x00480048 ; undefined
   85dd8:	00570050 	.inst	0x00570050 ; undefined
   85ddc:	00138010 	.inst	0x00138010 ; undefined
   85de0:	80270024 	.inst	0x80270024 ; NYI
	...
   85df0:	002400e4 	.inst	0x002400e4 ; NYI
   85df4:	002800c8 	.inst	0x002800c8 ; NYI
   85df8:	001500d3 	.inst	0x001500d3 ; undefined
   85dfc:	802f0029 	.inst	0x802f0029 ; NYI
   85e00:	00410041 	.inst	0x00410041 ; undefined
	...
   85e0c:	00080000 	.inst	0x00080000 ; undefined
   85e10:	00080008 	.inst	0x00080008 ; undefined
   85e14:	00080008 	.inst	0x00080008 ; undefined
   85e18:	00000000 	udf	#0
   85e1c:	00080008 	.inst	0x00080008 ; undefined
   85e20:	00080008 	.inst	0x00080008 ; undefined
   85e24:	00000008 	udf	#8
   85e28:	00000000 	udf	#0
   85e2c:	00140000 	.inst	0x00140000 ; undefined
   85e30:	00000014 	udf	#20
	...
   85e64:	00300008 	.inst	0x00300008 ; NYI
	...
   85e70:	0011000e 	.inst	0x0011000e ; undefined
   85e74:	00100010 	.inst	0x00100010 ; undefined
   85e78:	0020007e 	.inst	0x0020007e ; NYI
   85e7c:	00200020 	.inst	0x00200020 ; NYI
   85e80:	00400040 	.inst	0x00400040 ; undefined
   85e84:	00000040 	udf	#64
	...
   85e90:	00080008 	.inst	0x00080008 ; undefined
   85e94:	003e0008 	.inst	0x003e0008 ; NYI
   85e98:	00080008 	.inst	0x00080008 ; undefined
   85e9c:	00080008 	.inst	0x00080008 ; undefined
   85ea0:	00080008 	.inst	0x00080008 ; undefined
   85ea4:	00000008 	udf	#8
	...
   85eb0:	00080008 	.inst	0x00080008 ; undefined
   85eb4:	003e0008 	.inst	0x003e0008 ; NYI
   85eb8:	00080008 	.inst	0x00080008 ; undefined
   85ebc:	003e0008 	.inst	0x003e0008 ; NYI
   85ec0:	00080008 	.inst	0x00080008 ; undefined
   85ec4:	00000008 	udf	#8
	...
   85ed0:	00480030 	.inst	0x00480030 ; undefined
   85ed4:	00338048 	.inst	0x00338048 ; NYI
   85ed8:	0030000c 	.inst	0x0030000c ; NYI
   85edc:	802400db 	.inst	0x802400db ; NYI
   85ee0:	001b8024 	.inst	0x001b8024 ; undefined
	...
   85ef0:	005500fb 	.inst	0x005500fb ; undefined
   85ef4:	00510055 	.inst	0x00510055 ; undefined
	...
   85f20:	80248024 	.inst	0x80248024 ; NYI
	...
   85f34:	00040000 	.inst	0x00040000 ; undefined
   85f38:	00100008 	.inst	0x00100008 ; undefined
   85f3c:	00040008 	.inst	0x00040008 ; undefined
	...
   85f54:	00100000 	.inst	0x00100000 ; undefined
   85f58:	00040008 	.inst	0x00040008 ; undefined
   85f5c:	00100008 	.inst	0x00100008 ; undefined
	...
   85f6c:	00440000 	.inst	0x00440000 ; undefined
   85f70:	00440044 	.inst	0x00440044 ; undefined
   85f74:	00000033 	udf	#51
	...
   85f8c:	00110000 	.inst	0x00110000 ; undefined
   85f90:	00110011 	.inst	0x00110011 ; undefined
   85f94:	00000066 	udf	#102
	...
   85fc0:	00110011 	.inst	0x00110011 ; undefined
   85fc4:	00660011 	.inst	0x00660011 ; undefined
	...
   85fe0:	00440044 	.inst	0x00440044 ; undefined
   85fe4:	00330044 	.inst	0x00330044 ; NYI
	...
   86000:	00100010 	.inst	0x00100010 ; undefined
   86004:	000c0010 	.inst	0x000c0010 ; undefined
   86008:	00220000 	.inst	0x00220000 ; NYI
   8600c:	0000001c 	udf	#28
   86010:	0021001e 	.inst	0x0021001e ; NYI
   86014:	00400040 	.inst	0x00400040 ; undefined
   86018:	00410040 	.inst	0x00410040 ; undefined
   8601c:	00410041 	.inst	0x00410041 ; undefined
   86020:	001f0021 	.inst	0x001f0021 ; undefined
	...
   8602c:	00220000 	.inst	0x00220000 ; NYI
   86030:	0000001c 	udf	#28
   86034:	0021001f 	.inst	0x0021001f ; NYI
   86038:	00410041 	.inst	0x00410041 ; undefined
   8603c:	00230041 	.inst	0x00230041 ; NYI
   86040:	0001001d 	.inst	0x0001001d ; undefined
   86044:	003c0042 	.inst	0x003c0042 ; NYI
   86048:	00080000 	.inst	0x00080000 ; undefined
   8604c:	00000008 	udf	#8
   86050:	0008003e 	.inst	0x0008003e ; undefined
   86054:	00080008 	.inst	0x00080008 ; undefined
   86058:	00080008 	.inst	0x00080008 ; undefined
   8605c:	00080008 	.inst	0x00080008 ; undefined
   86060:	003e0008 	.inst	0x003e0008 ; NYI
	...
   86074:	0004003c 	.inst	0x0004003c ; undefined
   86078:	00040004 	.inst	0x00040004 ; undefined
   8607c:	00040004 	.inst	0x00040004 ; undefined
   86080:	00040004 	.inst	0x00040004 ; undefined
	...
   86090:	0041003e 	.inst	0x0041003e ; undefined
   86094:	00400040 	.inst	0x00400040 ; undefined
   86098:	000e0030 	.inst	0x000e0030 ; undefined
   8609c:	00010001 	.inst	0x00010001 ; undefined
   860a0:	003e0041 	.inst	0x003e0041 ; NYI
   860a4:	00180004 	.inst	0x00180004 ; undefined
	...
   860b4:	0041003e 	.inst	0x0041003e ; undefined
   860b8:	00380040 	.inst	0x00380040 ; NYI
   860bc:	00010006 	.inst	0x00010006 ; undefined
   860c0:	003e0041 	.inst	0x003e0041 ; NYI
   860c4:	00180004 	.inst	0x00180004 ; undefined
	...
   860f0:	00040004 	.inst	0x00040004 ; undefined
   860f4:	00040004 	.inst	0x00040004 ; undefined
   860f8:	00040004 	.inst	0x00040004 ; undefined
   860fc:	00000004 	udf	#4
   86100:	00040004 	.inst	0x00040004 ; undefined
	...
   8610c:	00120012 	.inst	0x00120012 ; undefined
   86110:	00000012 	udf	#18
	...
   86130:	00120012 	.inst	0x00120012 ; undefined
   86134:	007f0012 	.inst	0x007f0012 ; undefined
   86138:	00240024 	.inst	0x00240024 ; NYI
   8613c:	004800fe 	.inst	0x004800fe ; undefined
   86140:	00480048 	.inst	0x00480048 ; undefined
	...
   8614c:	00080000 	.inst	0x00080000 ; undefined
   86150:	0049003e 	.inst	0x0049003e ; undefined
   86154:	00480048 	.inst	0x00480048 ; undefined
   86158:	000e0038 	.inst	0x000e0038 ; undefined
   8615c:	00090009 	.inst	0x00090009 ; undefined
   86160:	003e0049 	.inst	0x003e0049 ; NYI
   86164:	00000008 	udf	#8
	...
   86170:	00490030 	.inst	0x00490030 ; undefined
   86174:	0034004a 	.inst	0x0034004a ; NYI
   86178:	00080008 	.inst	0x00080008 ; undefined
   8617c:	00290016 	.inst	0x00290016 ; NYI
   86180:	00060049 	.inst	0x00060049 ; undefined
	...
   86190:	0022001c 	.inst	0x0022001c ; NYI
   86194:	00240022 	.inst	0x00240022 ; NYI
   86198:	00258019 	.inst	0x00258019 ; NYI
   8619c:	00420042 	.inst	0x00420042 ; undefined
   861a0:	80390046 	.inst	0x80390046 ; NYI
	...
   861ac:	00040000 	.inst	0x00040000 ; undefined
   861b0:	00040004 	.inst	0x00040004 ; undefined
   861b4:	00000018 	udf	#24
	...
   861cc:	00060000 	.inst	0x00060000 ; undefined
   861d0:	00100008 	.inst	0x00100008 ; undefined
   861d4:	00200010 	.inst	0x00200010 ; NYI
   861d8:	00200020 	.inst	0x00200020 ; NYI
   861dc:	00100020 	.inst	0x00100020 ; undefined
   861e0:	00080010 	.inst	0x00080010 ; undefined
   861e4:	00000006 	udf	#6
   861e8:	00000000 	udf	#0
   861ec:	00300000 	.inst	0x00300000 ; NYI
   861f0:	00040008 	.inst	0x00040008 ; undefined
   861f4:	00020004 	.inst	0x00020004 ; undefined
   861f8:	00020002 	.inst	0x00020002 ; undefined
   861fc:	00040002 	.inst	0x00040002 ; undefined
   86200:	00080004 	.inst	0x00080004 ; undefined
   86204:	00000030 	udf	#48
	...
   86210:	002a0008 	.inst	0x002a0008 ; NYI
   86214:	002a0014 	.inst	0x002a0014 ; NYI
   86218:	00000008 	udf	#8
	...
   86234:	00080008 	.inst	0x00080008 ; undefined
   86238:	007f0008 	.inst	0x007f0008 ; undefined
   8623c:	00080008 	.inst	0x00080008 ; undefined
   86240:	00000008 	udf	#8
	...
   86260:	00040004 	.inst	0x00040004 ; undefined
   86264:	00180004 	.inst	0x00180004 ; undefined
	...
   86278:	007f0000 	.inst	0x007f0000 ; undefined
	...
   862a0:	00080008 	.inst	0x00080008 ; undefined
	...
   862ac:	00010000 	.inst	0x00010000 ; undefined
   862b0:	00020001 	.inst	0x00020001 ; undefined
   862b4:	00040002 	.inst	0x00040002 ; undefined
   862b8:	00080004 	.inst	0x00080004 ; undefined
   862bc:	00100008 	.inst	0x00100008 ; undefined
   862c0:	00200010 	.inst	0x00200010 ; NYI
   862c4:	00000020 	udf	#32
	...
   862d0:	0022001c 	.inst	0x0022001c ; NYI
   862d4:	00410022 	.inst	0x00410022 ; undefined
   862d8:	00490049 	.inst	0x00490049 ; undefined
   862dc:	00220041 	.inst	0x00220041 ; NYI
   862e0:	001c0022 	.inst	0x001c0022 ; undefined
	...
   862f0:	00180008 	.inst	0x00180008 ; undefined
   862f4:	00080028 	.inst	0x00080028 ; undefined
   862f8:	00080008 	.inst	0x00080008 ; undefined
   862fc:	00080008 	.inst	0x00080008 ; undefined
   86300:	00080008 	.inst	0x00080008 ; undefined
	...
   86310:	0022001c 	.inst	0x0022001c ; NYI
   86314:	00020002 	.inst	0x00020002 ; undefined
   86318:	00080004 	.inst	0x00080004 ; undefined
   8631c:	00200010 	.inst	0x00200010 ; NYI
   86320:	003e0020 	.inst	0x003e0020 ; NYI
	...
   86330:	0022001c 	.inst	0x0022001c ; NYI
   86334:	00040002 	.inst	0x00040002 ; undefined
   86338:	00040018 	.inst	0x00040018 ; undefined
   8633c:	00020002 	.inst	0x00020002 ; undefined
   86340:	001c0022 	.inst	0x001c0022 ; undefined
	...
   86350:	00060002 	.inst	0x00060002 ; undefined
   86354:	0012000a 	.inst	0x0012000a ; undefined
   86358:	00220022 	.inst	0x00220022 ; NYI
   8635c:	0002803f 	.inst	0x0002803f ; undefined
   86360:	00020002 	.inst	0x00020002 ; undefined
	...
   86370:	0020003e 	.inst	0x0020003e ; NYI
   86374:	00200020 	.inst	0x00200020 ; NYI
   86378:	0002003c 	.inst	0x0002003c ; undefined
   8637c:	00020002 	.inst	0x00020002 ; undefined
   86380:	00380044 	.inst	0x00380044 ; NYI
	...
   86390:	0011000e 	.inst	0x0011000e ; undefined
   86394:	002c0020 	.inst	0x002c0020 ; NYI
   86398:	00210032 	.inst	0x00210032 ; NYI
   8639c:	00210021 	.inst	0x00210021 ; NYI
   863a0:	000c0012 	.inst	0x000c0012 ; undefined
	...
   863b0:	0002007e 	.inst	0x0002007e ; undefined
   863b4:	00040002 	.inst	0x00040002 ; undefined
   863b8:	00100008 	.inst	0x00100008 ; undefined
   863bc:	00200010 	.inst	0x00200010 ; NYI
   863c0:	00200020 	.inst	0x00200020 ; NYI
	...
   863d0:	0021001e 	.inst	0x0021001e ; NYI
   863d4:	00120021 	.inst	0x00120021 ; undefined
   863d8:	0012000c 	.inst	0x0012000c ; undefined
   863dc:	00210021 	.inst	0x00210021 ; NYI
   863e0:	001e0021 	.inst	0x001e0021 ; undefined
	...
   863f0:	00240018 	.inst	0x00240018 ; NYI
   863f4:	00420042 	.inst	0x00420042 ; undefined
   863f8:	00260042 	.inst	0x00260042 ; NYI
   863fc:	0002001a 	.inst	0x0002001a ; undefined
   86400:	00380044 	.inst	0x00380044 ; NYI
	...
   86414:	00080000 	.inst	0x00080000 ; undefined
   86418:	00000008 	udf	#8
   8641c:	00000000 	udf	#0
   86420:	00080008 	.inst	0x00080008 ; undefined
	...
   86434:	00080000 	.inst	0x00080000 ; undefined
   86438:	00000008 	udf	#8
   8643c:	00000000 	udf	#0
   86440:	00080008 	.inst	0x00080008 ; undefined
   86444:	00300008 	.inst	0x00300008 ; NYI
	...
   86454:	00080004 	.inst	0x00080004 ; undefined
   86458:	00200010 	.inst	0x00200010 ; NYI
   8645c:	00080010 	.inst	0x00080010 ; undefined
   86460:	00000004 	udf	#4
	...
   86478:	0000007f 	udf	#127
   8647c:	0000007f 	udf	#127
	...
   86494:	00080010 	.inst	0x00080010 ; undefined
   86498:	00020004 	.inst	0x00020004 ; undefined
   8649c:	00080004 	.inst	0x00080004 ; undefined
   864a0:	00000010 	udf	#16
	...
   864b0:	0042003c 	.inst	0x0042003c ; undefined
   864b4:	00020002 	.inst	0x00020002 ; undefined
   864b8:	00080004 	.inst	0x00080004 ; undefined
   864bc:	00000010 	udf	#16
   864c0:	00100010 	.inst	0x00100010 ; undefined
	...
   864d0:	0031000e 	.inst	0x0031000e ; NYI
   864d4:	00470021 	.inst	0x00470021 ; undefined
   864d8:	00490049 	.inst	0x00490049 ; undefined
   864dc:	80260049 	.inst	0x80260049 ; NYI
   864e0:	000f0030 	.inst	0x000f0030 ; undefined
	...
   864f0:	00080008 	.inst	0x00080008 ; undefined
   864f4:	00140014 	.inst	0x00140014 ; undefined
   864f8:	00220022 	.inst	0x00220022 ; NYI
   864fc:	0041007f 	.inst	0x0041007f ; undefined
   86500:	00410041 	.inst	0x00410041 ; undefined
	...
   86510:	0021003e 	.inst	0x0021003e ; NYI
   86514:	00220021 	.inst	0x00220021 ; NYI
   86518:	0022003c 	.inst	0x0022003c ; NYI
   8651c:	00210021 	.inst	0x00210021 ; NYI
   86520:	003e0021 	.inst	0x003e0021 ; NYI
	...
   86530:	0021001e 	.inst	0x0021001e ; NYI
   86534:	00400040 	.inst	0x00400040 ; undefined
   86538:	00400040 	.inst	0x00400040 ; undefined
   8653c:	00400040 	.inst	0x00400040 ; undefined
   86540:	001e0021 	.inst	0x001e0021 ; undefined
	...
   86550:	0022003c 	.inst	0x0022003c ; NYI
   86554:	00210021 	.inst	0x00210021 ; NYI
   86558:	00210021 	.inst	0x00210021 ; NYI
   8655c:	00210021 	.inst	0x00210021 ; NYI
   86560:	003c0022 	.inst	0x003c0022 ; NYI
	...
   86570:	0020003f 	.inst	0x0020003f ; NYI
   86574:	00200020 	.inst	0x00200020 ; NYI
   86578:	0020003e 	.inst	0x0020003e ; NYI
   8657c:	00200020 	.inst	0x00200020 ; NYI
   86580:	003f0020 	.inst	0x003f0020 ; NYI
	...
   86590:	0020003f 	.inst	0x0020003f ; NYI
   86594:	00200020 	.inst	0x00200020 ; NYI
   86598:	003f0020 	.inst	0x003f0020 ; NYI
   8659c:	00200020 	.inst	0x00200020 ; NYI
   865a0:	00200020 	.inst	0x00200020 ; NYI
	...
   865b0:	0021001e 	.inst	0x0021001e ; NYI
   865b4:	00400040 	.inst	0x00400040 ; undefined
   865b8:	00410040 	.inst	0x00410040 ; undefined
   865bc:	00410041 	.inst	0x00410041 ; undefined
   865c0:	001f0021 	.inst	0x001f0021 ; undefined
	...
   865d0:	00410041 	.inst	0x00410041 ; undefined
   865d4:	00410041 	.inst	0x00410041 ; undefined
   865d8:	0041007f 	.inst	0x0041007f ; undefined
   865dc:	00410041 	.inst	0x00410041 ; undefined
   865e0:	00410041 	.inst	0x00410041 ; undefined
	...
   865f0:	0008003e 	.inst	0x0008003e ; undefined
   865f4:	00080008 	.inst	0x00080008 ; undefined
   865f8:	00080008 	.inst	0x00080008 ; undefined
   865fc:	00080008 	.inst	0x00080008 ; undefined
   86600:	003e0008 	.inst	0x003e0008 ; NYI
	...
   86610:	0004003c 	.inst	0x0004003c ; undefined
   86614:	00040004 	.inst	0x00040004 ; undefined
   86618:	00040004 	.inst	0x00040004 ; undefined
   8661c:	00040004 	.inst	0x00040004 ; undefined
   86620:	00700008 	.inst	0x00700008 ; undefined
	...
   86630:	00220021 	.inst	0x00220021 ; NYI
   86634:	00280024 	.inst	0x00280024 ; NYI
   86638:	00280030 	.inst	0x00280030 ; NYI
   8663c:	00220024 	.inst	0x00220024 ; NYI
   86640:	00210021 	.inst	0x00210021 ; NYI
	...
   86650:	00200020 	.inst	0x00200020 ; NYI
   86654:	00200020 	.inst	0x00200020 ; NYI
   86658:	00200020 	.inst	0x00200020 ; NYI
   8665c:	00200020 	.inst	0x00200020 ; NYI
   86660:	003f0020 	.inst	0x003f0020 ; NYI
	...
   86670:	00630063 	.inst	0x00630063 ; undefined
   86674:	00550055 	.inst	0x00550055 ; undefined
   86678:	00550055 	.inst	0x00550055 ; undefined
   8667c:	00490049 	.inst	0x00490049 ; undefined
   86680:	00410041 	.inst	0x00410041 ; undefined
	...
   86690:	00610061 	.inst	0x00610061 ; undefined
   86694:	00510051 	.inst	0x00510051 ; undefined
   86698:	00490049 	.inst	0x00490049 ; undefined
   8669c:	00450045 	.inst	0x00450045 ; undefined
   866a0:	00430043 	.inst	0x00430043 ; undefined
	...
   866b0:	0022001c 	.inst	0x0022001c ; NYI
   866b4:	00410041 	.inst	0x00410041 ; undefined
   866b8:	00410041 	.inst	0x00410041 ; undefined
   866bc:	00410041 	.inst	0x00410041 ; undefined
   866c0:	001c0022 	.inst	0x001c0022 ; undefined
	...
   866d0:	0021003e 	.inst	0x0021003e ; NYI
   866d4:	00210021 	.inst	0x00210021 ; NYI
   866d8:	003c0022 	.inst	0x003c0022 ; NYI
   866dc:	00200020 	.inst	0x00200020 ; NYI
   866e0:	00200020 	.inst	0x00200020 ; NYI
	...
   866f0:	0022001c 	.inst	0x0022001c ; NYI
   866f4:	00410041 	.inst	0x00410041 ; undefined
   866f8:	00410041 	.inst	0x00410041 ; undefined
   866fc:	00410041 	.inst	0x00410041 ; undefined
   86700:	001c0022 	.inst	0x001c0022 ; undefined
   86704:	80010002 	.inst	0x80010002 ; undefined
	...
   86710:	0021003e 	.inst	0x0021003e ; NYI
   86714:	00210021 	.inst	0x00210021 ; NYI
   86718:	003c0022 	.inst	0x003c0022 ; NYI
   8671c:	00220022 	.inst	0x00220022 ; NYI
   86720:	00210021 	.inst	0x00210021 ; NYI
	...
   86730:	0041003e 	.inst	0x0041003e ; undefined
   86734:	00400040 	.inst	0x00400040 ; undefined
   86738:	000e0030 	.inst	0x000e0030 ; undefined
   8673c:	00010001 	.inst	0x00010001 ; undefined
   86740:	003e0041 	.inst	0x003e0041 ; NYI
	...
   86750:	0008007f 	.inst	0x0008007f ; undefined
   86754:	00080008 	.inst	0x00080008 ; undefined
   86758:	00080008 	.inst	0x00080008 ; undefined
   8675c:	00080008 	.inst	0x00080008 ; undefined
   86760:	00080008 	.inst	0x00080008 ; undefined
	...
   86770:	00410041 	.inst	0x00410041 ; undefined
   86774:	00410041 	.inst	0x00410041 ; undefined
   86778:	00410041 	.inst	0x00410041 ; undefined
   8677c:	00410041 	.inst	0x00410041 ; undefined
   86780:	001c0022 	.inst	0x001c0022 ; undefined
	...
   86790:	00410041 	.inst	0x00410041 ; undefined
   86794:	00220041 	.inst	0x00220041 ; NYI
   86798:	00220022 	.inst	0x00220022 ; NYI
   8679c:	00140014 	.inst	0x00140014 ; undefined
   867a0:	00080008 	.inst	0x00080008 ; undefined
	...
   867b0:	00490041 	.inst	0x00490041 ; undefined
   867b4:	00550049 	.inst	0x00550049 ; undefined
   867b8:	00550055 	.inst	0x00550055 ; undefined
   867bc:	00220022 	.inst	0x00220022 ; NYI
   867c0:	00220022 	.inst	0x00220022 ; NYI
	...
   867d0:	00410041 	.inst	0x00410041 ; undefined
   867d4:	00140022 	.inst	0x00140022 ; undefined
   867d8:	00140008 	.inst	0x00140008 ; undefined
   867dc:	00220022 	.inst	0x00220022 ; NYI
   867e0:	00410041 	.inst	0x00410041 ; undefined
	...
   867f0:	00410041 	.inst	0x00410041 ; undefined
   867f4:	00220022 	.inst	0x00220022 ; NYI
   867f8:	0008001c 	.inst	0x0008001c ; undefined
   867fc:	00080008 	.inst	0x00080008 ; undefined
   86800:	00080008 	.inst	0x00080008 ; undefined
	...
   86810:	0001007f 	.inst	0x0001007f ; undefined
   86814:	00040002 	.inst	0x00040002 ; undefined
   86818:	00100008 	.inst	0x00100008 ; undefined
   8681c:	00400020 	.inst	0x00400020 ; undefined
   86820:	007f0040 	.inst	0x007f0040 ; undefined
	...
   8682c:	001e0000 	.inst	0x001e0000 ; undefined
   86830:	00100010 	.inst	0x00100010 ; undefined
   86834:	00100010 	.inst	0x00100010 ; undefined
   86838:	00100010 	.inst	0x00100010 ; undefined
   8683c:	00100010 	.inst	0x00100010 ; undefined
   86840:	00100010 	.inst	0x00100010 ; undefined
   86844:	0000001e 	udf	#30
   86848:	00000000 	udf	#0
   8684c:	00200000 	.inst	0x00200000 ; NYI
   86850:	00100020 	.inst	0x00100020 ; undefined
   86854:	00080010 	.inst	0x00080010 ; undefined
   86858:	00040008 	.inst	0x00040008 ; undefined
   8685c:	00020004 	.inst	0x00020004 ; undefined
   86860:	00010002 	.inst	0x00010002 ; undefined
   86864:	00000001 	udf	#1
   86868:	00000000 	udf	#0
   8686c:	003c0000 	.inst	0x003c0000 ; NYI
   86870:	00040004 	.inst	0x00040004 ; undefined
   86874:	00040004 	.inst	0x00040004 ; undefined
   86878:	00040004 	.inst	0x00040004 ; undefined
   8687c:	00040004 	.inst	0x00040004 ; undefined
   86880:	00040004 	.inst	0x00040004 ; undefined
   86884:	0000003c 	udf	#60
	...
   86890:	00080008 	.inst	0x00080008 ; undefined
   86894:	00140014 	.inst	0x00140014 ; undefined
   86898:	00220022 	.inst	0x00220022 ; NYI
   8689c:	00000022 	udf	#34
	...
   868c4:	000080ff 	udf	#33023
   868c8:	00000000 	udf	#0
   868cc:	00100000 	.inst	0x00100000 ; undefined
   868d0:	00100010 	.inst	0x00100010 ; undefined
   868d4:	0000000c 	udf	#12
	...
   868f4:	0002003c 	.inst	0x0002003c ; undefined
   868f8:	003e0002 	.inst	0x003e0002 ; NYI
   868fc:	00420042 	.inst	0x00420042 ; undefined
   86900:	80390046 	.inst	0x80390046 ; NYI
	...
   8690c:	00400000 	.inst	0x00400000 ; undefined
   86910:	00400040 	.inst	0x00400040 ; undefined
   86914:	0062005c 	.inst	0x0062005c ; undefined
   86918:	00410041 	.inst	0x00410041 ; undefined
   8691c:	00410041 	.inst	0x00410041 ; undefined
   86920:	007c0042 	.inst	0x007c0042 ; undefined
	...
   86934:	0021001e 	.inst	0x0021001e ; NYI
   86938:	00400040 	.inst	0x00400040 ; undefined
   8693c:	00400040 	.inst	0x00400040 ; undefined
   86940:	001e0021 	.inst	0x001e0021 ; undefined
	...
   8694c:	00010000 	.inst	0x00010000 ; undefined
   86950:	00010001 	.inst	0x00010001 ; undefined
   86954:	0021001f 	.inst	0x0021001f ; NYI
   86958:	00410041 	.inst	0x00410041 ; undefined
   8695c:	00410041 	.inst	0x00410041 ; undefined
   86960:	001d0023 	.inst	0x001d0023 ; undefined
	...
   86974:	0021001e 	.inst	0x0021001e ; NYI
   86978:	007f0041 	.inst	0x007f0041 ; undefined
   8697c:	00400040 	.inst	0x00400040 ; undefined
   86980:	001e0021 	.inst	0x001e0021 ; undefined
	...
   8698c:	000f0000 	.inst	0x000f0000 ; undefined
   86990:	00100010 	.inst	0x00100010 ; undefined
   86994:	007f0010 	.inst	0x007f0010 ; undefined
   86998:	00100010 	.inst	0x00100010 ; undefined
   8699c:	00100010 	.inst	0x00100010 ; undefined
   869a0:	00100010 	.inst	0x00100010 ; undefined
	...
   869b4:	0021001f 	.inst	0x0021001f ; NYI
   869b8:	00410041 	.inst	0x00410041 ; undefined
   869bc:	00230041 	.inst	0x00230041 ; NYI
   869c0:	0001001d 	.inst	0x0001001d ; undefined
   869c4:	003c0042 	.inst	0x003c0042 ; NYI
   869c8:	00000000 	udf	#0
   869cc:	00400000 	.inst	0x00400000 ; undefined
   869d0:	00400040 	.inst	0x00400040 ; undefined
   869d4:	0053004e 	.inst	0x0053004e ; undefined
   869d8:	00410061 	.inst	0x00410061 ; undefined
   869dc:	00410041 	.inst	0x00410041 ; undefined
   869e0:	00410041 	.inst	0x00410041 ; undefined
	...
   869ec:	00040000 	.inst	0x00040000 ; undefined
   869f0:	00000004 	udf	#4
   869f4:	0004003c 	.inst	0x0004003c ; undefined
   869f8:	00040004 	.inst	0x00040004 ; undefined
   869fc:	00040004 	.inst	0x00040004 ; undefined
   86a00:	00040004 	.inst	0x00040004 ; undefined
	...
   86a0c:	00040000 	.inst	0x00040000 ; undefined
   86a10:	00000004 	udf	#4
   86a14:	0004003c 	.inst	0x0004003c ; undefined
   86a18:	00040004 	.inst	0x00040004 ; undefined
   86a1c:	00040004 	.inst	0x00040004 ; undefined
   86a20:	00040004 	.inst	0x00040004 ; undefined
   86a24:	00700008 	.inst	0x00700008 ; undefined
   86a28:	00000000 	udf	#0
   86a2c:	00400000 	.inst	0x00400000 ; undefined
   86a30:	00400040 	.inst	0x00400040 ; undefined
   86a34:	00440042 	.inst	0x00440042 ; undefined
   86a38:	00700048 	.inst	0x00700048 ; undefined
   86a3c:	00440048 	.inst	0x00440048 ; undefined
   86a40:	00410042 	.inst	0x00410042 ; undefined
	...
   86a4c:	00780000 	.inst	0x00780000 ; undefined
   86a50:	00080008 	.inst	0x00080008 ; undefined
   86a54:	00080008 	.inst	0x00080008 ; undefined
   86a58:	00080008 	.inst	0x00080008 ; undefined
   86a5c:	00080008 	.inst	0x00080008 ; undefined
   86a60:	00080008 	.inst	0x00080008 ; undefined
	...
   86a74:	006d0052 	.inst	0x006d0052 ; undefined
   86a78:	00490049 	.inst	0x00490049 ; undefined
   86a7c:	00490049 	.inst	0x00490049 ; undefined
   86a80:	00490049 	.inst	0x00490049 ; undefined
	...
   86a94:	0053004e 	.inst	0x0053004e ; undefined
   86a98:	00410061 	.inst	0x00410061 ; undefined
   86a9c:	00410041 	.inst	0x00410041 ; undefined
   86aa0:	00410041 	.inst	0x00410041 ; undefined
	...
   86ab4:	0022001c 	.inst	0x0022001c ; NYI
   86ab8:	00410041 	.inst	0x00410041 ; undefined
   86abc:	00410041 	.inst	0x00410041 ; undefined
   86ac0:	001c0022 	.inst	0x001c0022 ; undefined
	...
   86ad4:	0052004c 	.inst	0x0052004c ; undefined
   86ad8:	00410061 	.inst	0x00410061 ; undefined
   86adc:	00410041 	.inst	0x00410041 ; undefined
   86ae0:	007c0042 	.inst	0x007c0042 ; undefined
   86ae4:	00400040 	.inst	0x00400040 ; undefined
	...
   86af4:	0021001f 	.inst	0x0021001f ; NYI
   86af8:	00410041 	.inst	0x00410041 ; undefined
   86afc:	00430041 	.inst	0x00430041 ; undefined
   86b00:	00190025 	.inst	0x00190025 ; undefined
   86b04:	00010001 	.inst	0x00010001 ; undefined
	...
   86b14:	002d0023 	.inst	0x002d0023 ; NYI
   86b18:	00200030 	.inst	0x00200030 ; NYI
   86b1c:	00200020 	.inst	0x00200020 ; NYI
   86b20:	00200020 	.inst	0x00200020 ; NYI
	...
   86b34:	0041003e 	.inst	0x0041003e ; undefined
   86b38:	00380040 	.inst	0x00380040 ; NYI
   86b3c:	00010006 	.inst	0x00010006 ; undefined
   86b40:	003e0041 	.inst	0x003e0041 ; NYI
	...
   86b50:	00080008 	.inst	0x00080008 ; undefined
   86b54:	0008007f 	.inst	0x0008007f ; undefined
   86b58:	00080008 	.inst	0x00080008 ; undefined
   86b5c:	00080008 	.inst	0x00080008 ; undefined
   86b60:	00070008 	.inst	0x00070008 ; undefined
	...
   86b74:	00410041 	.inst	0x00410041 ; undefined
   86b78:	00410041 	.inst	0x00410041 ; undefined
   86b7c:	00430041 	.inst	0x00430041 ; undefined
   86b80:	00390065 	.inst	0x00390065 ; NYI
	...
   86b94:	00410041 	.inst	0x00410041 ; undefined
   86b98:	00220022 	.inst	0x00220022 ; NYI
   86b9c:	00140014 	.inst	0x00140014 ; undefined
   86ba0:	00080008 	.inst	0x00080008 ; undefined
	...
   86bb4:	00490041 	.inst	0x00490041 ; undefined
   86bb8:	00550049 	.inst	0x00550049 ; undefined
   86bbc:	00220055 	.inst	0x00220055 ; NYI
   86bc0:	00220022 	.inst	0x00220022 ; NYI
	...
   86bd4:	00220041 	.inst	0x00220041 ; NYI
   86bd8:	00080014 	.inst	0x00080014 ; undefined
   86bdc:	00220014 	.inst	0x00220014 ; NYI
   86be0:	00410041 	.inst	0x00410041 ; undefined
	...
   86bf4:	00410041 	.inst	0x00410041 ; undefined
   86bf8:	00220022 	.inst	0x00220022 ; NYI
   86bfc:	00140014 	.inst	0x00140014 ; undefined
   86c00:	00080008 	.inst	0x00080008 ; undefined
   86c04:	00300010 	.inst	0x00300010 ; NYI
	...
   86c14:	0002007f 	.inst	0x0002007f ; undefined
   86c18:	00080004 	.inst	0x00080004 ; undefined
   86c1c:	00200010 	.inst	0x00200010 ; NYI
   86c20:	007f0040 	.inst	0x007f0040 ; undefined
	...
   86c2c:	000f0000 	.inst	0x000f0000 ; undefined
   86c30:	00100010 	.inst	0x00100010 ; undefined
   86c34:	00040008 	.inst	0x00040008 ; undefined
   86c38:	00040038 	.inst	0x00040038 ; undefined
   86c3c:	00100008 	.inst	0x00100008 ; undefined
   86c40:	00100010 	.inst	0x00100010 ; undefined
   86c44:	0000000f 	udf	#15
   86c48:	00000000 	udf	#0
   86c4c:	00080000 	.inst	0x00080000 ; undefined
   86c50:	00080008 	.inst	0x00080008 ; undefined
   86c54:	00080008 	.inst	0x00080008 ; undefined
   86c58:	00080008 	.inst	0x00080008 ; undefined
   86c5c:	00080008 	.inst	0x00080008 ; undefined
   86c60:	00080008 	.inst	0x00080008 ; undefined
   86c64:	00000008 	udf	#8
   86c68:	00000000 	udf	#0
   86c6c:	00780000 	.inst	0x00780000 ; undefined
   86c70:	00040004 	.inst	0x00040004 ; undefined
   86c74:	00100008 	.inst	0x00100008 ; undefined
   86c78:	0010000e 	.inst	0x0010000e ; undefined
   86c7c:	00040008 	.inst	0x00040008 ; undefined
   86c80:	00040004 	.inst	0x00040004 ; undefined
   86c84:	00000078 	udf	#120
	...
   86c98:	00490031 	.inst	0x00490031 ; undefined
   86c9c:	00000046 	udf	#70
	...
   86cb8:	00180000 	.inst	0x00180000 ; undefined
   86cbc:	00000018 	udf	#24
	...
   86cc8:	00300000 	.inst	0x00300000 ; NYI
   86ccc:	0000000c 	udf	#12
   86cd0:	00080008 	.inst	0x00080008 ; undefined
   86cd4:	00140014 	.inst	0x00140014 ; undefined
   86cd8:	00220022 	.inst	0x00220022 ; NYI
   86cdc:	0041007f 	.inst	0x0041007f ; undefined
   86ce0:	00410041 	.inst	0x00410041 ; undefined
   86ce4:	00000000 	udf	#0
   86ce8:	00060000 	.inst	0x00060000 ; undefined
   86cec:	00000018 	udf	#24
   86cf0:	00080008 	.inst	0x00080008 ; undefined
   86cf4:	00140014 	.inst	0x00140014 ; undefined
   86cf8:	00220022 	.inst	0x00220022 ; NYI
   86cfc:	0041007f 	.inst	0x0041007f ; undefined
   86d00:	00410041 	.inst	0x00410041 ; undefined
   86d04:	00000000 	udf	#0
   86d08:	000c0000 	.inst	0x000c0000 ; undefined
   86d0c:	00000012 	udf	#18
   86d10:	00080008 	.inst	0x00080008 ; undefined
   86d14:	00140014 	.inst	0x00140014 ; undefined
   86d18:	00220022 	.inst	0x00220022 ; NYI
   86d1c:	0041007f 	.inst	0x0041007f ; undefined
   86d20:	00410041 	.inst	0x00410041 ; undefined
   86d24:	00000000 	udf	#0
   86d28:	000d0000 	.inst	0x000d0000 ; undefined
   86d2c:	00000016 	udf	#22
   86d30:	00080008 	.inst	0x00080008 ; undefined
   86d34:	00140014 	.inst	0x00140014 ; undefined
   86d38:	00220022 	.inst	0x00220022 ; NYI
   86d3c:	0041007f 	.inst	0x0041007f ; undefined
   86d40:	00410041 	.inst	0x00410041 ; undefined
   86d44:	00000000 	udf	#0
   86d48:	00220000 	.inst	0x00220000 ; NYI
   86d4c:	00000022 	udf	#34
   86d50:	00080008 	.inst	0x00080008 ; undefined
   86d54:	00140014 	.inst	0x00140014 ; undefined
   86d58:	00220022 	.inst	0x00220022 ; NYI
   86d5c:	0041007f 	.inst	0x0041007f ; undefined
   86d60:	00410041 	.inst	0x00410041 ; undefined
	...
   86d6c:	00140008 	.inst	0x00140008 ; undefined
   86d70:	00080008 	.inst	0x00080008 ; undefined
   86d74:	00140014 	.inst	0x00140014 ; undefined
   86d78:	00220022 	.inst	0x00220022 ; NYI
   86d7c:	0041007f 	.inst	0x0041007f ; undefined
   86d80:	00410041 	.inst	0x00410041 ; undefined
	...
   86d90:	000c800f 	.inst	0x000c800f ; undefined
   86d94:	00140014 	.inst	0x00140014 ; undefined
   86d98:	00240027 	.inst	0x00240027 ; NYI
   86d9c:	0044003c 	.inst	0x0044003c ; undefined
   86da0:	80470044 	.inst	0x80470044 ; undefined
	...
   86db0:	0021001e 	.inst	0x0021001e ; NYI
   86db4:	00400040 	.inst	0x00400040 ; undefined
   86db8:	00400040 	.inst	0x00400040 ; undefined
   86dbc:	00400040 	.inst	0x00400040 ; undefined
   86dc0:	001e0021 	.inst	0x001e0021 ; undefined
   86dc4:	00180004 	.inst	0x00180004 ; undefined
   86dc8:	00180000 	.inst	0x00180000 ; undefined
   86dcc:	00000006 	udf	#6
   86dd0:	0020003f 	.inst	0x0020003f ; NYI
   86dd4:	00200020 	.inst	0x00200020 ; NYI
   86dd8:	0020003e 	.inst	0x0020003e ; NYI
   86ddc:	00200020 	.inst	0x00200020 ; NYI
   86de0:	003f0020 	.inst	0x003f0020 ; NYI
   86de4:	00000000 	udf	#0
   86de8:	00060000 	.inst	0x00060000 ; undefined
   86dec:	00000018 	udf	#24
   86df0:	0020003f 	.inst	0x0020003f ; NYI
   86df4:	00200020 	.inst	0x00200020 ; NYI
   86df8:	0020003e 	.inst	0x0020003e ; NYI
   86dfc:	00200020 	.inst	0x00200020 ; NYI
   86e00:	003f0020 	.inst	0x003f0020 ; NYI
   86e04:	00000000 	udf	#0
   86e08:	000c0000 	.inst	0x000c0000 ; undefined
   86e0c:	00000012 	udf	#18
   86e10:	0020003f 	.inst	0x0020003f ; NYI
   86e14:	00200020 	.inst	0x00200020 ; NYI
   86e18:	0020003e 	.inst	0x0020003e ; NYI
   86e1c:	00200020 	.inst	0x00200020 ; NYI
   86e20:	003f0020 	.inst	0x003f0020 ; NYI
   86e24:	00000000 	udf	#0
   86e28:	00120000 	.inst	0x00120000 ; undefined
   86e2c:	00000012 	udf	#18
   86e30:	0020003f 	.inst	0x0020003f ; NYI
   86e34:	00200020 	.inst	0x00200020 ; NYI
   86e38:	0020003e 	.inst	0x0020003e ; NYI
   86e3c:	00200020 	.inst	0x00200020 ; NYI
   86e40:	003f0020 	.inst	0x003f0020 ; NYI
   86e44:	00000000 	udf	#0
   86e48:	00300000 	.inst	0x00300000 ; NYI
   86e4c:	0000000c 	udf	#12
   86e50:	0008003e 	.inst	0x0008003e ; undefined
   86e54:	00080008 	.inst	0x00080008 ; undefined
   86e58:	00080008 	.inst	0x00080008 ; undefined
   86e5c:	00080008 	.inst	0x00080008 ; undefined
   86e60:	003e0008 	.inst	0x003e0008 ; NYI
   86e64:	00000000 	udf	#0
   86e68:	00060000 	.inst	0x00060000 ; undefined
   86e6c:	00000018 	udf	#24
   86e70:	0008003e 	.inst	0x0008003e ; undefined
   86e74:	00080008 	.inst	0x00080008 ; undefined
   86e78:	00080008 	.inst	0x00080008 ; undefined
   86e7c:	00080008 	.inst	0x00080008 ; undefined
   86e80:	003e0008 	.inst	0x003e0008 ; NYI
   86e84:	00000000 	udf	#0
   86e88:	000c0000 	.inst	0x000c0000 ; undefined
   86e8c:	00000012 	udf	#18
   86e90:	0008003e 	.inst	0x0008003e ; undefined
   86e94:	00080008 	.inst	0x00080008 ; undefined
   86e98:	00080008 	.inst	0x00080008 ; undefined
   86e9c:	00080008 	.inst	0x00080008 ; undefined
   86ea0:	003e0008 	.inst	0x003e0008 ; NYI
   86ea4:	00000000 	udf	#0
   86ea8:	00220000 	.inst	0x00220000 ; NYI
   86eac:	00000022 	udf	#34
   86eb0:	0008003e 	.inst	0x0008003e ; undefined
   86eb4:	00080008 	.inst	0x00080008 ; undefined
   86eb8:	00080008 	.inst	0x00080008 ; undefined
   86ebc:	00080008 	.inst	0x00080008 ; undefined
   86ec0:	003e0008 	.inst	0x003e0008 ; NYI
	...
   86ed0:	0022003c 	.inst	0x0022003c ; NYI
   86ed4:	00210021 	.inst	0x00210021 ; NYI
   86ed8:	002100f9 	.inst	0x002100f9 ; NYI
   86edc:	00210021 	.inst	0x00210021 ; NYI
   86ee0:	003c0022 	.inst	0x003c0022 ; NYI
   86ee4:	00000000 	udf	#0
   86ee8:	001a0000 	.inst	0x001a0000 ; undefined
   86eec:	0000002c 	udf	#44
   86ef0:	00610061 	.inst	0x00610061 ; undefined
   86ef4:	00510051 	.inst	0x00510051 ; undefined
   86ef8:	00490049 	.inst	0x00490049 ; undefined
   86efc:	00450045 	.inst	0x00450045 ; undefined
   86f00:	00430043 	.inst	0x00430043 ; undefined
   86f04:	00000000 	udf	#0
   86f08:	00300000 	.inst	0x00300000 ; NYI
   86f0c:	0000000c 	udf	#12
   86f10:	0022001c 	.inst	0x0022001c ; NYI
   86f14:	00410041 	.inst	0x00410041 ; undefined
   86f18:	00410041 	.inst	0x00410041 ; undefined
   86f1c:	00410041 	.inst	0x00410041 ; undefined
   86f20:	001c0022 	.inst	0x001c0022 ; undefined
   86f24:	00000000 	udf	#0
   86f28:	00060000 	.inst	0x00060000 ; undefined
   86f2c:	00000018 	udf	#24
   86f30:	0022001c 	.inst	0x0022001c ; NYI
   86f34:	00410041 	.inst	0x00410041 ; undefined
   86f38:	00410041 	.inst	0x00410041 ; undefined
   86f3c:	00410041 	.inst	0x00410041 ; undefined
   86f40:	001c0022 	.inst	0x001c0022 ; undefined
   86f44:	00000000 	udf	#0
   86f48:	000c0000 	.inst	0x000c0000 ; undefined
   86f4c:	00000012 	udf	#18
   86f50:	0022001c 	.inst	0x0022001c ; NYI
   86f54:	00410041 	.inst	0x00410041 ; undefined
   86f58:	00410041 	.inst	0x00410041 ; undefined
   86f5c:	00410041 	.inst	0x00410041 ; undefined
   86f60:	001c0022 	.inst	0x001c0022 ; undefined
   86f64:	00000000 	udf	#0
   86f68:	001a0000 	.inst	0x001a0000 ; undefined
   86f6c:	0000002c 	udf	#44
   86f70:	0022001c 	.inst	0x0022001c ; NYI
   86f74:	00410041 	.inst	0x00410041 ; undefined
   86f78:	00410041 	.inst	0x00410041 ; undefined
   86f7c:	00410041 	.inst	0x00410041 ; undefined
   86f80:	001c0022 	.inst	0x001c0022 ; undefined
   86f84:	00000000 	udf	#0
   86f88:	00220000 	.inst	0x00220000 ; NYI
   86f8c:	00000022 	udf	#34
   86f90:	0022001c 	.inst	0x0022001c ; NYI
   86f94:	00410041 	.inst	0x00410041 ; undefined
   86f98:	00410041 	.inst	0x00410041 ; undefined
   86f9c:	00410041 	.inst	0x00410041 ; undefined
   86fa0:	001c0022 	.inst	0x001c0022 ; undefined
	...
   86fb4:	00120021 	.inst	0x00120021 ; undefined
   86fb8:	000c000c 	.inst	0x000c000c ; undefined
   86fbc:	00210012 	.inst	0x00210012 ; NYI
	...
   86fd0:	0022001d 	.inst	0x0022001d ; NYI
   86fd4:	00450045 	.inst	0x00450045 ; undefined
   86fd8:	00490049 	.inst	0x00490049 ; undefined
   86fdc:	00510051 	.inst	0x00510051 ; undefined
   86fe0:	005c0022 	.inst	0x005c0022 ; undefined
   86fe4:	00000000 	udf	#0
   86fe8:	00300000 	.inst	0x00300000 ; NYI
   86fec:	0000000c 	udf	#12
   86ff0:	00410041 	.inst	0x00410041 ; undefined
   86ff4:	00410041 	.inst	0x00410041 ; undefined
   86ff8:	00410041 	.inst	0x00410041 ; undefined
   86ffc:	00410041 	.inst	0x00410041 ; undefined
   87000:	001c0022 	.inst	0x001c0022 ; undefined
   87004:	00000000 	udf	#0
   87008:	00060000 	.inst	0x00060000 ; undefined
   8700c:	00000018 	udf	#24
   87010:	00410041 	.inst	0x00410041 ; undefined
   87014:	00410041 	.inst	0x00410041 ; undefined
   87018:	00410041 	.inst	0x00410041 ; undefined
   8701c:	00410041 	.inst	0x00410041 ; undefined
   87020:	001c0022 	.inst	0x001c0022 ; undefined
   87024:	00000000 	udf	#0
   87028:	000c0000 	.inst	0x000c0000 ; undefined
   8702c:	00000012 	udf	#18
   87030:	00410041 	.inst	0x00410041 ; undefined
   87034:	00410041 	.inst	0x00410041 ; undefined
   87038:	00410041 	.inst	0x00410041 ; undefined
   8703c:	00410041 	.inst	0x00410041 ; undefined
   87040:	001c0022 	.inst	0x001c0022 ; undefined
   87044:	00000000 	udf	#0
   87048:	00220000 	.inst	0x00220000 ; NYI
   8704c:	00000022 	udf	#34
   87050:	00410041 	.inst	0x00410041 ; undefined
   87054:	00410041 	.inst	0x00410041 ; undefined
   87058:	00410041 	.inst	0x00410041 ; undefined
   8705c:	00410041 	.inst	0x00410041 ; undefined
   87060:	001c0022 	.inst	0x001c0022 ; undefined
   87064:	00000000 	udf	#0
   87068:	00060000 	.inst	0x00060000 ; undefined
   8706c:	00000018 	udf	#24
   87070:	00410041 	.inst	0x00410041 ; undefined
   87074:	00220022 	.inst	0x00220022 ; NYI
   87078:	0008001c 	.inst	0x0008001c ; undefined
   8707c:	00080008 	.inst	0x00080008 ; undefined
   87080:	00080008 	.inst	0x00080008 ; undefined
	...
   87090:	00200020 	.inst	0x00200020 ; NYI
   87094:	0021003e 	.inst	0x0021003e ; NYI
   87098:	00210021 	.inst	0x00210021 ; NYI
   8709c:	003c0022 	.inst	0x003c0022 ; NYI
   870a0:	00200020 	.inst	0x00200020 ; NYI
	...
   870ac:	001c0000 	.inst	0x001c0000 ; undefined
   870b0:	00220022 	.inst	0x00220022 ; NYI
   870b4:	00280024 	.inst	0x00280024 ; NYI
   870b8:	00210026 	.inst	0x00210026 ; NYI
   870bc:	00210021 	.inst	0x00210021 ; NYI
   870c0:	002e0021 	.inst	0x002e0021 ; NYI
   870c4:	00000000 	udf	#0
   870c8:	80aa4055 	.inst	0x80aa4055 ; undefined
   870cc:	80aa4055 	.inst	0x80aa4055 ; undefined
   870d0:	80aa4055 	.inst	0x80aa4055 ; undefined
   870d4:	80aa4055 	.inst	0x80aa4055 ; undefined
   870d8:	80aa4055 	.inst	0x80aa4055 ; undefined
   870dc:	80aa4055 	.inst	0x80aa4055 ; undefined
   870e0:	80aa4055 	.inst	0x80aa4055 ; undefined
   870e4:	80aa4055 	.inst	0x80aa4055 ; undefined
	...
   870f4:	00080008 	.inst	0x00080008 ; undefined
   870f8:	00080000 	.inst	0x00080000 ; undefined
   870fc:	00080008 	.inst	0x00080008 ; undefined
   87100:	00080008 	.inst	0x00080008 ; undefined
   87104:	00080008 	.inst	0x00080008 ; undefined
   87108:	00000000 	udf	#0
   8710c:	00080000 	.inst	0x00080000 ; undefined
   87110:	001e0008 	.inst	0x001e0008 ; undefined
   87114:	00480029 	.inst	0x00480029 ; undefined
   87118:	00480048 	.inst	0x00480048 ; undefined
   8711c:	00290048 	.inst	0x00290048 ; NYI
   87120:	0008001e 	.inst	0x0008001e ; undefined
   87124:	00000008 	udf	#8
	...
   87130:	0011000e 	.inst	0x0011000e ; undefined
   87134:	00100010 	.inst	0x00100010 ; undefined
   87138:	0010007e 	.inst	0x0010007e ; undefined
   8713c:	00100010 	.inst	0x00100010 ; undefined
   87140:	007f0020 	.inst	0x007f0020 ; undefined
	...
   87150:	8010000f 	.inst	0x8010000f ; undefined
   87154:	00fe0020 	.inst	0x00fe0020 ; undefined
   87158:	00fc0020 	.inst	0x00fc0020 ; undefined
   8715c:	00200020 	.inst	0x00200020 ; NYI
   87160:	000f8010 	.inst	0x000f8010 ; undefined
	...
   87170:	00410041 	.inst	0x00410041 ; undefined
   87174:	00220022 	.inst	0x00220022 ; NYI
   87178:	003e001c 	.inst	0x003e001c ; NYI
   8717c:	003e0008 	.inst	0x003e0008 ; NYI
   87180:	00080008 	.inst	0x00080008 ; undefined
   87184:	00000000 	udf	#0
   87188:	00120000 	.inst	0x00120000 ; undefined
   8718c:	0000000c 	udf	#12
   87190:	0041003e 	.inst	0x0041003e ; undefined
   87194:	00400040 	.inst	0x00400040 ; undefined
   87198:	000e0030 	.inst	0x000e0030 ; undefined
   8719c:	00010001 	.inst	0x00010001 ; undefined
   871a0:	003e0041 	.inst	0x003e0041 ; NYI
	...
   871b0:	0022001c 	.inst	0x0022001c ; NYI
   871b4:	00180020 	.inst	0x00180020 ; undefined
   871b8:	00220024 	.inst	0x00220024 ; NYI
   871bc:	000c0012 	.inst	0x000c0012 ; undefined
   871c0:	00220002 	.inst	0x00220002 ; NYI
   871c4:	0000001c 	udf	#28
   871c8:	00000000 	udf	#0
   871cc:	00120000 	.inst	0x00120000 ; undefined
   871d0:	0000000c 	udf	#12
   871d4:	0041003e 	.inst	0x0041003e ; undefined
   871d8:	00380040 	.inst	0x00380040 ; NYI
   871dc:	00010006 	.inst	0x00010006 ; undefined
   871e0:	003e0041 	.inst	0x003e0041 ; NYI
	...
   871f0:	0021001e 	.inst	0x0021001e ; NYI
   871f4:	8050804e 	.inst	0x8050804e ; undefined
   871f8:	80508050 	.inst	0x80508050 ; undefined
   871fc:	804e8050 	.inst	0x804e8050 ; undefined
   87200:	001e0021 	.inst	0x001e0021 ; undefined
	...
   87210:	00040038 	.inst	0x00040038 ; undefined
   87214:	003c0004 	.inst	0x003c0004 ; NYI
   87218:	004c0044 	.inst	0x004c0044 ; undefined
   8721c:	00000032 	udf	#50
	...
   87234:	00110000 	.inst	0x00110000 ; undefined
   87238:	00440022 	.inst	0x00440022 ; undefined
   8723c:	00110022 	.inst	0x00110022 ; undefined
	...
   87258:	0001007f 	.inst	0x0001007f ; undefined
   8725c:	00000001 	udf	#1
	...
   87270:	80800000 	.inst	0x80800000 ; undefined
   87274:	003e0041 	.inst	0x003e0041 ; NYI
   87278:	00220022 	.inst	0x00220022 ; NYI
   8727c:	003e0022 	.inst	0x003e0022 ; NYI
   87280:	80800041 	.inst	0x80800041 ; undefined
	...
   87290:	0021001e 	.inst	0x0021001e ; NYI
   87294:	8052805c 	.inst	0x8052805c ; undefined
   87298:	8052805c 	.inst	0x8052805c ; undefined
   8729c:	001e0021 	.inst	0x001e0021 ; undefined
	...
   872ac:	001c0000 	.inst	0x001c0000 ; undefined
	...
   872d0:	00240018 	.inst	0x00240018 ; NYI
   872d4:	00180024 	.inst	0x00180024 ; undefined
	...
   872f4:	00080008 	.inst	0x00080008 ; undefined
   872f8:	0008007f 	.inst	0x0008007f ; undefined
   872fc:	00000008 	udf	#8
   87300:	0000007f 	udf	#127
	...
   87310:	0002003c 	.inst	0x0002003c ; undefined
   87314:	000c0002 	.inst	0x000c0002 ; undefined
   87318:	00200010 	.inst	0x00200010 ; NYI
   8731c:	0000003e 	udf	#62
	...
   87330:	0002003c 	.inst	0x0002003c ; undefined
   87334:	001c0002 	.inst	0x001c0002 ; undefined
   87338:	00020002 	.inst	0x00020002 ; undefined
   8733c:	0000003c 	udf	#60
	...
   87348:	00120000 	.inst	0x00120000 ; undefined
   8734c:	0000000c 	udf	#12
   87350:	0001007f 	.inst	0x0001007f ; undefined
   87354:	00040002 	.inst	0x00040002 ; undefined
   87358:	00100008 	.inst	0x00100008 ; undefined
   8735c:	00400020 	.inst	0x00400020 ; undefined
   87360:	007f0040 	.inst	0x007f0040 ; undefined
	...
   87374:	00410041 	.inst	0x00410041 ; undefined
   87378:	00410041 	.inst	0x00410041 ; undefined
   8737c:	00430041 	.inst	0x00430041 ; undefined
   87380:	00590065 	.inst	0x00590065 ; undefined
   87384:	00400040 	.inst	0x00400040 ; undefined
	...
   87390:	004a003e 	.inst	0x004a003e ; undefined
   87394:	004a004a 	.inst	0x004a004a ; undefined
   87398:	000a003a 	.inst	0x000a003a ; undefined
   8739c:	000a000a 	.inst	0x000a000a ; undefined
   873a0:	000a000a 	.inst	0x000a000a ; undefined
   873a4:	0000000a 	udf	#10
	...
   873b8:	00080000 	.inst	0x00080000 ; undefined
   873bc:	00000008 	udf	#8
	...
   873cc:	00120000 	.inst	0x00120000 ; undefined
   873d0:	0000000c 	udf	#12
   873d4:	0002007f 	.inst	0x0002007f ; undefined
   873d8:	00080004 	.inst	0x00080004 ; undefined
   873dc:	00200010 	.inst	0x00200010 ; NYI
   873e0:	007f0040 	.inst	0x007f0040 ; undefined
	...
   873f0:	00280018 	.inst	0x00280018 ; NYI
   873f4:	00080008 	.inst	0x00080008 ; undefined
   873f8:	00080008 	.inst	0x00080008 ; undefined
   873fc:	0000003e 	udf	#62
	...
   87410:	00240018 	.inst	0x00240018 ; NYI
   87414:	00420042 	.inst	0x00420042 ; undefined
   87418:	00240042 	.inst	0x00240042 ; NYI
   8741c:	00000018 	udf	#24
	...
   87434:	00440000 	.inst	0x00440000 ; undefined
   87438:	00110022 	.inst	0x00110022 ; undefined
   8743c:	00440022 	.inst	0x00440022 ; undefined
	...
   87450:	0024801f 	.inst	0x0024801f ; NYI
   87454:	00440044 	.inst	0x00440044 ; undefined
   87458:	00448047 	.inst	0x00448047 ; undefined
   8745c:	00440044 	.inst	0x00440044 ; undefined
   87460:	801f0024 	.inst	0x801f0024 ; undefined
	...
   87474:	00490036 	.inst	0x00490036 ; undefined
   87478:	004f0049 	.inst	0x004f0049 ; undefined
   8747c:	00480048 	.inst	0x00480048 ; undefined
   87480:	0036004d 	.inst	0x0036004d ; NYI
   87484:	00000000 	udf	#0
   87488:	00220000 	.inst	0x00220000 ; NYI
   8748c:	00000022 	udf	#34
   87490:	00410041 	.inst	0x00410041 ; undefined
   87494:	00220022 	.inst	0x00220022 ; NYI
   87498:	0008001c 	.inst	0x0008001c ; undefined
   8749c:	00080008 	.inst	0x00080008 ; undefined
   874a0:	00080008 	.inst	0x00080008 ; undefined
	...
   874b4:	00040004 	.inst	0x00040004 ; undefined
   874b8:	00040000 	.inst	0x00040000 ; undefined
   874bc:	00100008 	.inst	0x00100008 ; undefined
   874c0:	00200020 	.inst	0x00200020 ; NYI
   874c4:	001e0021 	.inst	0x001e0021 ; undefined
	...
   874d8:	0000c0ff 	udf	#49407
	...
   874e8:	00080008 	.inst	0x00080008 ; undefined
   874ec:	00080008 	.inst	0x00080008 ; undefined
   874f0:	00080008 	.inst	0x00080008 ; undefined
   874f4:	00080008 	.inst	0x00080008 ; undefined
   874f8:	00080008 	.inst	0x00080008 ; undefined
   874fc:	00080008 	.inst	0x00080008 ; undefined
   87500:	00080008 	.inst	0x00080008 ; undefined
   87504:	00080008 	.inst	0x00080008 ; undefined
	...
   87518:	0008c00f 	.inst	0x0008c00f ; undefined
   8751c:	00080008 	.inst	0x00080008 ; undefined
   87520:	00080008 	.inst	0x00080008 ; undefined
   87524:	00080008 	.inst	0x00080008 ; undefined
	...
   87538:	000800f8 	.inst	0x000800f8 ; undefined
   8753c:	00080008 	.inst	0x00080008 ; undefined
   87540:	00080008 	.inst	0x00080008 ; undefined
   87544:	00080008 	.inst	0x00080008 ; undefined
   87548:	00080008 	.inst	0x00080008 ; undefined
   8754c:	00080008 	.inst	0x00080008 ; undefined
   87550:	00080008 	.inst	0x00080008 ; undefined
   87554:	00080008 	.inst	0x00080008 ; undefined
   87558:	0000c00f 	udf	#49167
	...
   87568:	00080008 	.inst	0x00080008 ; undefined
   8756c:	00080008 	.inst	0x00080008 ; undefined
   87570:	00080008 	.inst	0x00080008 ; undefined
   87574:	00080008 	.inst	0x00080008 ; undefined
   87578:	000000f8 	udf	#248
	...
   87588:	00080008 	.inst	0x00080008 ; undefined
   8758c:	00080008 	.inst	0x00080008 ; undefined
   87590:	00080008 	.inst	0x00080008 ; undefined
   87594:	00080008 	.inst	0x00080008 ; undefined
   87598:	0008c00f 	.inst	0x0008c00f ; undefined
   8759c:	00080008 	.inst	0x00080008 ; undefined
   875a0:	00080008 	.inst	0x00080008 ; undefined
   875a4:	00080008 	.inst	0x00080008 ; undefined
   875a8:	00080008 	.inst	0x00080008 ; undefined
   875ac:	00080008 	.inst	0x00080008 ; undefined
   875b0:	00080008 	.inst	0x00080008 ; undefined
   875b4:	00080008 	.inst	0x00080008 ; undefined
   875b8:	000800f8 	.inst	0x000800f8 ; undefined
   875bc:	00080008 	.inst	0x00080008 ; undefined
   875c0:	00080008 	.inst	0x00080008 ; undefined
   875c4:	00080008 	.inst	0x00080008 ; undefined
	...
   875d8:	0008c0ff 	.inst	0x0008c0ff ; undefined
   875dc:	00080008 	.inst	0x00080008 ; undefined
   875e0:	00080008 	.inst	0x00080008 ; undefined
   875e4:	00080008 	.inst	0x00080008 ; undefined
   875e8:	00080008 	.inst	0x00080008 ; undefined
   875ec:	00080008 	.inst	0x00080008 ; undefined
   875f0:	00080008 	.inst	0x00080008 ; undefined
   875f4:	00080008 	.inst	0x00080008 ; undefined
   875f8:	0000c0ff 	udf	#49407
	...
   87608:	00080008 	.inst	0x00080008 ; undefined
   8760c:	00080008 	.inst	0x00080008 ; undefined
   87610:	00080008 	.inst	0x00080008 ; undefined
   87614:	00080008 	.inst	0x00080008 ; undefined
   87618:	0008c0ff 	.inst	0x0008c0ff ; undefined
   8761c:	00080008 	.inst	0x00080008 ; undefined
   87620:	00080008 	.inst	0x00080008 ; undefined
   87624:	00080008 	.inst	0x00080008 ; undefined
   87628:	00004055 	udf	#16469
   8762c:	000080aa 	udf	#32938
   87630:	00004055 	udf	#16469
   87634:	000080aa 	udf	#32938
   87638:	00004055 	udf	#16469
   8763c:	000080aa 	udf	#32938
   87640:	00004055 	udf	#16469
   87644:	000080aa 	udf	#32938
   87648:	0000c0ff 	udf	#49407
	...
   87670:	0000c0ff 	udf	#49407
	...
   876a0:	c0ff0000 	.inst	0xc0ff0000 ; undefined
	...
   876c4:	c0ff0000 	.inst	0xc0ff0000 ; undefined
	...
   876d4:	c0ff0000 	.inst	0xc0ff0000 ; undefined
   876d8:	c0ff0000 	.inst	0xc0ff0000 ; undefined
	...
   876e8:	00140014 	.inst	0x00140014 ; undefined
   876ec:	00140014 	.inst	0x00140014 ; undefined
   876f0:	00140014 	.inst	0x00140014 ; undefined
   876f4:	00140014 	.inst	0x00140014 ; undefined
   876f8:	00140014 	.inst	0x00140014 ; undefined
   876fc:	00140014 	.inst	0x00140014 ; undefined
   87700:	00140014 	.inst	0x00140014 ; undefined
   87704:	00140014 	.inst	0x00140014 ; undefined
	...
   87714:	c01f0000 	.inst	0xc01f0000 ; undefined
   87718:	c0170010 	.inst	0xc0170010 ; undefined
   8771c:	00140014 	.inst	0x00140014 ; undefined
   87720:	00140014 	.inst	0x00140014 ; undefined
   87724:	00140014 	.inst	0x00140014 ; undefined
	...
   87734:	00fc0000 	.inst	0x00fc0000 ; undefined
   87738:	00f40004 	.inst	0x00f40004 ; undefined
   8773c:	00140014 	.inst	0x00140014 ; undefined
   87740:	00140014 	.inst	0x00140014 ; undefined
   87744:	00140014 	.inst	0x00140014 ; undefined
   87748:	00140014 	.inst	0x00140014 ; undefined
   8774c:	00140014 	.inst	0x00140014 ; undefined
   87750:	00140014 	.inst	0x00140014 ; undefined
   87754:	c0170014 	.inst	0xc0170014 ; undefined
   87758:	c01f0010 	.inst	0xc01f0010 ; undefined
	...
   87768:	00140014 	.inst	0x00140014 ; undefined
   8776c:	00140014 	.inst	0x00140014 ; undefined
   87770:	00140014 	.inst	0x00140014 ; undefined
   87774:	00f40014 	.inst	0x00f40014 ; undefined
   87778:	00fc0004 	.inst	0x00fc0004 ; undefined
	...
   87788:	00140014 	.inst	0x00140014 ; undefined
   8778c:	00140014 	.inst	0x00140014 ; undefined
   87790:	00140014 	.inst	0x00140014 ; undefined
   87794:	c0170014 	.inst	0xc0170014 ; undefined
   87798:	c0170010 	.inst	0xc0170010 ; undefined
   8779c:	00140014 	.inst	0x00140014 ; undefined
   877a0:	00140014 	.inst	0x00140014 ; undefined
   877a4:	00140014 	.inst	0x00140014 ; undefined
   877a8:	00140014 	.inst	0x00140014 ; undefined
   877ac:	00140014 	.inst	0x00140014 ; undefined
   877b0:	00140014 	.inst	0x00140014 ; undefined
   877b4:	00f40014 	.inst	0x00f40014 ; undefined
   877b8:	00f40004 	.inst	0x00f40004 ; undefined
   877bc:	00140014 	.inst	0x00140014 ; undefined
   877c0:	00140014 	.inst	0x00140014 ; undefined
   877c4:	00140014 	.inst	0x00140014 ; undefined
	...
   877d4:	c0ff0000 	.inst	0xc0ff0000 ; undefined
   877d8:	c0f70000 	.inst	0xc0f70000 ; undefined
   877dc:	00140014 	.inst	0x00140014 ; undefined
   877e0:	00140014 	.inst	0x00140014 ; undefined
   877e4:	00140014 	.inst	0x00140014 ; undefined
   877e8:	00140014 	.inst	0x00140014 ; undefined
   877ec:	00140014 	.inst	0x00140014 ; undefined
   877f0:	00140014 	.inst	0x00140014 ; undefined
   877f4:	c0f70014 	.inst	0xc0f70014 ; undefined
   877f8:	c0ff0000 	.inst	0xc0ff0000 ; undefined
	...
   87808:	00140014 	.inst	0x00140014 ; undefined
   8780c:	00140014 	.inst	0x00140014 ; undefined
   87810:	00140014 	.inst	0x00140014 ; undefined
   87814:	c0f70014 	.inst	0xc0f70014 ; undefined
   87818:	c0f70000 	.inst	0xc0f70000 ; undefined
   8781c:	00140014 	.inst	0x00140014 ; undefined
   87820:	00140014 	.inst	0x00140014 ; undefined
   87824:	00140014 	.inst	0x00140014 ; undefined
   87828:	c0ffc0ff 	.inst	0xc0ffc0ff ; undefined
   8782c:	c0ffc0ff 	.inst	0xc0ffc0ff ; undefined
   87830:	c0ffc0ff 	.inst	0xc0ffc0ff ; undefined
   87834:	c0ffc0ff 	.inst	0xc0ffc0ff ; undefined
   87838:	c0ffc0ff 	.inst	0xc0ffc0ff ; undefined
   8783c:	c0ffc0ff 	.inst	0xc0ffc0ff ; undefined
   87840:	c0ffc0ff 	.inst	0xc0ffc0ff ; undefined
   87844:	c0ffc0ff 	.inst	0xc0ffc0ff ; undefined
	...
   87850:	001c0008 	.inst	0x001c0008 ; undefined
   87854:	0008002a 	.inst	0x0008002a ; undefined
   87858:	00080008 	.inst	0x00080008 ; undefined
   8785c:	00080008 	.inst	0x00080008 ; undefined
   87860:	00080008 	.inst	0x00080008 ; undefined
	...
   87870:	00080008 	.inst	0x00080008 ; undefined
   87874:	00080008 	.inst	0x00080008 ; undefined
   87878:	00080008 	.inst	0x00080008 ; undefined
   8787c:	002a0008 	.inst	0x002a0008 ; NYI
   87880:	0008001c 	.inst	0x0008001c ; undefined
	...
   87894:	00200010 	.inst	0x00200010 ; NYI
   87898:	0020c07f 	.inst	0x0020c07f ; NYI
   8789c:	00000010 	udf	#16
	...
   878b4:	00010002 	.inst	0x00010002 ; undefined
   878b8:	000180ff 	.inst	0x000180ff ; undefined
   878bc:	00000002 	udf	#2
	...
   878cc:	00300000 	.inst	0x00300000 ; NYI
   878d0:	0000000c 	udf	#12
   878d4:	0002003c 	.inst	0x0002003c ; undefined
   878d8:	003e0002 	.inst	0x003e0002 ; NYI
   878dc:	00420042 	.inst	0x00420042 ; undefined
   878e0:	80390046 	.inst	0x80390046 ; NYI
	...
   878ec:	00060000 	.inst	0x00060000 ; undefined
   878f0:	00000018 	udf	#24
   878f4:	0002003c 	.inst	0x0002003c ; undefined
   878f8:	003e0002 	.inst	0x003e0002 ; NYI
   878fc:	00420042 	.inst	0x00420042 ; undefined
   87900:	80390046 	.inst	0x80390046 ; NYI
	...
   8790c:	000c0000 	.inst	0x000c0000 ; undefined
   87910:	00000012 	udf	#18
   87914:	0002003c 	.inst	0x0002003c ; undefined
   87918:	003e0002 	.inst	0x003e0002 ; NYI
   8791c:	00420042 	.inst	0x00420042 ; undefined
   87920:	80390046 	.inst	0x80390046 ; NYI
	...
   8792c:	001a0000 	.inst	0x001a0000 ; undefined
   87930:	0000002c 	udf	#44
   87934:	0002003c 	.inst	0x0002003c ; undefined
   87938:	003e0002 	.inst	0x003e0002 ; NYI
   8793c:	00420042 	.inst	0x00420042 ; undefined
   87940:	80390046 	.inst	0x80390046 ; NYI
	...
   8794c:	00140000 	.inst	0x00140000 ; undefined
   87950:	00000014 	udf	#20
   87954:	0002003c 	.inst	0x0002003c ; undefined
   87958:	003e0002 	.inst	0x003e0002 ; NYI
   8795c:	00420042 	.inst	0x00420042 ; undefined
   87960:	80390046 	.inst	0x80390046 ; NYI
	...
   8796c:	00080000 	.inst	0x00080000 ; undefined
   87970:	00080014 	.inst	0x00080014 ; undefined
   87974:	0002003c 	.inst	0x0002003c ; undefined
   87978:	003e0002 	.inst	0x003e0002 ; NYI
   8797c:	00420042 	.inst	0x00420042 ; undefined
   87980:	80390046 	.inst	0x80390046 ; NYI
	...
   87994:	00090076 	.inst	0x00090076 ; undefined
   87998:	003f0009 	.inst	0x003f0009 ; NYI
   8799c:	00480048 	.inst	0x00480048 ; undefined
   879a0:	00360049 	.inst	0x00360049 ; NYI
	...
   879b4:	0021001e 	.inst	0x0021001e ; NYI
   879b8:	00400040 	.inst	0x00400040 ; undefined
   879bc:	00400040 	.inst	0x00400040 ; undefined
   879c0:	001e0021 	.inst	0x001e0021 ; undefined
   879c4:	00180004 	.inst	0x00180004 ; undefined
   879c8:	00000000 	udf	#0
   879cc:	00180000 	.inst	0x00180000 ; undefined
   879d0:	00000006 	udf	#6
   879d4:	0021001e 	.inst	0x0021001e ; NYI
   879d8:	007f0041 	.inst	0x007f0041 ; undefined
   879dc:	00400040 	.inst	0x00400040 ; undefined
   879e0:	001e0021 	.inst	0x001e0021 ; undefined
	...
   879ec:	00060000 	.inst	0x00060000 ; undefined
   879f0:	00000018 	udf	#24
   879f4:	0021001e 	.inst	0x0021001e ; NYI
   879f8:	007f0041 	.inst	0x007f0041 ; undefined
   879fc:	00400040 	.inst	0x00400040 ; undefined
   87a00:	001e0021 	.inst	0x001e0021 ; undefined
	...
   87a0c:	000c0000 	.inst	0x000c0000 ; undefined
   87a10:	00000012 	udf	#18
   87a14:	0021001e 	.inst	0x0021001e ; NYI
   87a18:	007f0041 	.inst	0x007f0041 ; undefined
   87a1c:	00400040 	.inst	0x00400040 ; undefined
   87a20:	001e0021 	.inst	0x001e0021 ; undefined
	...
   87a2c:	00120000 	.inst	0x00120000 ; undefined
   87a30:	00000012 	udf	#18
   87a34:	0021001e 	.inst	0x0021001e ; NYI
   87a38:	007f0041 	.inst	0x007f0041 ; undefined
   87a3c:	00400040 	.inst	0x00400040 ; undefined
   87a40:	001e0021 	.inst	0x001e0021 ; undefined
	...
   87a4c:	00300000 	.inst	0x00300000 ; NYI
   87a50:	0000000c 	udf	#12
   87a54:	00080078 	.inst	0x00080078 ; undefined
   87a58:	00080008 	.inst	0x00080008 ; undefined
   87a5c:	00080008 	.inst	0x00080008 ; undefined
   87a60:	00080008 	.inst	0x00080008 ; undefined
	...
   87a6c:	000c0000 	.inst	0x000c0000 ; undefined
   87a70:	00000030 	udf	#48
   87a74:	00080078 	.inst	0x00080078 ; undefined
   87a78:	00080008 	.inst	0x00080008 ; undefined
   87a7c:	00080008 	.inst	0x00080008 ; undefined
   87a80:	00080008 	.inst	0x00080008 ; undefined
	...
   87a8c:	00180000 	.inst	0x00180000 ; undefined
   87a90:	00000024 	udf	#36
   87a94:	00080078 	.inst	0x00080078 ; undefined
   87a98:	00080008 	.inst	0x00080008 ; undefined
   87a9c:	00080008 	.inst	0x00080008 ; undefined
   87aa0:	00080008 	.inst	0x00080008 ; undefined
	...
   87aac:	00240000 	.inst	0x00240000 ; NYI
   87ab0:	00000024 	udf	#36
   87ab4:	00080078 	.inst	0x00080078 ; undefined
   87ab8:	00080008 	.inst	0x00080008 ; undefined
   87abc:	00080008 	.inst	0x00080008 ; undefined
   87ac0:	00080008 	.inst	0x00080008 ; undefined
	...
   87acc:	00660000 	.inst	0x00660000 ; undefined
   87ad0:	00680018 	.inst	0x00680018 ; undefined
   87ad4:	0022001e 	.inst	0x0022001e ; NYI
   87ad8:	00410041 	.inst	0x00410041 ; undefined
   87adc:	00410041 	.inst	0x00410041 ; undefined
   87ae0:	001c0022 	.inst	0x001c0022 ; undefined
	...
   87aec:	001a0000 	.inst	0x001a0000 ; undefined
   87af0:	0000002c 	udf	#44
   87af4:	0053004e 	.inst	0x0053004e ; undefined
   87af8:	00410061 	.inst	0x00410061 ; undefined
   87afc:	00410041 	.inst	0x00410041 ; undefined
   87b00:	00410041 	.inst	0x00410041 ; undefined
	...
   87b0c:	00300000 	.inst	0x00300000 ; NYI
   87b10:	0000000c 	udf	#12
   87b14:	0022001c 	.inst	0x0022001c ; NYI
   87b18:	00410041 	.inst	0x00410041 ; undefined
   87b1c:	00410041 	.inst	0x00410041 ; undefined
   87b20:	001c0022 	.inst	0x001c0022 ; undefined
	...
   87b2c:	00060000 	.inst	0x00060000 ; undefined
   87b30:	00000018 	udf	#24
   87b34:	0022001c 	.inst	0x0022001c ; NYI
   87b38:	00410041 	.inst	0x00410041 ; undefined
   87b3c:	00410041 	.inst	0x00410041 ; undefined
   87b40:	001c0022 	.inst	0x001c0022 ; undefined
	...
   87b4c:	000c0000 	.inst	0x000c0000 ; undefined
   87b50:	00000012 	udf	#18
   87b54:	0022001c 	.inst	0x0022001c ; NYI
   87b58:	00410041 	.inst	0x00410041 ; undefined
   87b5c:	00410041 	.inst	0x00410041 ; undefined
   87b60:	001c0022 	.inst	0x001c0022 ; undefined
	...
   87b6c:	001a0000 	.inst	0x001a0000 ; undefined
   87b70:	0000002c 	udf	#44
   87b74:	0022001c 	.inst	0x0022001c ; NYI
   87b78:	00410041 	.inst	0x00410041 ; undefined
   87b7c:	00410041 	.inst	0x00410041 ; undefined
   87b80:	001c0022 	.inst	0x001c0022 ; undefined
	...
   87b8c:	00140000 	.inst	0x00140000 ; undefined
   87b90:	00000014 	udf	#20
   87b94:	0022001c 	.inst	0x0022001c ; NYI
   87b98:	00410041 	.inst	0x00410041 ; undefined
   87b9c:	00410041 	.inst	0x00410041 ; undefined
   87ba0:	001c0022 	.inst	0x001c0022 ; undefined
	...
   87bb4:	00080008 	.inst	0x00080008 ; undefined
   87bb8:	007f0000 	.inst	0x007f0000 ; undefined
   87bbc:	00080000 	.inst	0x00080000 ; undefined
   87bc0:	00000008 	udf	#8
	...
   87bd4:	0022001d 	.inst	0x0022001d ; NYI
   87bd8:	00490045 	.inst	0x00490045 ; undefined
   87bdc:	00510049 	.inst	0x00510049 ; undefined
   87be0:	005c0022 	.inst	0x005c0022 ; undefined
	...
   87bec:	00300000 	.inst	0x00300000 ; NYI
   87bf0:	0000000c 	udf	#12
   87bf4:	00410041 	.inst	0x00410041 ; undefined
   87bf8:	00410041 	.inst	0x00410041 ; undefined
   87bfc:	00430041 	.inst	0x00430041 ; undefined
   87c00:	00390065 	.inst	0x00390065 ; NYI
	...
   87c0c:	00060000 	.inst	0x00060000 ; undefined
   87c10:	00000018 	udf	#24
   87c14:	00410041 	.inst	0x00410041 ; undefined
   87c18:	00410041 	.inst	0x00410041 ; undefined
   87c1c:	00430041 	.inst	0x00430041 ; undefined
   87c20:	00390065 	.inst	0x00390065 ; NYI
	...
   87c2c:	000c0000 	.inst	0x000c0000 ; undefined
   87c30:	00000012 	udf	#18
   87c34:	00410041 	.inst	0x00410041 ; undefined
   87c38:	00410041 	.inst	0x00410041 ; undefined
   87c3c:	00430041 	.inst	0x00430041 ; undefined
   87c40:	00390065 	.inst	0x00390065 ; NYI
	...
   87c4c:	00140000 	.inst	0x00140000 ; undefined
   87c50:	00000014 	udf	#20
   87c54:	00410041 	.inst	0x00410041 ; undefined
   87c58:	00410041 	.inst	0x00410041 ; undefined
   87c5c:	00430041 	.inst	0x00430041 ; undefined
   87c60:	00390065 	.inst	0x00390065 ; NYI
	...
   87c6c:	00060000 	.inst	0x00060000 ; undefined
   87c70:	00000018 	udf	#24
   87c74:	00410041 	.inst	0x00410041 ; undefined
   87c78:	00220022 	.inst	0x00220022 ; NYI
   87c7c:	00140014 	.inst	0x00140014 ; undefined
   87c80:	00080008 	.inst	0x00080008 ; undefined
   87c84:	00300010 	.inst	0x00300010 ; NYI
   87c88:	00000000 	udf	#0
   87c8c:	00400000 	.inst	0x00400000 ; undefined
   87c90:	00400040 	.inst	0x00400040 ; undefined
   87c94:	0062005c 	.inst	0x0062005c ; undefined
   87c98:	00410041 	.inst	0x00410041 ; undefined
   87c9c:	00410041 	.inst	0x00410041 ; undefined
   87ca0:	007c0042 	.inst	0x007c0042 ; undefined
   87ca4:	00400040 	.inst	0x00400040 ; undefined
   87ca8:	00000000 	udf	#0
   87cac:	00140000 	.inst	0x00140000 ; undefined
   87cb0:	00000014 	udf	#20
   87cb4:	00410041 	.inst	0x00410041 ; undefined
   87cb8:	00220022 	.inst	0x00220022 ; NYI
   87cbc:	00140014 	.inst	0x00140014 ; undefined
   87cc0:	00080008 	.inst	0x00080008 ; undefined
   87cc4:	00300010 	.inst	0x00300010 ; NYI
   87cc8:	ffbdbfef 	.inst	0xffbdbfef ; undefined
   87ccc:	e2ff80cf 	.inst	0xe2ff80cf ; undefined
   87cd0:	e2ffa089 	.inst	0xe2ffa089 ; undefined
   87cd4:	e2ffa489 	.inst	0xe2ffa489 ; undefined
   87cd8:	e2ffa589 	.inst	0xe2ffa589 ; undefined
   87cdc:	96e2a096 	bl	fffffffffb92ff34 <__bss_end+0xfffffffffb89f4fc>
   87ce0:	ae96e2ac 	.inst	0xae96e2ac ; undefined
   87ce4:	e2bc97e2 	.inst	0xe2bc97e2 ; undefined
   87ce8:	ace2be97 	ldp	q23, q15, [x20], #-944
   87cec:	8e88e29b 	.inst	0x8e88e29b ; undefined
   87cf0:	8697e2ff 	.inst	0x8697e2ff ; undefined
   87cf4:	e2a699e2 	.inst	0xe2a699e2 ; undefined
   87cf8:	ace2a5ac 	ldp	q12, q9, [x13], #-944
   87cfc:	bcc2ffa7 	.inst	0xbcc2ffa7 ; undefined
   87d00:	ffbdc2ff 	.inst	0xffbdc2ff ; undefined
   87d04:	c2ffbec2 	.inst	0xc2ffbec2 ; undefined
   87d08:	a8c2ffa6 	ldp	x6, xzr, [x29], #40
   87d0c:	ffb8c2ff 	.inst	0xffb8c2ff ; undefined
   87d10:	e2ff92c6 	.inst	0xe2ff92c6 ; undefined
   87d14:	e2ffa080 	.inst	0xe2ffa080 ; undefined
   87d18:	e2ffa180 	.inst	0xe2ffa180 ; undefined
   87d1c:	e2ffb080 	.inst	0xe2ffb080 ; undefined
   87d20:	e2ffa284 	.inst	0xe2ffa284 ; undefined
   87d24:	e2ffa680 	.inst	0xe2ffa680 ; undefined
   87d28:	e2ffb980 	.inst	0xe2ffb980 ; undefined
   87d2c:	e2ffba80 	.inst	0xe2ffba80 ; undefined
   87d30:	80e29c80 	.inst	0x80e29c80 ; undefined
   87d34:	b680e29f 	tbz	xzr, #48, 89984 <_ZL17_systemFontBuffer+0x181c>
   87d38:	9d80e2ff 	.inst	0x9d80e2ff ; undefined
   87d3c:	9dcbbaca 	.inst	0x9dcbbaca ; undefined
   87d40:	80e2aecb 	.inst	0x80e2aecb ; undefined
   87d44:	80e2ffb3 	.inst	0x80e2ffb3 ; undefined
   87d48:	b9e2ff9e 	.inst	0xb9e2ff9e ; undefined
   87d4c:	b9e2ff82 	.inst	0xb9e2ff82 ; undefined
   87d50:	ff8ecb81 	.inst	0xff8ecb81 ; undefined
   87d54:	c4ff9ec4 	ld1sh	{z4.d}, p7/z, [x22, z31.d, lsl #1]
   87d58:	b0c4ff9f 	adrp	xzr, ffffffff8a078000 <__bss_end+0xffffffff89fe75c8>
   87d5c:	ffb1c4ff 	.inst	0xffb1c4ff ; undefined
   87d60:	c5ff9ec5 	.inst	0xc5ff9ec5 ; undefined
   87d64:	c220ff9f 	.inst	0xc220ff9f ; undefined
   87d68:	8080e2a0 	.inst	0x8080e2a0 ; undefined
   87d6c:	e28180e2 	.inst	0xe28180e2 ; undefined
   87d70:	80e28280 	.inst	0x80e28280 ; undefined
   87d74:	8480e283 	prfh	pldl2strm, p0, [z20.s]
   87d78:	e28580e2 	.inst	0xe28580e2 ; undefined
   87d7c:	80e28680 	.inst	0x80e28680 ; undefined
   87d80:	8880e287 	stlr	w7, [x20]
   87d84:	e28980e2 	.inst	0xe28980e2 ; undefined
   87d88:	80e28a80 	.inst	0x80e28a80 ; undefined
   87d8c:	9f81e2af 	.inst	0x9f81e2af ; undefined
   87d90:	22ff21ff 	.inst	0x22ff21ff ; undefined
   87d94:	24ff23ff 	cmpls	p15.d, p0/z, z31.d, #124
   87d98:	26ff25ff 	.inst	0x26ff25ff ; undefined
   87d9c:	b4c227ff 	cbz	xzr, c298 <__bss_size+0xb8f9>
   87da0:	bccab9ca 	.inst	0xbccab9ca ; undefined
   87da4:	80e28acb 	.inst	0x80e28acb ; undefined
   87da8:	b280e299 	.inst	0xb280e299 ; undefined
   87dac:	29ff28ff 	ldp	wzr, w10, [x7, #-8]!
   87db0:	81e22aff 	.inst	0x81e22aff ; undefined
   87db4:	9788e28e 	bl	fffffffffe2c07ec <__bss_end+0xfffffffffe22fdb4>
   87db8:	2cff2bff 	ldp	s31, s10, [sp], #-8
   87dbc:	80e28fcb 	.inst	0x80e28fcb ; undefined
   87dc0:	c22dff9a 	.inst	0xc22dff9a ; undefined
   87dc4:	9080e2ad 	adrp	x13, ffffffff01cdb000 <__bss_end+0xffffffff01c4a5c8>
   87dc8:	e29180e2 	.inst	0xe29180e2 ; undefined
   87dcc:	80e29280 	.inst	0x80e29280 ; undefined
   87dd0:	8381e293 	.inst	0x8381e293 ; undefined
   87dd4:	ff9288e2 	.inst	0xff9288e2 ; undefined
   87dd8:	a480e22e 	ldnt1h	{z14.h}, p0/z, [x17]
   87ddc:	81e22fff 	.inst	0x81e22fff ; undefined
   87de0:	9588e284 	bl	62c07f0 <__bss_end+0x622fdb8>
   87de4:	31ff30ff 	.inst	0x31ff30ff ; undefined
   87de8:	33ff32ff 	.inst	0x33ff32ff ; undefined
   87dec:	35ff34ff 	cbnz	wzr, 86488 <_ZL17_systemFontBuffer+0x7e0>
   87df0:	37ff36ff 	tbnz	wzr, #31, 864cc <_ZL17_systemFontBuffer+0x824>
   87df4:	39ff38ff 	ldrsb	wzr, [x7, #4046]
   87df8:	88e23aff 	.inst	0x88e23aff ; undefined
   87dfc:	ff3bffb6 	.inst	0xff3bffb6 ; undefined
   87e00:	e23dff3c 	.inst	0xe23dff3c ; undefined
   87e04:	3eff80b9 	.inst	0x3eff80b9 ; undefined
   87e08:	40ff3fff 	.inst	0x40ff3fff ; undefined
   87e0c:	42ff41ff 	.inst	0x42ff41ff ; undefined
   87e10:	44ff43ff 	cdot	z31.d, z31.h, z15.h[1], #0
   87e14:	46ff45ff 	.inst	0x46ff45ff ; undefined
   87e18:	48ff47ff 	.inst	0x48ff47ff ; undefined
   87e1c:	4aff49ff 	eon	wzr, w15, wzr, ror #18
   87e20:	84e24bff 	ld1h	{z31.s}, p2/z, [sp, z2.s, sxtw #1]
   87e24:	ff4cffaa 	.inst	0xff4cffaa ; undefined
   87e28:	ff4eff4d 	.inst	0xff4eff4d ; undefined
   87e2c:	ff50ff4f 	.inst	0xff50ff4f ; undefined
   87e30:	ff52ff51 	.inst	0xff52ff51 ; undefined
   87e34:	ff54ff53 	.inst	0xff54ff53 ; undefined
   87e38:	ff56ff55 	.inst	0xff56ff55 ; undefined
   87e3c:	ff58ff57 	.inst	0xff58ff57 ; undefined
   87e40:	ff5aff59 	.inst	0xff5aff59 ; undefined
   87e44:	e25cff5b 	.inst	0xe25cff5b ; undefined
   87e48:	5dffb5a7 	.inst	0x5dffb5a7 ; undefined
   87e4c:	84cb5eff 	ld1h	{z31.s}, p7/z, [x23, z11.s, sxtw]
   87e50:	8ce286cb 	.inst	0x8ce286cb ; undefined
   87e54:	ff5fff83 	.inst	0xff5fff83 ; undefined
   87e58:	cabbca60 	eon	x0, x19, x27, asr #50
   87e5c:	e28bcbbd 	.inst	0xe28bcbbd ; undefined
   87e60:	80e29880 	.inst	0x80e29880 ; undefined
   87e64:	b580e29b 	cbnz	x27, fffffffffff89ab4 <__bss_end+0xffffffffffef907c>
   87e68:	62ff61ff 	.inst	0x62ff61ff ; undefined
   87e6c:	64ff63ff 	.inst	0x64ff63ff ; undefined
   87e70:	66ff65ff 	.inst	0x66ff65ff ; undefined
   87e74:	68ff67ff 	ldpsw	xzr, x25, [sp], #-8
   87e78:	6aff69ff 	bics	wzr, w15, wzr, ror #26
   87e7c:	6cff6bff 	ldp	d31, d26, [sp], #-16
   87e80:	6eff6dff 	.inst	0x6eff6dff ; undefined
   87e84:	70ff6fff 	adr	xzr, 86c83 <_ZL17_systemFontBuffer+0xfdb>
   87e88:	72ff71ff 	.inst	0x72ff71ff ; undefined
   87e8c:	74ff73ff 	.inst	0x74ff73ff ; undefined
   87e90:	76ff75ff 	.inst	0x76ff75ff ; undefined
   87e94:	78ff77ff 	.inst	0x78ff77ff ; undefined
   87e98:	7aff79ff 	.inst	0x7aff79ff ; undefined
   87e9c:	7cff7bff 	.inst	0x7cff7bff ; undefined
   87ea0:	ffa388e2 	.inst	0xffa388e2 ; undefined
   87ea4:	cb7eff7d 	.inst	0xcb7eff7d ; undefined
   87ea8:	80e2ff9c 	.inst	0x80e2ff9c ; undefined
   87eac:	9988e2a2 	ldapursw	x2, [x21, #142]
   87eb0:	ff8f97e2 	.inst	0xff8f97e2 ; undefined
   87eb4:	c3ff80c3 	.inst	0xc3ff80c3 ; undefined
   87eb8:	82c3ff81 	.inst	0x82c3ff81 ; undefined
   87ebc:	ff83c3ff 	.inst	0xff83c3ff ; undefined
   87ec0:	c3ff84c3 	.inst	0xc3ff84c3 ; undefined
   87ec4:	ab84e285 	adds	x5, x20, x4, asr #56
   87ec8:	ff86c3ff 	.inst	0xff86c3ff ; undefined
   87ecc:	c3ff87c3 	.inst	0xc3ff87c3 ; undefined
   87ed0:	89c3ff88 	.inst	0x89c3ff88 ; undefined
   87ed4:	ff8ac3ff 	.inst	0xff8ac3ff ; undefined
   87ed8:	c3ff8bc3 	.inst	0xc3ff8bc3 ; undefined
   87edc:	8dc3ff8c 	.inst	0x8dc3ff8c ; undefined
   87ee0:	ff8ec3ff 	.inst	0xff8ec3ff ; undefined
   87ee4:	c3ff8fc3 	.inst	0xc3ff8fc3 ; undefined
   87ee8:	ff90c490 	.inst	0xff90c490 ; undefined
   87eec:	c3ff91c3 	.inst	0xc3ff91c3 ; undefined
   87ef0:	93c3ff92 	extr	x18, x28, x3, #63
   87ef4:	ff94c3ff 	.inst	0xff94c3ff ; undefined
   87ef8:	c3ff95c3 	.inst	0xc3ff95c3 ; undefined
   87efc:	97c3ff96 	bl	ffffffffff187d54 <__bss_end+0xffffffffff0f731c>
   87f00:	ff98c3ff 	.inst	0xff98c3ff ; undefined
   87f04:	c3ff99c3 	.inst	0xc3ff99c3 ; undefined
   87f08:	9bc3ff9a 	.inst	0x9bc3ff9a ; undefined
   87f0c:	ff9cc3ff 	.inst	0xff9cc3ff ; undefined
   87f10:	c3ff9dc3 	.inst	0xc3ff9dc3 ; undefined
   87f14:	9fc3ff9e 	.inst	0x9fc3ff9e ; undefined
   87f18:	9296e2ff 	mov	xzr, #0xffffffffffff48e8    	// #-46872
   87f1c:	ffa1c2ff 	.inst	0xffa1c2ff ; undefined
   87f20:	c2ffa2c2 	.inst	0xc2ffa2c2 ; undefined
   87f24:	82e2ffa3 	.inst	0x82e2ffa3 ; undefined
   87f28:	a5c2ffac 	ld3d	{z12.d-z14.d}, p7/z, [x29, #6, mul vl]
   87f2c:	ffa0c5ff 	.inst	0xffa0c5ff ; undefined
   87f30:	c5ffa7c2 	.inst	0xc5ffa7c2 ; undefined
   87f34:	a9c2ffa1 	ldp	x1, xzr, [x29, #40]!
   87f38:	ffaac2ff 	.inst	0xffaac2ff ; undefined
   87f3c:	c2ffabc2 	.inst	0xc2ffabc2 ; undefined
   87f40:	a4c2ffac 	ld3h	{z12.h-z14.h}, p7/z, [x29, #6, mul vl]
   87f44:	ffaec2ff 	.inst	0xffaec2ff ; undefined
   87f48:	89cbafc2 	.inst	0x89cbafc2 ; undefined
   87f4c:	cbb0c2ff 	.inst	0xcbb0c2ff ; undefined
   87f50:	b1c2ff9a 	.inst	0xb1c2ff9a ; undefined
   87f54:	ffb2c2ff 	.inst	0xffb2c2ff ; undefined
   87f58:	c5ffb3c2 	.inst	0xc5ffb3c2 ; undefined
   87f5c:	b5c2ffbd 	cbnz	x29, df50 <__bss_size+0xd5b1>
   87f60:	c2ffbcce 	.inst	0xc2ffbcce ; undefined
   87f64:	b7c2ffb6 	tbnz	x22, #56, 8df58 <_ZL4mbox+0xdd8>
   87f68:	e2a780e2 	.inst	0xe2a780e2 ; undefined
   87f6c:	b8e2858b 	.inst	0xb8e2858b ; undefined
   87f70:	bec5ffb1 	.inst	0xbec5ffb1 ; undefined
   87f74:	ffb9c2ff 	.inst	0xffb9c2ff ; undefined
   87f78:	c2ffbac2 	.inst	0xc2ffbac2 ; undefined
   87f7c:	92c5ffbb 	mov	x27, #0xffffd002ffffffff    	// #-52763673231361
   87f80:	ff93c5ff 	.inst	0xff93c5ff ; undefined
   87f84:	c2ffb8c5 	.inst	0xc2ffb8c5 ; undefined
   87f88:	94e2ffbf 	bl	3947e84 <__bss_end+0x38b744c>
   87f8c:	9480e280 	bl	20c098c <__bss_end+0x202ff54>
   87f90:	e29580e2 	.inst	0xe29580e2 ; undefined
   87f94:	e2ffaf8e 	.inst	0xe2ffaf8e ; undefined
   87f98:	e2ff8294 	.inst	0xe2ff8294 ; undefined
   87f9c:	95e28c94 	bl	792b1ec <__bss_end+0x789a7b4>
   87fa0:	94e2ffad 	bl	3947e54 <__bss_end+0x38b741c>
   87fa4:	ae95e290 	.inst	0xae95e290 ; undefined
   87fa8:	9494e2ff 	bl	25c0ba4 <__bss_end+0x253016c>
   87fac:	ffb095e2 	.inst	0xffb095e2 ; undefined
   87fb0:	e29894e2 	.inst	0xe29894e2 ; undefined
   87fb4:	e2ffaf95 	.inst	0xe2ffaf95 ; undefined
   87fb8:	e2ff9c94 	.inst	0xe2ff9c94 ; undefined
   87fbc:	e2ffa494 	.inst	0xe2ffa494 ; undefined
   87fc0:	e2ffac94 	.inst	0xe2ffac94 ; undefined
   87fc4:	e2ffb494 	.inst	0xe2ffb494 ; undefined
   87fc8:	e2ffbc94 	.inst	0xe2ffbc94 ; undefined
   87fcc:	e2ff9196 	.inst	0xe2ff9196 ; undefined
   87fd0:	80e2ba8e 	.inst	0x80e2ba8e ; undefined
   87fd4:	8ee2ffbe 	.inst	0x8ee2ffbe ; undefined
   87fd8:	8ee2ffbb 	.inst	0x8ee2ffbb ; undefined
   87fdc:	8ee2ffbc 	.inst	0x8ee2ffbc ; undefined
   87fe0:	95e2ffbd 	bl	7947ed4 <__bss_end+0x78b749c>
   87fe4:	8194e290 	.inst	0x8194e290 ; undefined
   87fe8:	9195e2ff 	.inst	0x9195e2ff ; undefined
   87fec:	ff8394e2 	.inst	0xff8394e2 ; undefined
   87ff0:	e29495e2 	.inst	0xe29495e2 ; undefined
   87ff4:	e2ff8f94 	.inst	0xe2ff8f94 ; undefined
   87ff8:	94e29795 	bl	392de4c <__bss_end+0x389d414>
   87ffc:	95e2ff93 	bl	7947e48 <__bss_end+0x78b7410>
   88000:	9794e29a 	bl	fffffffffe5c0a68 <__bss_end+0xfffffffffe530030>
   88004:	9d95e2ff 	.inst	0x9d95e2ff ; undefined
   88008:	ff9b94e2 	.inst	0xff9b94e2 ; undefined
   8800c:	e2a095e2 	.inst	0xe2a095e2 ; undefined
   88010:	e2ffa394 	.inst	0xe2ffa394 ; undefined
   88014:	94e2a395 	bl	3930e68 <__bss_end+0x38a0430>
   88018:	95e2ffab 	bl	7947ec4 <__bss_end+0x78b748c>
   8801c:	b394e2a6 	.inst	0xb394e2a6 ; undefined
   88020:	a995e2ff 	stp	xzr, x24, [x23, #344]!
   88024:	ffbb94e2 	.inst	0xffbb94e2 ; undefined
   88028:	e2ac95e2 	.inst	0xe2ac95e2 ; undefined
   8802c:	e2ff8b95 	.inst	0xe2ff8b95 ; undefined
   88030:	e2ff8896 	.inst	0xe2ff8896 ; undefined
   88034:	e2ff9186 	.inst	0xe2ff9186 ; undefined
   88038:	e2ff9386 	.inst	0xe2ff9386 ; undefined
   8803c:	e2ff9086 	.inst	0xe2ff9086 ; undefined
   88040:	c3ff9286 	.inst	0xc3ff9286 ; undefined
   88044:	a1c3ffa0 	.inst	0xa1c3ffa0 ; undefined
   88048:	ffa2c3ff 	.inst	0xffa2c3ff ; undefined
   8804c:	c3ffa3c3 	.inst	0xc3ffa3c3 ; undefined
   88050:	a5c3ffa4 	ld3d	{z4.d-z6.d}, p7/z, [x29, #9, mul vl]
   88054:	ffa6c3ff 	.inst	0xffa6c3ff ; undefined
   88058:	c3ffa7c3 	.inst	0xc3ffa7c3 ; undefined
   8805c:	a9c3ffa8 	ldp	x8, xzr, [x29, #56]!
   88060:	ffaac3ff 	.inst	0xffaac3ff ; undefined
   88064:	c3ffabc3 	.inst	0xc3ffabc3 ; undefined
   88068:	adc3ffac 	ldp	q12, q31, [x29, #112]!
   8806c:	ffaec3ff 	.inst	0xffaec3ff ; undefined
   88070:	c3ffafc3 	.inst	0xc3ffafc3 ; undefined
   88074:	b1c3ffb0 	.inst	0xb1c3ffb0 ; undefined
   88078:	ffb2c3ff 	.inst	0xffb2c3ff ; undefined
   8807c:	c3ffb3c3 	.inst	0xc3ffb3c3 ; undefined
   88080:	b5c3ffb4 	cbnz	x20, 10074 <__bss_size+0xf6d5>
   88084:	ffb6c3ff 	.inst	0xffb6c3ff ; undefined
   88088:	c3ffb7c3 	.inst	0xc3ffb7c3 ; undefined
   8808c:	b9c3ffb8 	.inst	0xb9c3ffb8 ; undefined
   88090:	ffbac3ff 	.inst	0xffbac3ff ; undefined
   88094:	c3ffbbc3 	.inst	0xc3ffbbc3 ; undefined
   88098:	bdc3ffbc 	.inst	0xbdc3ffbc ; undefined
   8809c:	ffbec3ff 	.inst	0xffbec3ff ; undefined
   880a0:	00ffbfc3 	.inst	0x00ffbfc3 ; undefined
   880a4:	00000000 	udf	#0
   880a8:	6e6b6e75 	umin	v21.8h, v19.8h, v11.8h
   880ac:	006e776f 	.inst	0x006e776f ; undefined
   880b0:	65737341 	fnmls	z1.h, p4/m, z26.h, z19.h
   880b4:	6f697472 	uqshl	v18.2d, v3.2d, #41
   880b8:	6166206e 	.inst	0x6166206e ; undefined
   880bc:	64656c69 	.inst	0x64656c69 ; undefined
   880c0:	202d2d20 	.inst	0x202d2d20 ; undefined
   880c4:	00000000 	udf	#0
   880c8:	65737341 	fnmls	z1.h, p4/m, z26.h, z19.h
   880cc:	6f697472 	uqshl	v18.2d, v3.2d, #41
   880d0:	6166206e 	.inst	0x6166206e ; undefined
   880d4:	64656c69 	.inst	0x64656c69 ; undefined
	...
   880e0:	206e6152 	.inst	0x206e6152 ; undefined
   880e4:	2074756f 	.inst	0x2074756f ; undefined
   880e8:	4d20666f 	.inst	0x4d20666f ; undefined
   880ec:	726f6d65 	.inst	0x726f6d65 ; undefined
   880f0:	00000079 	udf	#121
   880f4:	00000000 	udf	#0
   880f8:	6e6b6e55 	umin	v21.8h, v18.8h, v11.8h
   880fc:	206e776f 	.inst	0x206e776f ; undefined
   88100:	6f727265 	fcmla	v5.8h, v19.8h, v18.h[1], #270
   88104:	636f2072 	.inst	0x636f2072 ; undefined
   88108:	72727563 	.inst	0x72727563 ; undefined
   8810c:	00006465 	udf	#25701
   88110:	61746146 	.inst	0x61746146 ; undefined
   88114:	7245206c 	.inst	0x7245206c ; undefined
   88118:	3a726f72 	.inst	0x3a726f72 ; undefined
   8811c:	00000020 	udf	#32
   88120:	63657845 	.inst	0x63657845 ; undefined
   88124:	6e697475 	uabd	v21.8h, v3.8h, v9.8h
   88128:	6f432067 	umlal2	v7.4s, v3.8h, v3.h[0]
   8812c:	49206572 	.inst	0x49206572 ; undefined
   88130:	00203a44 	.inst	0x00203a44 ; NYI
   88134:	00000000 	udf	#0
   88138:	6c6c6143 	ldnp	d3, d24, [x10, #-320]
   8813c:	61745320 	.inst	0x61745320 ; undefined
   88140:	003a6b63 	.inst	0x003a6b63 ; NYI
   88144:	00000000 	udf	#0
   88148:	203a2040 	.inst	0x203a2040 ; undefined
   8814c:	00000000 	udf	#0
   88150:	00003c20 	udf	#15392
   88154:	00000000 	udf	#0
   88158:	0000002b 	udf	#43
   8815c:	00000000 	udf	#0
   88160:	0000003e 	udf	#62
   88164:	00000000 	udf	#0

0000000000088168 <_ZL17_systemFontBuffer>:
   88168:	864ab572 	.inst	0x864ab572 ; undefined
   8816c:	00000000 	udf	#0
   88170:	00000020 	udf	#32
   88174:	00000001 	udf	#1
   88178:	00000100 	udf	#256
   8817c:	00000020 	udf	#32
   88180:	00000010 	udf	#16
   88184:	0000000a 	udf	#10
	...
   88190:	00550000 	.inst	0x00550000 ; undefined
   88194:	00410000 	.inst	0x00410000 ; undefined
   88198:	00410000 	.inst	0x00410000 ; undefined
   8819c:	00410000 	.inst	0x00410000 ; undefined
   881a0:	00550000 	.inst	0x00550000 ; undefined
	...
   881b4:	0022007f 	.inst	0x0022007f ; NYI
   881b8:	00220022 	.inst	0x00220022 ; NYI
   881bc:	00220022 	.inst	0x00220022 ; NYI
   881c0:	00210022 	.inst	0x00210022 ; NYI
	...
   881cc:	00010000 	.inst	0x00010000 ; undefined
   881d0:	00020001 	.inst	0x00020001 ; undefined
   881d4:	00040002 	.inst	0x00040002 ; undefined
   881d8:	0008007f 	.inst	0x0008007f ; undefined
   881dc:	0010007f 	.inst	0x0010007f ; undefined
   881e0:	00200010 	.inst	0x00200010 ; NYI
   881e4:	00000020 	udf	#32
	...
   881f0:	00020000 	.inst	0x00020000 ; undefined
   881f4:	00080004 	.inst	0x00080004 ; undefined
   881f8:	00200010 	.inst	0x00200010 ; NYI
   881fc:	00080010 	.inst	0x00080010 ; undefined
   88200:	00000004 	udf	#4
   88204:	0000003c 	udf	#60
	...
   88214:	00080010 	.inst	0x00080010 ; undefined
   88218:	00020004 	.inst	0x00020004 ; undefined
   8821c:	00080004 	.inst	0x00080004 ; undefined
   88220:	00000010 	udf	#16
   88224:	0000001e 	udf	#30
	...
   88234:	003e0000 	.inst	0x003e0000 ; NYI
   88238:	003e003e 	.inst	0x003e003e ; NYI
   8823c:	003e003e 	.inst	0x003e003e ; NYI
	...
   88254:	001c0008 	.inst	0x001c0008 ; undefined
   88258:	007f003e 	.inst	0x007f003e ; undefined
   8825c:	001c003e 	.inst	0x001c003e ; undefined
   88260:	00000008 	udf	#8
	...
   88270:	00c40044 	.inst	0x00c40044 ; undefined
   88274:	00480048 	.inst	0x00480048 ; undefined
   88278:	00550053 	.inst	0x00550053 ; undefined
   8827c:	802f0029 	.inst	0x802f0029 ; NYI
   88280:	00410041 	.inst	0x00410041 ; undefined
	...
   88290:	00c40044 	.inst	0x00c40044 ; undefined
   88294:	00480048 	.inst	0x00480048 ; undefined
   88298:	00570050 	.inst	0x00570050 ; undefined
   8829c:	00138010 	.inst	0x00138010 ; undefined
   882a0:	80270024 	.inst	0x80270024 ; NYI
	...
   882b0:	002400e4 	.inst	0x002400e4 ; NYI
   882b4:	002800c8 	.inst	0x002800c8 ; NYI
   882b8:	001500d3 	.inst	0x001500d3 ; undefined
   882bc:	802f0029 	.inst	0x802f0029 ; NYI
   882c0:	00410041 	.inst	0x00410041 ; undefined
	...
   882cc:	00080000 	.inst	0x00080000 ; undefined
   882d0:	00080008 	.inst	0x00080008 ; undefined
   882d4:	00080008 	.inst	0x00080008 ; undefined
   882d8:	00000000 	udf	#0
   882dc:	00080008 	.inst	0x00080008 ; undefined
   882e0:	00080008 	.inst	0x00080008 ; undefined
   882e4:	00000008 	udf	#8
   882e8:	00000000 	udf	#0
   882ec:	00140000 	.inst	0x00140000 ; undefined
   882f0:	00000014 	udf	#20
	...
   88324:	00300008 	.inst	0x00300008 ; NYI
	...
   88330:	0011000e 	.inst	0x0011000e ; undefined
   88334:	00100010 	.inst	0x00100010 ; undefined
   88338:	0020007e 	.inst	0x0020007e ; NYI
   8833c:	00200020 	.inst	0x00200020 ; NYI
   88340:	00400040 	.inst	0x00400040 ; undefined
   88344:	00000040 	udf	#64
	...
   88350:	00080008 	.inst	0x00080008 ; undefined
   88354:	003e0008 	.inst	0x003e0008 ; NYI
   88358:	00080008 	.inst	0x00080008 ; undefined
   8835c:	00080008 	.inst	0x00080008 ; undefined
   88360:	00080008 	.inst	0x00080008 ; undefined
   88364:	00000008 	udf	#8
	...
   88370:	00080008 	.inst	0x00080008 ; undefined
   88374:	003e0008 	.inst	0x003e0008 ; NYI
   88378:	00080008 	.inst	0x00080008 ; undefined
   8837c:	003e0008 	.inst	0x003e0008 ; NYI
   88380:	00080008 	.inst	0x00080008 ; undefined
   88384:	00000008 	udf	#8
	...
   88390:	00480030 	.inst	0x00480030 ; undefined
   88394:	00338048 	.inst	0x00338048 ; NYI
   88398:	0030000c 	.inst	0x0030000c ; NYI
   8839c:	802400db 	.inst	0x802400db ; NYI
   883a0:	001b8024 	.inst	0x001b8024 ; undefined
	...
   883b0:	005500fb 	.inst	0x005500fb ; undefined
   883b4:	00510055 	.inst	0x00510055 ; undefined
	...
   883e0:	80248024 	.inst	0x80248024 ; NYI
	...
   883f4:	00040000 	.inst	0x00040000 ; undefined
   883f8:	00100008 	.inst	0x00100008 ; undefined
   883fc:	00040008 	.inst	0x00040008 ; undefined
	...
   88414:	00100000 	.inst	0x00100000 ; undefined
   88418:	00040008 	.inst	0x00040008 ; undefined
   8841c:	00100008 	.inst	0x00100008 ; undefined
	...
   8842c:	00440000 	.inst	0x00440000 ; undefined
   88430:	00440044 	.inst	0x00440044 ; undefined
   88434:	00000033 	udf	#51
	...
   8844c:	00110000 	.inst	0x00110000 ; undefined
   88450:	00110011 	.inst	0x00110011 ; undefined
   88454:	00000066 	udf	#102
	...
   88480:	00110011 	.inst	0x00110011 ; undefined
   88484:	00660011 	.inst	0x00660011 ; undefined
	...
   884a0:	00440044 	.inst	0x00440044 ; undefined
   884a4:	00330044 	.inst	0x00330044 ; NYI
	...
   884c0:	00100010 	.inst	0x00100010 ; undefined
   884c4:	000c0010 	.inst	0x000c0010 ; undefined
   884c8:	00220000 	.inst	0x00220000 ; NYI
   884cc:	0000001c 	udf	#28
   884d0:	0021001e 	.inst	0x0021001e ; NYI
   884d4:	00400040 	.inst	0x00400040 ; undefined
   884d8:	00410040 	.inst	0x00410040 ; undefined
   884dc:	00410041 	.inst	0x00410041 ; undefined
   884e0:	001f0021 	.inst	0x001f0021 ; undefined
	...
   884ec:	00220000 	.inst	0x00220000 ; NYI
   884f0:	0000001c 	udf	#28
   884f4:	0021001f 	.inst	0x0021001f ; NYI
   884f8:	00410041 	.inst	0x00410041 ; undefined
   884fc:	00230041 	.inst	0x00230041 ; NYI
   88500:	0001001d 	.inst	0x0001001d ; undefined
   88504:	003c0042 	.inst	0x003c0042 ; NYI
   88508:	00080000 	.inst	0x00080000 ; undefined
   8850c:	00000008 	udf	#8
   88510:	0008003e 	.inst	0x0008003e ; undefined
   88514:	00080008 	.inst	0x00080008 ; undefined
   88518:	00080008 	.inst	0x00080008 ; undefined
   8851c:	00080008 	.inst	0x00080008 ; undefined
   88520:	003e0008 	.inst	0x003e0008 ; NYI
	...
   88534:	0004003c 	.inst	0x0004003c ; undefined
   88538:	00040004 	.inst	0x00040004 ; undefined
   8853c:	00040004 	.inst	0x00040004 ; undefined
   88540:	00040004 	.inst	0x00040004 ; undefined
	...
   88550:	0041003e 	.inst	0x0041003e ; undefined
   88554:	00400040 	.inst	0x00400040 ; undefined
   88558:	000e0030 	.inst	0x000e0030 ; undefined
   8855c:	00010001 	.inst	0x00010001 ; undefined
   88560:	003e0041 	.inst	0x003e0041 ; NYI
   88564:	00180004 	.inst	0x00180004 ; undefined
	...
   88574:	0041003e 	.inst	0x0041003e ; undefined
   88578:	00380040 	.inst	0x00380040 ; NYI
   8857c:	00010006 	.inst	0x00010006 ; undefined
   88580:	003e0041 	.inst	0x003e0041 ; NYI
   88584:	00180004 	.inst	0x00180004 ; undefined
	...
   885b0:	00040004 	.inst	0x00040004 ; undefined
   885b4:	00040004 	.inst	0x00040004 ; undefined
   885b8:	00040004 	.inst	0x00040004 ; undefined
   885bc:	00000004 	udf	#4
   885c0:	00040004 	.inst	0x00040004 ; undefined
	...
   885cc:	00120012 	.inst	0x00120012 ; undefined
   885d0:	00000012 	udf	#18
	...
   885f0:	00120012 	.inst	0x00120012 ; undefined
   885f4:	007f0012 	.inst	0x007f0012 ; undefined
   885f8:	00240024 	.inst	0x00240024 ; NYI
   885fc:	004800fe 	.inst	0x004800fe ; undefined
   88600:	00480048 	.inst	0x00480048 ; undefined
	...
   8860c:	00080000 	.inst	0x00080000 ; undefined
   88610:	0049003e 	.inst	0x0049003e ; undefined
   88614:	00480048 	.inst	0x00480048 ; undefined
   88618:	000e0038 	.inst	0x000e0038 ; undefined
   8861c:	00090009 	.inst	0x00090009 ; undefined
   88620:	003e0049 	.inst	0x003e0049 ; NYI
   88624:	00000008 	udf	#8
	...
   88630:	00490030 	.inst	0x00490030 ; undefined
   88634:	0034004a 	.inst	0x0034004a ; NYI
   88638:	00080008 	.inst	0x00080008 ; undefined
   8863c:	00290016 	.inst	0x00290016 ; NYI
   88640:	00060049 	.inst	0x00060049 ; undefined
	...
   88650:	0022001c 	.inst	0x0022001c ; NYI
   88654:	00240022 	.inst	0x00240022 ; NYI
   88658:	00258019 	.inst	0x00258019 ; NYI
   8865c:	00420042 	.inst	0x00420042 ; undefined
   88660:	80390046 	.inst	0x80390046 ; NYI
	...
   8866c:	00040000 	.inst	0x00040000 ; undefined
   88670:	00040004 	.inst	0x00040004 ; undefined
   88674:	00000018 	udf	#24
	...
   8868c:	00060000 	.inst	0x00060000 ; undefined
   88690:	00100008 	.inst	0x00100008 ; undefined
   88694:	00200010 	.inst	0x00200010 ; NYI
   88698:	00200020 	.inst	0x00200020 ; NYI
   8869c:	00100020 	.inst	0x00100020 ; undefined
   886a0:	00080010 	.inst	0x00080010 ; undefined
   886a4:	00000006 	udf	#6
   886a8:	00000000 	udf	#0
   886ac:	00300000 	.inst	0x00300000 ; NYI
   886b0:	00040008 	.inst	0x00040008 ; undefined
   886b4:	00020004 	.inst	0x00020004 ; undefined
   886b8:	00020002 	.inst	0x00020002 ; undefined
   886bc:	00040002 	.inst	0x00040002 ; undefined
   886c0:	00080004 	.inst	0x00080004 ; undefined
   886c4:	00000030 	udf	#48
	...
   886d0:	002a0008 	.inst	0x002a0008 ; NYI
   886d4:	002a0014 	.inst	0x002a0014 ; NYI
   886d8:	00000008 	udf	#8
	...
   886f4:	00080008 	.inst	0x00080008 ; undefined
   886f8:	007f0008 	.inst	0x007f0008 ; undefined
   886fc:	00080008 	.inst	0x00080008 ; undefined
   88700:	00000008 	udf	#8
	...
   88720:	00040004 	.inst	0x00040004 ; undefined
   88724:	00180004 	.inst	0x00180004 ; undefined
	...
   88738:	007f0000 	.inst	0x007f0000 ; undefined
	...
   88760:	00080008 	.inst	0x00080008 ; undefined
	...
   8876c:	00010000 	.inst	0x00010000 ; undefined
   88770:	00020001 	.inst	0x00020001 ; undefined
   88774:	00040002 	.inst	0x00040002 ; undefined
   88778:	00080004 	.inst	0x00080004 ; undefined
   8877c:	00100008 	.inst	0x00100008 ; undefined
   88780:	00200010 	.inst	0x00200010 ; NYI
   88784:	00000020 	udf	#32
	...
   88790:	0022001c 	.inst	0x0022001c ; NYI
   88794:	00410022 	.inst	0x00410022 ; undefined
   88798:	00490049 	.inst	0x00490049 ; undefined
   8879c:	00220041 	.inst	0x00220041 ; NYI
   887a0:	001c0022 	.inst	0x001c0022 ; undefined
	...
   887b0:	00180008 	.inst	0x00180008 ; undefined
   887b4:	00080028 	.inst	0x00080028 ; undefined
   887b8:	00080008 	.inst	0x00080008 ; undefined
   887bc:	00080008 	.inst	0x00080008 ; undefined
   887c0:	00080008 	.inst	0x00080008 ; undefined
	...
   887d0:	0022001c 	.inst	0x0022001c ; NYI
   887d4:	00020002 	.inst	0x00020002 ; undefined
   887d8:	00080004 	.inst	0x00080004 ; undefined
   887dc:	00200010 	.inst	0x00200010 ; NYI
   887e0:	003e0020 	.inst	0x003e0020 ; NYI
	...
   887f0:	0022001c 	.inst	0x0022001c ; NYI
   887f4:	00040002 	.inst	0x00040002 ; undefined
   887f8:	00040018 	.inst	0x00040018 ; undefined
   887fc:	00020002 	.inst	0x00020002 ; undefined
   88800:	001c0022 	.inst	0x001c0022 ; undefined
	...
   88810:	00060002 	.inst	0x00060002 ; undefined
   88814:	0012000a 	.inst	0x0012000a ; undefined
   88818:	00220022 	.inst	0x00220022 ; NYI
   8881c:	0002803f 	.inst	0x0002803f ; undefined
   88820:	00020002 	.inst	0x00020002 ; undefined
	...
   88830:	0020003e 	.inst	0x0020003e ; NYI
   88834:	00200020 	.inst	0x00200020 ; NYI
   88838:	0002003c 	.inst	0x0002003c ; undefined
   8883c:	00020002 	.inst	0x00020002 ; undefined
   88840:	00380044 	.inst	0x00380044 ; NYI
	...
   88850:	0011000e 	.inst	0x0011000e ; undefined
   88854:	002c0020 	.inst	0x002c0020 ; NYI
   88858:	00210032 	.inst	0x00210032 ; NYI
   8885c:	00210021 	.inst	0x00210021 ; NYI
   88860:	000c0012 	.inst	0x000c0012 ; undefined
	...
   88870:	0002007e 	.inst	0x0002007e ; undefined
   88874:	00040002 	.inst	0x00040002 ; undefined
   88878:	00100008 	.inst	0x00100008 ; undefined
   8887c:	00200010 	.inst	0x00200010 ; NYI
   88880:	00200020 	.inst	0x00200020 ; NYI
	...
   88890:	0021001e 	.inst	0x0021001e ; NYI
   88894:	00120021 	.inst	0x00120021 ; undefined
   88898:	0012000c 	.inst	0x0012000c ; undefined
   8889c:	00210021 	.inst	0x00210021 ; NYI
   888a0:	001e0021 	.inst	0x001e0021 ; undefined
	...
   888b0:	00240018 	.inst	0x00240018 ; NYI
   888b4:	00420042 	.inst	0x00420042 ; undefined
   888b8:	00260042 	.inst	0x00260042 ; NYI
   888bc:	0002001a 	.inst	0x0002001a ; undefined
   888c0:	00380044 	.inst	0x00380044 ; NYI
	...
   888d4:	00080000 	.inst	0x00080000 ; undefined
   888d8:	00000008 	udf	#8
   888dc:	00000000 	udf	#0
   888e0:	00080008 	.inst	0x00080008 ; undefined
	...
   888f4:	00080000 	.inst	0x00080000 ; undefined
   888f8:	00000008 	udf	#8
   888fc:	00000000 	udf	#0
   88900:	00080008 	.inst	0x00080008 ; undefined
   88904:	00300008 	.inst	0x00300008 ; NYI
	...
   88914:	00080004 	.inst	0x00080004 ; undefined
   88918:	00200010 	.inst	0x00200010 ; NYI
   8891c:	00080010 	.inst	0x00080010 ; undefined
   88920:	00000004 	udf	#4
	...
   88938:	0000007f 	udf	#127
   8893c:	0000007f 	udf	#127
	...
   88954:	00080010 	.inst	0x00080010 ; undefined
   88958:	00020004 	.inst	0x00020004 ; undefined
   8895c:	00080004 	.inst	0x00080004 ; undefined
   88960:	00000010 	udf	#16
	...
   88970:	0042003c 	.inst	0x0042003c ; undefined
   88974:	00020002 	.inst	0x00020002 ; undefined
   88978:	00080004 	.inst	0x00080004 ; undefined
   8897c:	00000010 	udf	#16
   88980:	00100010 	.inst	0x00100010 ; undefined
	...
   88990:	0031000e 	.inst	0x0031000e ; NYI
   88994:	00470021 	.inst	0x00470021 ; undefined
   88998:	00490049 	.inst	0x00490049 ; undefined
   8899c:	80260049 	.inst	0x80260049 ; NYI
   889a0:	000f0030 	.inst	0x000f0030 ; undefined
	...
   889b0:	00080008 	.inst	0x00080008 ; undefined
   889b4:	00140014 	.inst	0x00140014 ; undefined
   889b8:	00220022 	.inst	0x00220022 ; NYI
   889bc:	0041007f 	.inst	0x0041007f ; undefined
   889c0:	00410041 	.inst	0x00410041 ; undefined
	...
   889d0:	0021003e 	.inst	0x0021003e ; NYI
   889d4:	00220021 	.inst	0x00220021 ; NYI
   889d8:	0022003c 	.inst	0x0022003c ; NYI
   889dc:	00210021 	.inst	0x00210021 ; NYI
   889e0:	003e0021 	.inst	0x003e0021 ; NYI
	...
   889f0:	0021001e 	.inst	0x0021001e ; NYI
   889f4:	00400040 	.inst	0x00400040 ; undefined
   889f8:	00400040 	.inst	0x00400040 ; undefined
   889fc:	00400040 	.inst	0x00400040 ; undefined
   88a00:	001e0021 	.inst	0x001e0021 ; undefined
	...
   88a10:	0022003c 	.inst	0x0022003c ; NYI
   88a14:	00210021 	.inst	0x00210021 ; NYI
   88a18:	00210021 	.inst	0x00210021 ; NYI
   88a1c:	00210021 	.inst	0x00210021 ; NYI
   88a20:	003c0022 	.inst	0x003c0022 ; NYI
	...
   88a30:	0020003f 	.inst	0x0020003f ; NYI
   88a34:	00200020 	.inst	0x00200020 ; NYI
   88a38:	0020003e 	.inst	0x0020003e ; NYI
   88a3c:	00200020 	.inst	0x00200020 ; NYI
   88a40:	003f0020 	.inst	0x003f0020 ; NYI
	...
   88a50:	0020003f 	.inst	0x0020003f ; NYI
   88a54:	00200020 	.inst	0x00200020 ; NYI
   88a58:	003f0020 	.inst	0x003f0020 ; NYI
   88a5c:	00200020 	.inst	0x00200020 ; NYI
   88a60:	00200020 	.inst	0x00200020 ; NYI
	...
   88a70:	0021001e 	.inst	0x0021001e ; NYI
   88a74:	00400040 	.inst	0x00400040 ; undefined
   88a78:	00410040 	.inst	0x00410040 ; undefined
   88a7c:	00410041 	.inst	0x00410041 ; undefined
   88a80:	001f0021 	.inst	0x001f0021 ; undefined
	...
   88a90:	00410041 	.inst	0x00410041 ; undefined
   88a94:	00410041 	.inst	0x00410041 ; undefined
   88a98:	0041007f 	.inst	0x0041007f ; undefined
   88a9c:	00410041 	.inst	0x00410041 ; undefined
   88aa0:	00410041 	.inst	0x00410041 ; undefined
	...
   88ab0:	0008003e 	.inst	0x0008003e ; undefined
   88ab4:	00080008 	.inst	0x00080008 ; undefined
   88ab8:	00080008 	.inst	0x00080008 ; undefined
   88abc:	00080008 	.inst	0x00080008 ; undefined
   88ac0:	003e0008 	.inst	0x003e0008 ; NYI
	...
   88ad0:	0004003c 	.inst	0x0004003c ; undefined
   88ad4:	00040004 	.inst	0x00040004 ; undefined
   88ad8:	00040004 	.inst	0x00040004 ; undefined
   88adc:	00040004 	.inst	0x00040004 ; undefined
   88ae0:	00700008 	.inst	0x00700008 ; undefined
	...
   88af0:	00220021 	.inst	0x00220021 ; NYI
   88af4:	00280024 	.inst	0x00280024 ; NYI
   88af8:	00280030 	.inst	0x00280030 ; NYI
   88afc:	00220024 	.inst	0x00220024 ; NYI
   88b00:	00210021 	.inst	0x00210021 ; NYI
	...
   88b10:	00200020 	.inst	0x00200020 ; NYI
   88b14:	00200020 	.inst	0x00200020 ; NYI
   88b18:	00200020 	.inst	0x00200020 ; NYI
   88b1c:	00200020 	.inst	0x00200020 ; NYI
   88b20:	003f0020 	.inst	0x003f0020 ; NYI
	...
   88b30:	00630063 	.inst	0x00630063 ; undefined
   88b34:	00550055 	.inst	0x00550055 ; undefined
   88b38:	00550055 	.inst	0x00550055 ; undefined
   88b3c:	00490049 	.inst	0x00490049 ; undefined
   88b40:	00410041 	.inst	0x00410041 ; undefined
	...
   88b50:	00610061 	.inst	0x00610061 ; undefined
   88b54:	00510051 	.inst	0x00510051 ; undefined
   88b58:	00490049 	.inst	0x00490049 ; undefined
   88b5c:	00450045 	.inst	0x00450045 ; undefined
   88b60:	00430043 	.inst	0x00430043 ; undefined
	...
   88b70:	0022001c 	.inst	0x0022001c ; NYI
   88b74:	00410041 	.inst	0x00410041 ; undefined
   88b78:	00410041 	.inst	0x00410041 ; undefined
   88b7c:	00410041 	.inst	0x00410041 ; undefined
   88b80:	001c0022 	.inst	0x001c0022 ; undefined
	...
   88b90:	0021003e 	.inst	0x0021003e ; NYI
   88b94:	00210021 	.inst	0x00210021 ; NYI
   88b98:	003c0022 	.inst	0x003c0022 ; NYI
   88b9c:	00200020 	.inst	0x00200020 ; NYI
   88ba0:	00200020 	.inst	0x00200020 ; NYI
	...
   88bb0:	0022001c 	.inst	0x0022001c ; NYI
   88bb4:	00410041 	.inst	0x00410041 ; undefined
   88bb8:	00410041 	.inst	0x00410041 ; undefined
   88bbc:	00410041 	.inst	0x00410041 ; undefined
   88bc0:	001c0022 	.inst	0x001c0022 ; undefined
   88bc4:	80010002 	.inst	0x80010002 ; undefined
	...
   88bd0:	0021003e 	.inst	0x0021003e ; NYI
   88bd4:	00210021 	.inst	0x00210021 ; NYI
   88bd8:	003c0022 	.inst	0x003c0022 ; NYI
   88bdc:	00220022 	.inst	0x00220022 ; NYI
   88be0:	00210021 	.inst	0x00210021 ; NYI
	...
   88bf0:	0041003e 	.inst	0x0041003e ; undefined
   88bf4:	00400040 	.inst	0x00400040 ; undefined
   88bf8:	000e0030 	.inst	0x000e0030 ; undefined
   88bfc:	00010001 	.inst	0x00010001 ; undefined
   88c00:	003e0041 	.inst	0x003e0041 ; NYI
	...
   88c10:	0008007f 	.inst	0x0008007f ; undefined
   88c14:	00080008 	.inst	0x00080008 ; undefined
   88c18:	00080008 	.inst	0x00080008 ; undefined
   88c1c:	00080008 	.inst	0x00080008 ; undefined
   88c20:	00080008 	.inst	0x00080008 ; undefined
	...
   88c30:	00410041 	.inst	0x00410041 ; undefined
   88c34:	00410041 	.inst	0x00410041 ; undefined
   88c38:	00410041 	.inst	0x00410041 ; undefined
   88c3c:	00410041 	.inst	0x00410041 ; undefined
   88c40:	001c0022 	.inst	0x001c0022 ; undefined
	...
   88c50:	00410041 	.inst	0x00410041 ; undefined
   88c54:	00220041 	.inst	0x00220041 ; NYI
   88c58:	00220022 	.inst	0x00220022 ; NYI
   88c5c:	00140014 	.inst	0x00140014 ; undefined
   88c60:	00080008 	.inst	0x00080008 ; undefined
	...
   88c70:	00490041 	.inst	0x00490041 ; undefined
   88c74:	00550049 	.inst	0x00550049 ; undefined
   88c78:	00550055 	.inst	0x00550055 ; undefined
   88c7c:	00220022 	.inst	0x00220022 ; NYI
   88c80:	00220022 	.inst	0x00220022 ; NYI
	...
   88c90:	00410041 	.inst	0x00410041 ; undefined
   88c94:	00140022 	.inst	0x00140022 ; undefined
   88c98:	00140008 	.inst	0x00140008 ; undefined
   88c9c:	00220022 	.inst	0x00220022 ; NYI
   88ca0:	00410041 	.inst	0x00410041 ; undefined
	...
   88cb0:	00410041 	.inst	0x00410041 ; undefined
   88cb4:	00220022 	.inst	0x00220022 ; NYI
   88cb8:	0008001c 	.inst	0x0008001c ; undefined
   88cbc:	00080008 	.inst	0x00080008 ; undefined
   88cc0:	00080008 	.inst	0x00080008 ; undefined
	...
   88cd0:	0001007f 	.inst	0x0001007f ; undefined
   88cd4:	00040002 	.inst	0x00040002 ; undefined
   88cd8:	00100008 	.inst	0x00100008 ; undefined
   88cdc:	00400020 	.inst	0x00400020 ; undefined
   88ce0:	007f0040 	.inst	0x007f0040 ; undefined
	...
   88cec:	001e0000 	.inst	0x001e0000 ; undefined
   88cf0:	00100010 	.inst	0x00100010 ; undefined
   88cf4:	00100010 	.inst	0x00100010 ; undefined
   88cf8:	00100010 	.inst	0x00100010 ; undefined
   88cfc:	00100010 	.inst	0x00100010 ; undefined
   88d00:	00100010 	.inst	0x00100010 ; undefined
   88d04:	0000001e 	udf	#30
   88d08:	00000000 	udf	#0
   88d0c:	00200000 	.inst	0x00200000 ; NYI
   88d10:	00100020 	.inst	0x00100020 ; undefined
   88d14:	00080010 	.inst	0x00080010 ; undefined
   88d18:	00040008 	.inst	0x00040008 ; undefined
   88d1c:	00020004 	.inst	0x00020004 ; undefined
   88d20:	00010002 	.inst	0x00010002 ; undefined
   88d24:	00000001 	udf	#1
   88d28:	00000000 	udf	#0
   88d2c:	003c0000 	.inst	0x003c0000 ; NYI
   88d30:	00040004 	.inst	0x00040004 ; undefined
   88d34:	00040004 	.inst	0x00040004 ; undefined
   88d38:	00040004 	.inst	0x00040004 ; undefined
   88d3c:	00040004 	.inst	0x00040004 ; undefined
   88d40:	00040004 	.inst	0x00040004 ; undefined
   88d44:	0000003c 	udf	#60
	...
   88d50:	00080008 	.inst	0x00080008 ; undefined
   88d54:	00140014 	.inst	0x00140014 ; undefined
   88d58:	00220022 	.inst	0x00220022 ; NYI
   88d5c:	00000022 	udf	#34
	...
   88d84:	000080ff 	udf	#33023
   88d88:	00000000 	udf	#0
   88d8c:	00100000 	.inst	0x00100000 ; undefined
   88d90:	00100010 	.inst	0x00100010 ; undefined
   88d94:	0000000c 	udf	#12
	...
   88db4:	0002003c 	.inst	0x0002003c ; undefined
   88db8:	003e0002 	.inst	0x003e0002 ; NYI
   88dbc:	00420042 	.inst	0x00420042 ; undefined
   88dc0:	80390046 	.inst	0x80390046 ; NYI
	...
   88dcc:	00400000 	.inst	0x00400000 ; undefined
   88dd0:	00400040 	.inst	0x00400040 ; undefined
   88dd4:	0062005c 	.inst	0x0062005c ; undefined
   88dd8:	00410041 	.inst	0x00410041 ; undefined
   88ddc:	00410041 	.inst	0x00410041 ; undefined
   88de0:	007c0042 	.inst	0x007c0042 ; undefined
	...
   88df4:	0021001e 	.inst	0x0021001e ; NYI
   88df8:	00400040 	.inst	0x00400040 ; undefined
   88dfc:	00400040 	.inst	0x00400040 ; undefined
   88e00:	001e0021 	.inst	0x001e0021 ; undefined
	...
   88e0c:	00010000 	.inst	0x00010000 ; undefined
   88e10:	00010001 	.inst	0x00010001 ; undefined
   88e14:	0021001f 	.inst	0x0021001f ; NYI
   88e18:	00410041 	.inst	0x00410041 ; undefined
   88e1c:	00410041 	.inst	0x00410041 ; undefined
   88e20:	001d0023 	.inst	0x001d0023 ; undefined
	...
   88e34:	0021001e 	.inst	0x0021001e ; NYI
   88e38:	007f0041 	.inst	0x007f0041 ; undefined
   88e3c:	00400040 	.inst	0x00400040 ; undefined
   88e40:	001e0021 	.inst	0x001e0021 ; undefined
	...
   88e4c:	000f0000 	.inst	0x000f0000 ; undefined
   88e50:	00100010 	.inst	0x00100010 ; undefined
   88e54:	007f0010 	.inst	0x007f0010 ; undefined
   88e58:	00100010 	.inst	0x00100010 ; undefined
   88e5c:	00100010 	.inst	0x00100010 ; undefined
   88e60:	00100010 	.inst	0x00100010 ; undefined
	...
   88e74:	0021001f 	.inst	0x0021001f ; NYI
   88e78:	00410041 	.inst	0x00410041 ; undefined
   88e7c:	00230041 	.inst	0x00230041 ; NYI
   88e80:	0001001d 	.inst	0x0001001d ; undefined
   88e84:	003c0042 	.inst	0x003c0042 ; NYI
   88e88:	00000000 	udf	#0
   88e8c:	00400000 	.inst	0x00400000 ; undefined
   88e90:	00400040 	.inst	0x00400040 ; undefined
   88e94:	0053004e 	.inst	0x0053004e ; undefined
   88e98:	00410061 	.inst	0x00410061 ; undefined
   88e9c:	00410041 	.inst	0x00410041 ; undefined
   88ea0:	00410041 	.inst	0x00410041 ; undefined
	...
   88eac:	00040000 	.inst	0x00040000 ; undefined
   88eb0:	00000004 	udf	#4
   88eb4:	0004003c 	.inst	0x0004003c ; undefined
   88eb8:	00040004 	.inst	0x00040004 ; undefined
   88ebc:	00040004 	.inst	0x00040004 ; undefined
   88ec0:	00040004 	.inst	0x00040004 ; undefined
	...
   88ecc:	00040000 	.inst	0x00040000 ; undefined
   88ed0:	00000004 	udf	#4
   88ed4:	0004003c 	.inst	0x0004003c ; undefined
   88ed8:	00040004 	.inst	0x00040004 ; undefined
   88edc:	00040004 	.inst	0x00040004 ; undefined
   88ee0:	00040004 	.inst	0x00040004 ; undefined
   88ee4:	00700008 	.inst	0x00700008 ; undefined
   88ee8:	00000000 	udf	#0
   88eec:	00400000 	.inst	0x00400000 ; undefined
   88ef0:	00400040 	.inst	0x00400040 ; undefined
   88ef4:	00440042 	.inst	0x00440042 ; undefined
   88ef8:	00700048 	.inst	0x00700048 ; undefined
   88efc:	00440048 	.inst	0x00440048 ; undefined
   88f00:	00410042 	.inst	0x00410042 ; undefined
	...
   88f0c:	00780000 	.inst	0x00780000 ; undefined
   88f10:	00080008 	.inst	0x00080008 ; undefined
   88f14:	00080008 	.inst	0x00080008 ; undefined
   88f18:	00080008 	.inst	0x00080008 ; undefined
   88f1c:	00080008 	.inst	0x00080008 ; undefined
   88f20:	00080008 	.inst	0x00080008 ; undefined
	...
   88f34:	006d0052 	.inst	0x006d0052 ; undefined
   88f38:	00490049 	.inst	0x00490049 ; undefined
   88f3c:	00490049 	.inst	0x00490049 ; undefined
   88f40:	00490049 	.inst	0x00490049 ; undefined
	...
   88f54:	0053004e 	.inst	0x0053004e ; undefined
   88f58:	00410061 	.inst	0x00410061 ; undefined
   88f5c:	00410041 	.inst	0x00410041 ; undefined
   88f60:	00410041 	.inst	0x00410041 ; undefined
	...
   88f74:	0022001c 	.inst	0x0022001c ; NYI
   88f78:	00410041 	.inst	0x00410041 ; undefined
   88f7c:	00410041 	.inst	0x00410041 ; undefined
   88f80:	001c0022 	.inst	0x001c0022 ; undefined
	...
   88f94:	0052004c 	.inst	0x0052004c ; undefined
   88f98:	00410061 	.inst	0x00410061 ; undefined
   88f9c:	00410041 	.inst	0x00410041 ; undefined
   88fa0:	007c0042 	.inst	0x007c0042 ; undefined
   88fa4:	00400040 	.inst	0x00400040 ; undefined
	...
   88fb4:	0021001f 	.inst	0x0021001f ; NYI
   88fb8:	00410041 	.inst	0x00410041 ; undefined
   88fbc:	00430041 	.inst	0x00430041 ; undefined
   88fc0:	00190025 	.inst	0x00190025 ; undefined
   88fc4:	00010001 	.inst	0x00010001 ; undefined
	...
   88fd4:	002d0023 	.inst	0x002d0023 ; NYI
   88fd8:	00200030 	.inst	0x00200030 ; NYI
   88fdc:	00200020 	.inst	0x00200020 ; NYI
   88fe0:	00200020 	.inst	0x00200020 ; NYI
	...
   88ff4:	0041003e 	.inst	0x0041003e ; undefined
   88ff8:	00380040 	.inst	0x00380040 ; NYI
   88ffc:	00010006 	.inst	0x00010006 ; undefined
   89000:	003e0041 	.inst	0x003e0041 ; NYI
	...
   89010:	00080008 	.inst	0x00080008 ; undefined
   89014:	0008007f 	.inst	0x0008007f ; undefined
   89018:	00080008 	.inst	0x00080008 ; undefined
   8901c:	00080008 	.inst	0x00080008 ; undefined
   89020:	00070008 	.inst	0x00070008 ; undefined
	...
   89034:	00410041 	.inst	0x00410041 ; undefined
   89038:	00410041 	.inst	0x00410041 ; undefined
   8903c:	00430041 	.inst	0x00430041 ; undefined
   89040:	00390065 	.inst	0x00390065 ; NYI
	...
   89054:	00410041 	.inst	0x00410041 ; undefined
   89058:	00220022 	.inst	0x00220022 ; NYI
   8905c:	00140014 	.inst	0x00140014 ; undefined
   89060:	00080008 	.inst	0x00080008 ; undefined
	...
   89074:	00490041 	.inst	0x00490041 ; undefined
   89078:	00550049 	.inst	0x00550049 ; undefined
   8907c:	00220055 	.inst	0x00220055 ; NYI
   89080:	00220022 	.inst	0x00220022 ; NYI
	...
   89094:	00220041 	.inst	0x00220041 ; NYI
   89098:	00080014 	.inst	0x00080014 ; undefined
   8909c:	00220014 	.inst	0x00220014 ; NYI
   890a0:	00410041 	.inst	0x00410041 ; undefined
	...
   890b4:	00410041 	.inst	0x00410041 ; undefined
   890b8:	00220022 	.inst	0x00220022 ; NYI
   890bc:	00140014 	.inst	0x00140014 ; undefined
   890c0:	00080008 	.inst	0x00080008 ; undefined
   890c4:	00300010 	.inst	0x00300010 ; NYI
	...
   890d4:	0002007f 	.inst	0x0002007f ; undefined
   890d8:	00080004 	.inst	0x00080004 ; undefined
   890dc:	00200010 	.inst	0x00200010 ; NYI
   890e0:	007f0040 	.inst	0x007f0040 ; undefined
	...
   890ec:	000f0000 	.inst	0x000f0000 ; undefined
   890f0:	00100010 	.inst	0x00100010 ; undefined
   890f4:	00040008 	.inst	0x00040008 ; undefined
   890f8:	00040038 	.inst	0x00040038 ; undefined
   890fc:	00100008 	.inst	0x00100008 ; undefined
   89100:	00100010 	.inst	0x00100010 ; undefined
   89104:	0000000f 	udf	#15
   89108:	00000000 	udf	#0
   8910c:	00080000 	.inst	0x00080000 ; undefined
   89110:	00080008 	.inst	0x00080008 ; undefined
   89114:	00080008 	.inst	0x00080008 ; undefined
   89118:	00080008 	.inst	0x00080008 ; undefined
   8911c:	00080008 	.inst	0x00080008 ; undefined
   89120:	00080008 	.inst	0x00080008 ; undefined
   89124:	00000008 	udf	#8
   89128:	00000000 	udf	#0
   8912c:	00780000 	.inst	0x00780000 ; undefined
   89130:	00040004 	.inst	0x00040004 ; undefined
   89134:	00100008 	.inst	0x00100008 ; undefined
   89138:	0010000e 	.inst	0x0010000e ; undefined
   8913c:	00040008 	.inst	0x00040008 ; undefined
   89140:	00040004 	.inst	0x00040004 ; undefined
   89144:	00000078 	udf	#120
	...
   89158:	00490031 	.inst	0x00490031 ; undefined
   8915c:	00000046 	udf	#70
	...
   89178:	00180000 	.inst	0x00180000 ; undefined
   8917c:	00000018 	udf	#24
	...
   89188:	00300000 	.inst	0x00300000 ; NYI
   8918c:	0000000c 	udf	#12
   89190:	00080008 	.inst	0x00080008 ; undefined
   89194:	00140014 	.inst	0x00140014 ; undefined
   89198:	00220022 	.inst	0x00220022 ; NYI
   8919c:	0041007f 	.inst	0x0041007f ; undefined
   891a0:	00410041 	.inst	0x00410041 ; undefined
   891a4:	00000000 	udf	#0
   891a8:	00060000 	.inst	0x00060000 ; undefined
   891ac:	00000018 	udf	#24
   891b0:	00080008 	.inst	0x00080008 ; undefined
   891b4:	00140014 	.inst	0x00140014 ; undefined
   891b8:	00220022 	.inst	0x00220022 ; NYI
   891bc:	0041007f 	.inst	0x0041007f ; undefined
   891c0:	00410041 	.inst	0x00410041 ; undefined
   891c4:	00000000 	udf	#0
   891c8:	000c0000 	.inst	0x000c0000 ; undefined
   891cc:	00000012 	udf	#18
   891d0:	00080008 	.inst	0x00080008 ; undefined
   891d4:	00140014 	.inst	0x00140014 ; undefined
   891d8:	00220022 	.inst	0x00220022 ; NYI
   891dc:	0041007f 	.inst	0x0041007f ; undefined
   891e0:	00410041 	.inst	0x00410041 ; undefined
   891e4:	00000000 	udf	#0
   891e8:	000d0000 	.inst	0x000d0000 ; undefined
   891ec:	00000016 	udf	#22
   891f0:	00080008 	.inst	0x00080008 ; undefined
   891f4:	00140014 	.inst	0x00140014 ; undefined
   891f8:	00220022 	.inst	0x00220022 ; NYI
   891fc:	0041007f 	.inst	0x0041007f ; undefined
   89200:	00410041 	.inst	0x00410041 ; undefined
   89204:	00000000 	udf	#0
   89208:	00220000 	.inst	0x00220000 ; NYI
   8920c:	00000022 	udf	#34
   89210:	00080008 	.inst	0x00080008 ; undefined
   89214:	00140014 	.inst	0x00140014 ; undefined
   89218:	00220022 	.inst	0x00220022 ; NYI
   8921c:	0041007f 	.inst	0x0041007f ; undefined
   89220:	00410041 	.inst	0x00410041 ; undefined
	...
   8922c:	00140008 	.inst	0x00140008 ; undefined
   89230:	00080008 	.inst	0x00080008 ; undefined
   89234:	00140014 	.inst	0x00140014 ; undefined
   89238:	00220022 	.inst	0x00220022 ; NYI
   8923c:	0041007f 	.inst	0x0041007f ; undefined
   89240:	00410041 	.inst	0x00410041 ; undefined
	...
   89250:	000c800f 	.inst	0x000c800f ; undefined
   89254:	00140014 	.inst	0x00140014 ; undefined
   89258:	00240027 	.inst	0x00240027 ; NYI
   8925c:	0044003c 	.inst	0x0044003c ; undefined
   89260:	80470044 	.inst	0x80470044 ; undefined
	...
   89270:	0021001e 	.inst	0x0021001e ; NYI
   89274:	00400040 	.inst	0x00400040 ; undefined
   89278:	00400040 	.inst	0x00400040 ; undefined
   8927c:	00400040 	.inst	0x00400040 ; undefined
   89280:	001e0021 	.inst	0x001e0021 ; undefined
   89284:	00180004 	.inst	0x00180004 ; undefined
   89288:	00180000 	.inst	0x00180000 ; undefined
   8928c:	00000006 	udf	#6
   89290:	0020003f 	.inst	0x0020003f ; NYI
   89294:	00200020 	.inst	0x00200020 ; NYI
   89298:	0020003e 	.inst	0x0020003e ; NYI
   8929c:	00200020 	.inst	0x00200020 ; NYI
   892a0:	003f0020 	.inst	0x003f0020 ; NYI
   892a4:	00000000 	udf	#0
   892a8:	00060000 	.inst	0x00060000 ; undefined
   892ac:	00000018 	udf	#24
   892b0:	0020003f 	.inst	0x0020003f ; NYI
   892b4:	00200020 	.inst	0x00200020 ; NYI
   892b8:	0020003e 	.inst	0x0020003e ; NYI
   892bc:	00200020 	.inst	0x00200020 ; NYI
   892c0:	003f0020 	.inst	0x003f0020 ; NYI
   892c4:	00000000 	udf	#0
   892c8:	000c0000 	.inst	0x000c0000 ; undefined
   892cc:	00000012 	udf	#18
   892d0:	0020003f 	.inst	0x0020003f ; NYI
   892d4:	00200020 	.inst	0x00200020 ; NYI
   892d8:	0020003e 	.inst	0x0020003e ; NYI
   892dc:	00200020 	.inst	0x00200020 ; NYI
   892e0:	003f0020 	.inst	0x003f0020 ; NYI
   892e4:	00000000 	udf	#0
   892e8:	00120000 	.inst	0x00120000 ; undefined
   892ec:	00000012 	udf	#18
   892f0:	0020003f 	.inst	0x0020003f ; NYI
   892f4:	00200020 	.inst	0x00200020 ; NYI
   892f8:	0020003e 	.inst	0x0020003e ; NYI
   892fc:	00200020 	.inst	0x00200020 ; NYI
   89300:	003f0020 	.inst	0x003f0020 ; NYI
   89304:	00000000 	udf	#0
   89308:	00300000 	.inst	0x00300000 ; NYI
   8930c:	0000000c 	udf	#12
   89310:	0008003e 	.inst	0x0008003e ; undefined
   89314:	00080008 	.inst	0x00080008 ; undefined
   89318:	00080008 	.inst	0x00080008 ; undefined
   8931c:	00080008 	.inst	0x00080008 ; undefined
   89320:	003e0008 	.inst	0x003e0008 ; NYI
   89324:	00000000 	udf	#0
   89328:	00060000 	.inst	0x00060000 ; undefined
   8932c:	00000018 	udf	#24
   89330:	0008003e 	.inst	0x0008003e ; undefined
   89334:	00080008 	.inst	0x00080008 ; undefined
   89338:	00080008 	.inst	0x00080008 ; undefined
   8933c:	00080008 	.inst	0x00080008 ; undefined
   89340:	003e0008 	.inst	0x003e0008 ; NYI
   89344:	00000000 	udf	#0
   89348:	000c0000 	.inst	0x000c0000 ; undefined
   8934c:	00000012 	udf	#18
   89350:	0008003e 	.inst	0x0008003e ; undefined
   89354:	00080008 	.inst	0x00080008 ; undefined
   89358:	00080008 	.inst	0x00080008 ; undefined
   8935c:	00080008 	.inst	0x00080008 ; undefined
   89360:	003e0008 	.inst	0x003e0008 ; NYI
   89364:	00000000 	udf	#0
   89368:	00220000 	.inst	0x00220000 ; NYI
   8936c:	00000022 	udf	#34
   89370:	0008003e 	.inst	0x0008003e ; undefined
   89374:	00080008 	.inst	0x00080008 ; undefined
   89378:	00080008 	.inst	0x00080008 ; undefined
   8937c:	00080008 	.inst	0x00080008 ; undefined
   89380:	003e0008 	.inst	0x003e0008 ; NYI
	...
   89390:	0022003c 	.inst	0x0022003c ; NYI
   89394:	00210021 	.inst	0x00210021 ; NYI
   89398:	002100f9 	.inst	0x002100f9 ; NYI
   8939c:	00210021 	.inst	0x00210021 ; NYI
   893a0:	003c0022 	.inst	0x003c0022 ; NYI
   893a4:	00000000 	udf	#0
   893a8:	001a0000 	.inst	0x001a0000 ; undefined
   893ac:	0000002c 	udf	#44
   893b0:	00610061 	.inst	0x00610061 ; undefined
   893b4:	00510051 	.inst	0x00510051 ; undefined
   893b8:	00490049 	.inst	0x00490049 ; undefined
   893bc:	00450045 	.inst	0x00450045 ; undefined
   893c0:	00430043 	.inst	0x00430043 ; undefined
   893c4:	00000000 	udf	#0
   893c8:	00300000 	.inst	0x00300000 ; NYI
   893cc:	0000000c 	udf	#12
   893d0:	0022001c 	.inst	0x0022001c ; NYI
   893d4:	00410041 	.inst	0x00410041 ; undefined
   893d8:	00410041 	.inst	0x00410041 ; undefined
   893dc:	00410041 	.inst	0x00410041 ; undefined
   893e0:	001c0022 	.inst	0x001c0022 ; undefined
   893e4:	00000000 	udf	#0
   893e8:	00060000 	.inst	0x00060000 ; undefined
   893ec:	00000018 	udf	#24
   893f0:	0022001c 	.inst	0x0022001c ; NYI
   893f4:	00410041 	.inst	0x00410041 ; undefined
   893f8:	00410041 	.inst	0x00410041 ; undefined
   893fc:	00410041 	.inst	0x00410041 ; undefined
   89400:	001c0022 	.inst	0x001c0022 ; undefined
   89404:	00000000 	udf	#0
   89408:	000c0000 	.inst	0x000c0000 ; undefined
   8940c:	00000012 	udf	#18
   89410:	0022001c 	.inst	0x0022001c ; NYI
   89414:	00410041 	.inst	0x00410041 ; undefined
   89418:	00410041 	.inst	0x00410041 ; undefined
   8941c:	00410041 	.inst	0x00410041 ; undefined
   89420:	001c0022 	.inst	0x001c0022 ; undefined
   89424:	00000000 	udf	#0
   89428:	001a0000 	.inst	0x001a0000 ; undefined
   8942c:	0000002c 	udf	#44
   89430:	0022001c 	.inst	0x0022001c ; NYI
   89434:	00410041 	.inst	0x00410041 ; undefined
   89438:	00410041 	.inst	0x00410041 ; undefined
   8943c:	00410041 	.inst	0x00410041 ; undefined
   89440:	001c0022 	.inst	0x001c0022 ; undefined
   89444:	00000000 	udf	#0
   89448:	00220000 	.inst	0x00220000 ; NYI
   8944c:	00000022 	udf	#34
   89450:	0022001c 	.inst	0x0022001c ; NYI
   89454:	00410041 	.inst	0x00410041 ; undefined
   89458:	00410041 	.inst	0x00410041 ; undefined
   8945c:	00410041 	.inst	0x00410041 ; undefined
   89460:	001c0022 	.inst	0x001c0022 ; undefined
	...
   89474:	00120021 	.inst	0x00120021 ; undefined
   89478:	000c000c 	.inst	0x000c000c ; undefined
   8947c:	00210012 	.inst	0x00210012 ; NYI
	...
   89490:	0022001d 	.inst	0x0022001d ; NYI
   89494:	00450045 	.inst	0x00450045 ; undefined
   89498:	00490049 	.inst	0x00490049 ; undefined
   8949c:	00510051 	.inst	0x00510051 ; undefined
   894a0:	005c0022 	.inst	0x005c0022 ; undefined
   894a4:	00000000 	udf	#0
   894a8:	00300000 	.inst	0x00300000 ; NYI
   894ac:	0000000c 	udf	#12
   894b0:	00410041 	.inst	0x00410041 ; undefined
   894b4:	00410041 	.inst	0x00410041 ; undefined
   894b8:	00410041 	.inst	0x00410041 ; undefined
   894bc:	00410041 	.inst	0x00410041 ; undefined
   894c0:	001c0022 	.inst	0x001c0022 ; undefined
   894c4:	00000000 	udf	#0
   894c8:	00060000 	.inst	0x00060000 ; undefined
   894cc:	00000018 	udf	#24
   894d0:	00410041 	.inst	0x00410041 ; undefined
   894d4:	00410041 	.inst	0x00410041 ; undefined
   894d8:	00410041 	.inst	0x00410041 ; undefined
   894dc:	00410041 	.inst	0x00410041 ; undefined
   894e0:	001c0022 	.inst	0x001c0022 ; undefined
   894e4:	00000000 	udf	#0
   894e8:	000c0000 	.inst	0x000c0000 ; undefined
   894ec:	00000012 	udf	#18
   894f0:	00410041 	.inst	0x00410041 ; undefined
   894f4:	00410041 	.inst	0x00410041 ; undefined
   894f8:	00410041 	.inst	0x00410041 ; undefined
   894fc:	00410041 	.inst	0x00410041 ; undefined
   89500:	001c0022 	.inst	0x001c0022 ; undefined
   89504:	00000000 	udf	#0
   89508:	00220000 	.inst	0x00220000 ; NYI
   8950c:	00000022 	udf	#34
   89510:	00410041 	.inst	0x00410041 ; undefined
   89514:	00410041 	.inst	0x00410041 ; undefined
   89518:	00410041 	.inst	0x00410041 ; undefined
   8951c:	00410041 	.inst	0x00410041 ; undefined
   89520:	001c0022 	.inst	0x001c0022 ; undefined
   89524:	00000000 	udf	#0
   89528:	00060000 	.inst	0x00060000 ; undefined
   8952c:	00000018 	udf	#24
   89530:	00410041 	.inst	0x00410041 ; undefined
   89534:	00220022 	.inst	0x00220022 ; NYI
   89538:	0008001c 	.inst	0x0008001c ; undefined
   8953c:	00080008 	.inst	0x00080008 ; undefined
   89540:	00080008 	.inst	0x00080008 ; undefined
	...
   89550:	00200020 	.inst	0x00200020 ; NYI
   89554:	0021003e 	.inst	0x0021003e ; NYI
   89558:	00210021 	.inst	0x00210021 ; NYI
   8955c:	003c0022 	.inst	0x003c0022 ; NYI
   89560:	00200020 	.inst	0x00200020 ; NYI
	...
   8956c:	001c0000 	.inst	0x001c0000 ; undefined
   89570:	00220022 	.inst	0x00220022 ; NYI
   89574:	00280024 	.inst	0x00280024 ; NYI
   89578:	00210026 	.inst	0x00210026 ; NYI
   8957c:	00210021 	.inst	0x00210021 ; NYI
   89580:	002e0021 	.inst	0x002e0021 ; NYI
   89584:	00000000 	udf	#0
   89588:	80aa4055 	.inst	0x80aa4055 ; undefined
   8958c:	80aa4055 	.inst	0x80aa4055 ; undefined
   89590:	80aa4055 	.inst	0x80aa4055 ; undefined
   89594:	80aa4055 	.inst	0x80aa4055 ; undefined
   89598:	80aa4055 	.inst	0x80aa4055 ; undefined
   8959c:	80aa4055 	.inst	0x80aa4055 ; undefined
   895a0:	80aa4055 	.inst	0x80aa4055 ; undefined
   895a4:	80aa4055 	.inst	0x80aa4055 ; undefined
	...
   895b4:	00080008 	.inst	0x00080008 ; undefined
   895b8:	00080000 	.inst	0x00080000 ; undefined
   895bc:	00080008 	.inst	0x00080008 ; undefined
   895c0:	00080008 	.inst	0x00080008 ; undefined
   895c4:	00080008 	.inst	0x00080008 ; undefined
   895c8:	00000000 	udf	#0
   895cc:	00080000 	.inst	0x00080000 ; undefined
   895d0:	001e0008 	.inst	0x001e0008 ; undefined
   895d4:	00480029 	.inst	0x00480029 ; undefined
   895d8:	00480048 	.inst	0x00480048 ; undefined
   895dc:	00290048 	.inst	0x00290048 ; NYI
   895e0:	0008001e 	.inst	0x0008001e ; undefined
   895e4:	00000008 	udf	#8
	...
   895f0:	0011000e 	.inst	0x0011000e ; undefined
   895f4:	00100010 	.inst	0x00100010 ; undefined
   895f8:	0010007e 	.inst	0x0010007e ; undefined
   895fc:	00100010 	.inst	0x00100010 ; undefined
   89600:	007f0020 	.inst	0x007f0020 ; undefined
	...
   89610:	8010000f 	.inst	0x8010000f ; undefined
   89614:	00fe0020 	.inst	0x00fe0020 ; undefined
   89618:	00fc0020 	.inst	0x00fc0020 ; undefined
   8961c:	00200020 	.inst	0x00200020 ; NYI
   89620:	000f8010 	.inst	0x000f8010 ; undefined
	...
   89630:	00410041 	.inst	0x00410041 ; undefined
   89634:	00220022 	.inst	0x00220022 ; NYI
   89638:	003e001c 	.inst	0x003e001c ; NYI
   8963c:	003e0008 	.inst	0x003e0008 ; NYI
   89640:	00080008 	.inst	0x00080008 ; undefined
   89644:	00000000 	udf	#0
   89648:	00120000 	.inst	0x00120000 ; undefined
   8964c:	0000000c 	udf	#12
   89650:	0041003e 	.inst	0x0041003e ; undefined
   89654:	00400040 	.inst	0x00400040 ; undefined
   89658:	000e0030 	.inst	0x000e0030 ; undefined
   8965c:	00010001 	.inst	0x00010001 ; undefined
   89660:	003e0041 	.inst	0x003e0041 ; NYI
	...
   89670:	0022001c 	.inst	0x0022001c ; NYI
   89674:	00180020 	.inst	0x00180020 ; undefined
   89678:	00220024 	.inst	0x00220024 ; NYI
   8967c:	000c0012 	.inst	0x000c0012 ; undefined
   89680:	00220002 	.inst	0x00220002 ; NYI
   89684:	0000001c 	udf	#28
   89688:	00000000 	udf	#0
   8968c:	00120000 	.inst	0x00120000 ; undefined
   89690:	0000000c 	udf	#12
   89694:	0041003e 	.inst	0x0041003e ; undefined
   89698:	00380040 	.inst	0x00380040 ; NYI
   8969c:	00010006 	.inst	0x00010006 ; undefined
   896a0:	003e0041 	.inst	0x003e0041 ; NYI
	...
   896b0:	0021001e 	.inst	0x0021001e ; NYI
   896b4:	8050804e 	.inst	0x8050804e ; undefined
   896b8:	80508050 	.inst	0x80508050 ; undefined
   896bc:	804e8050 	.inst	0x804e8050 ; undefined
   896c0:	001e0021 	.inst	0x001e0021 ; undefined
	...
   896d0:	00040038 	.inst	0x00040038 ; undefined
   896d4:	003c0004 	.inst	0x003c0004 ; NYI
   896d8:	004c0044 	.inst	0x004c0044 ; undefined
   896dc:	00000032 	udf	#50
	...
   896f4:	00110000 	.inst	0x00110000 ; undefined
   896f8:	00440022 	.inst	0x00440022 ; undefined
   896fc:	00110022 	.inst	0x00110022 ; undefined
	...
   89718:	0001007f 	.inst	0x0001007f ; undefined
   8971c:	00000001 	udf	#1
	...
   89730:	80800000 	.inst	0x80800000 ; undefined
   89734:	003e0041 	.inst	0x003e0041 ; NYI
   89738:	00220022 	.inst	0x00220022 ; NYI
   8973c:	003e0022 	.inst	0x003e0022 ; NYI
   89740:	80800041 	.inst	0x80800041 ; undefined
	...
   89750:	0021001e 	.inst	0x0021001e ; NYI
   89754:	8052805c 	.inst	0x8052805c ; undefined
   89758:	8052805c 	.inst	0x8052805c ; undefined
   8975c:	001e0021 	.inst	0x001e0021 ; undefined
	...
   8976c:	001c0000 	.inst	0x001c0000 ; undefined
	...
   89790:	00240018 	.inst	0x00240018 ; NYI
   89794:	00180024 	.inst	0x00180024 ; undefined
	...
   897b4:	00080008 	.inst	0x00080008 ; undefined
   897b8:	0008007f 	.inst	0x0008007f ; undefined
   897bc:	00000008 	udf	#8
   897c0:	0000007f 	udf	#127
	...
   897d0:	0002003c 	.inst	0x0002003c ; undefined
   897d4:	000c0002 	.inst	0x000c0002 ; undefined
   897d8:	00200010 	.inst	0x00200010 ; NYI
   897dc:	0000003e 	udf	#62
	...
   897f0:	0002003c 	.inst	0x0002003c ; undefined
   897f4:	001c0002 	.inst	0x001c0002 ; undefined
   897f8:	00020002 	.inst	0x00020002 ; undefined
   897fc:	0000003c 	udf	#60
	...
   89808:	00120000 	.inst	0x00120000 ; undefined
   8980c:	0000000c 	udf	#12
   89810:	0001007f 	.inst	0x0001007f ; undefined
   89814:	00040002 	.inst	0x00040002 ; undefined
   89818:	00100008 	.inst	0x00100008 ; undefined
   8981c:	00400020 	.inst	0x00400020 ; undefined
   89820:	007f0040 	.inst	0x007f0040 ; undefined
	...
   89834:	00410041 	.inst	0x00410041 ; undefined
   89838:	00410041 	.inst	0x00410041 ; undefined
   8983c:	00430041 	.inst	0x00430041 ; undefined
   89840:	00590065 	.inst	0x00590065 ; undefined
   89844:	00400040 	.inst	0x00400040 ; undefined
	...
   89850:	004a003e 	.inst	0x004a003e ; undefined
   89854:	004a004a 	.inst	0x004a004a ; undefined
   89858:	000a003a 	.inst	0x000a003a ; undefined
   8985c:	000a000a 	.inst	0x000a000a ; undefined
   89860:	000a000a 	.inst	0x000a000a ; undefined
   89864:	0000000a 	udf	#10
	...
   89878:	00080000 	.inst	0x00080000 ; undefined
   8987c:	00000008 	udf	#8
	...
   8988c:	00120000 	.inst	0x00120000 ; undefined
   89890:	0000000c 	udf	#12
   89894:	0002007f 	.inst	0x0002007f ; undefined
   89898:	00080004 	.inst	0x00080004 ; undefined
   8989c:	00200010 	.inst	0x00200010 ; NYI
   898a0:	007f0040 	.inst	0x007f0040 ; undefined
	...
   898b0:	00280018 	.inst	0x00280018 ; NYI
   898b4:	00080008 	.inst	0x00080008 ; undefined
   898b8:	00080008 	.inst	0x00080008 ; undefined
   898bc:	0000003e 	udf	#62
	...
   898d0:	00240018 	.inst	0x00240018 ; NYI
   898d4:	00420042 	.inst	0x00420042 ; undefined
   898d8:	00240042 	.inst	0x00240042 ; NYI
   898dc:	00000018 	udf	#24
	...
   898f4:	00440000 	.inst	0x00440000 ; undefined
   898f8:	00110022 	.inst	0x00110022 ; undefined
   898fc:	00440022 	.inst	0x00440022 ; undefined
	...
   89910:	0024801f 	.inst	0x0024801f ; NYI
   89914:	00440044 	.inst	0x00440044 ; undefined
   89918:	00448047 	.inst	0x00448047 ; undefined
   8991c:	00440044 	.inst	0x00440044 ; undefined
   89920:	801f0024 	.inst	0x801f0024 ; undefined
	...
   89934:	00490036 	.inst	0x00490036 ; undefined
   89938:	004f0049 	.inst	0x004f0049 ; undefined
   8993c:	00480048 	.inst	0x00480048 ; undefined
   89940:	0036004d 	.inst	0x0036004d ; NYI
   89944:	00000000 	udf	#0
   89948:	00220000 	.inst	0x00220000 ; NYI
   8994c:	00000022 	udf	#34
   89950:	00410041 	.inst	0x00410041 ; undefined
   89954:	00220022 	.inst	0x00220022 ; NYI
   89958:	0008001c 	.inst	0x0008001c ; undefined
   8995c:	00080008 	.inst	0x00080008 ; undefined
   89960:	00080008 	.inst	0x00080008 ; undefined
	...
   89974:	00040004 	.inst	0x00040004 ; undefined
   89978:	00040000 	.inst	0x00040000 ; undefined
   8997c:	00100008 	.inst	0x00100008 ; undefined
   89980:	00200020 	.inst	0x00200020 ; NYI
   89984:	001e0021 	.inst	0x001e0021 ; undefined
	...
   89998:	0000c0ff 	udf	#49407
	...
   899a8:	00080008 	.inst	0x00080008 ; undefined
   899ac:	00080008 	.inst	0x00080008 ; undefined
   899b0:	00080008 	.inst	0x00080008 ; undefined
   899b4:	00080008 	.inst	0x00080008 ; undefined
   899b8:	00080008 	.inst	0x00080008 ; undefined
   899bc:	00080008 	.inst	0x00080008 ; undefined
   899c0:	00080008 	.inst	0x00080008 ; undefined
   899c4:	00080008 	.inst	0x00080008 ; undefined
	...
   899d8:	0008c00f 	.inst	0x0008c00f ; undefined
   899dc:	00080008 	.inst	0x00080008 ; undefined
   899e0:	00080008 	.inst	0x00080008 ; undefined
   899e4:	00080008 	.inst	0x00080008 ; undefined
	...
   899f8:	000800f8 	.inst	0x000800f8 ; undefined
   899fc:	00080008 	.inst	0x00080008 ; undefined
   89a00:	00080008 	.inst	0x00080008 ; undefined
   89a04:	00080008 	.inst	0x00080008 ; undefined
   89a08:	00080008 	.inst	0x00080008 ; undefined
   89a0c:	00080008 	.inst	0x00080008 ; undefined
   89a10:	00080008 	.inst	0x00080008 ; undefined
   89a14:	00080008 	.inst	0x00080008 ; undefined
   89a18:	0000c00f 	udf	#49167
	...
   89a28:	00080008 	.inst	0x00080008 ; undefined
   89a2c:	00080008 	.inst	0x00080008 ; undefined
   89a30:	00080008 	.inst	0x00080008 ; undefined
   89a34:	00080008 	.inst	0x00080008 ; undefined
   89a38:	000000f8 	udf	#248
	...
   89a48:	00080008 	.inst	0x00080008 ; undefined
   89a4c:	00080008 	.inst	0x00080008 ; undefined
   89a50:	00080008 	.inst	0x00080008 ; undefined
   89a54:	00080008 	.inst	0x00080008 ; undefined
   89a58:	0008c00f 	.inst	0x0008c00f ; undefined
   89a5c:	00080008 	.inst	0x00080008 ; undefined
   89a60:	00080008 	.inst	0x00080008 ; undefined
   89a64:	00080008 	.inst	0x00080008 ; undefined
   89a68:	00080008 	.inst	0x00080008 ; undefined
   89a6c:	00080008 	.inst	0x00080008 ; undefined
   89a70:	00080008 	.inst	0x00080008 ; undefined
   89a74:	00080008 	.inst	0x00080008 ; undefined
   89a78:	000800f8 	.inst	0x000800f8 ; undefined
   89a7c:	00080008 	.inst	0x00080008 ; undefined
   89a80:	00080008 	.inst	0x00080008 ; undefined
   89a84:	00080008 	.inst	0x00080008 ; undefined
	...
   89a98:	0008c0ff 	.inst	0x0008c0ff ; undefined
   89a9c:	00080008 	.inst	0x00080008 ; undefined
   89aa0:	00080008 	.inst	0x00080008 ; undefined
   89aa4:	00080008 	.inst	0x00080008 ; undefined
   89aa8:	00080008 	.inst	0x00080008 ; undefined
   89aac:	00080008 	.inst	0x00080008 ; undefined
   89ab0:	00080008 	.inst	0x00080008 ; undefined
   89ab4:	00080008 	.inst	0x00080008 ; undefined
   89ab8:	0000c0ff 	udf	#49407
	...
   89ac8:	00080008 	.inst	0x00080008 ; undefined
   89acc:	00080008 	.inst	0x00080008 ; undefined
   89ad0:	00080008 	.inst	0x00080008 ; undefined
   89ad4:	00080008 	.inst	0x00080008 ; undefined
   89ad8:	0008c0ff 	.inst	0x0008c0ff ; undefined
   89adc:	00080008 	.inst	0x00080008 ; undefined
   89ae0:	00080008 	.inst	0x00080008 ; undefined
   89ae4:	00080008 	.inst	0x00080008 ; undefined
   89ae8:	00004055 	udf	#16469
   89aec:	000080aa 	udf	#32938
   89af0:	00004055 	udf	#16469
   89af4:	000080aa 	udf	#32938
   89af8:	00004055 	udf	#16469
   89afc:	000080aa 	udf	#32938
   89b00:	00004055 	udf	#16469
   89b04:	000080aa 	udf	#32938
   89b08:	0000c0ff 	udf	#49407
	...
   89b30:	0000c0ff 	udf	#49407
	...
   89b60:	c0ff0000 	.inst	0xc0ff0000 ; undefined
	...
   89b84:	c0ff0000 	.inst	0xc0ff0000 ; undefined
	...
   89b94:	c0ff0000 	.inst	0xc0ff0000 ; undefined
   89b98:	c0ff0000 	.inst	0xc0ff0000 ; undefined
	...
   89ba8:	00140014 	.inst	0x00140014 ; undefined
   89bac:	00140014 	.inst	0x00140014 ; undefined
   89bb0:	00140014 	.inst	0x00140014 ; undefined
   89bb4:	00140014 	.inst	0x00140014 ; undefined
   89bb8:	00140014 	.inst	0x00140014 ; undefined
   89bbc:	00140014 	.inst	0x00140014 ; undefined
   89bc0:	00140014 	.inst	0x00140014 ; undefined
   89bc4:	00140014 	.inst	0x00140014 ; undefined
	...
   89bd4:	c01f0000 	.inst	0xc01f0000 ; undefined
   89bd8:	c0170010 	.inst	0xc0170010 ; undefined
   89bdc:	00140014 	.inst	0x00140014 ; undefined
   89be0:	00140014 	.inst	0x00140014 ; undefined
   89be4:	00140014 	.inst	0x00140014 ; undefined
	...
   89bf4:	00fc0000 	.inst	0x00fc0000 ; undefined
   89bf8:	00f40004 	.inst	0x00f40004 ; undefined
   89bfc:	00140014 	.inst	0x00140014 ; undefined
   89c00:	00140014 	.inst	0x00140014 ; undefined
   89c04:	00140014 	.inst	0x00140014 ; undefined
   89c08:	00140014 	.inst	0x00140014 ; undefined
   89c0c:	00140014 	.inst	0x00140014 ; undefined
   89c10:	00140014 	.inst	0x00140014 ; undefined
   89c14:	c0170014 	.inst	0xc0170014 ; undefined
   89c18:	c01f0010 	.inst	0xc01f0010 ; undefined
	...
   89c28:	00140014 	.inst	0x00140014 ; undefined
   89c2c:	00140014 	.inst	0x00140014 ; undefined
   89c30:	00140014 	.inst	0x00140014 ; undefined
   89c34:	00f40014 	.inst	0x00f40014 ; undefined
   89c38:	00fc0004 	.inst	0x00fc0004 ; undefined
	...
   89c48:	00140014 	.inst	0x00140014 ; undefined
   89c4c:	00140014 	.inst	0x00140014 ; undefined
   89c50:	00140014 	.inst	0x00140014 ; undefined
   89c54:	c0170014 	.inst	0xc0170014 ; undefined
   89c58:	c0170010 	.inst	0xc0170010 ; undefined
   89c5c:	00140014 	.inst	0x00140014 ; undefined
   89c60:	00140014 	.inst	0x00140014 ; undefined
   89c64:	00140014 	.inst	0x00140014 ; undefined
   89c68:	00140014 	.inst	0x00140014 ; undefined
   89c6c:	00140014 	.inst	0x00140014 ; undefined
   89c70:	00140014 	.inst	0x00140014 ; undefined
   89c74:	00f40014 	.inst	0x00f40014 ; undefined
   89c78:	00f40004 	.inst	0x00f40004 ; undefined
   89c7c:	00140014 	.inst	0x00140014 ; undefined
   89c80:	00140014 	.inst	0x00140014 ; undefined
   89c84:	00140014 	.inst	0x00140014 ; undefined
	...
   89c94:	c0ff0000 	.inst	0xc0ff0000 ; undefined
   89c98:	c0f70000 	.inst	0xc0f70000 ; undefined
   89c9c:	00140014 	.inst	0x00140014 ; undefined
   89ca0:	00140014 	.inst	0x00140014 ; undefined
   89ca4:	00140014 	.inst	0x00140014 ; undefined
   89ca8:	00140014 	.inst	0x00140014 ; undefined
   89cac:	00140014 	.inst	0x00140014 ; undefined
   89cb0:	00140014 	.inst	0x00140014 ; undefined
   89cb4:	c0f70014 	.inst	0xc0f70014 ; undefined
   89cb8:	c0ff0000 	.inst	0xc0ff0000 ; undefined
	...
   89cc8:	00140014 	.inst	0x00140014 ; undefined
   89ccc:	00140014 	.inst	0x00140014 ; undefined
   89cd0:	00140014 	.inst	0x00140014 ; undefined
   89cd4:	c0f70014 	.inst	0xc0f70014 ; undefined
   89cd8:	c0f70000 	.inst	0xc0f70000 ; undefined
   89cdc:	00140014 	.inst	0x00140014 ; undefined
   89ce0:	00140014 	.inst	0x00140014 ; undefined
   89ce4:	00140014 	.inst	0x00140014 ; undefined
   89ce8:	c0ffc0ff 	.inst	0xc0ffc0ff ; undefined
   89cec:	c0ffc0ff 	.inst	0xc0ffc0ff ; undefined
   89cf0:	c0ffc0ff 	.inst	0xc0ffc0ff ; undefined
   89cf4:	c0ffc0ff 	.inst	0xc0ffc0ff ; undefined
   89cf8:	c0ffc0ff 	.inst	0xc0ffc0ff ; undefined
   89cfc:	c0ffc0ff 	.inst	0xc0ffc0ff ; undefined
   89d00:	c0ffc0ff 	.inst	0xc0ffc0ff ; undefined
   89d04:	c0ffc0ff 	.inst	0xc0ffc0ff ; undefined
	...
   89d10:	001c0008 	.inst	0x001c0008 ; undefined
   89d14:	0008002a 	.inst	0x0008002a ; undefined
   89d18:	00080008 	.inst	0x00080008 ; undefined
   89d1c:	00080008 	.inst	0x00080008 ; undefined
   89d20:	00080008 	.inst	0x00080008 ; undefined
	...
   89d30:	00080008 	.inst	0x00080008 ; undefined
   89d34:	00080008 	.inst	0x00080008 ; undefined
   89d38:	00080008 	.inst	0x00080008 ; undefined
   89d3c:	002a0008 	.inst	0x002a0008 ; NYI
   89d40:	0008001c 	.inst	0x0008001c ; undefined
	...
   89d54:	00200010 	.inst	0x00200010 ; NYI
   89d58:	0020c07f 	.inst	0x0020c07f ; NYI
   89d5c:	00000010 	udf	#16
	...
   89d74:	00010002 	.inst	0x00010002 ; undefined
   89d78:	000180ff 	.inst	0x000180ff ; undefined
   89d7c:	00000002 	udf	#2
	...
   89d8c:	00300000 	.inst	0x00300000 ; NYI
   89d90:	0000000c 	udf	#12
   89d94:	0002003c 	.inst	0x0002003c ; undefined
   89d98:	003e0002 	.inst	0x003e0002 ; NYI
   89d9c:	00420042 	.inst	0x00420042 ; undefined
   89da0:	80390046 	.inst	0x80390046 ; NYI
	...
   89dac:	00060000 	.inst	0x00060000 ; undefined
   89db0:	00000018 	udf	#24
   89db4:	0002003c 	.inst	0x0002003c ; undefined
   89db8:	003e0002 	.inst	0x003e0002 ; NYI
   89dbc:	00420042 	.inst	0x00420042 ; undefined
   89dc0:	80390046 	.inst	0x80390046 ; NYI
	...
   89dcc:	000c0000 	.inst	0x000c0000 ; undefined
   89dd0:	00000012 	udf	#18
   89dd4:	0002003c 	.inst	0x0002003c ; undefined
   89dd8:	003e0002 	.inst	0x003e0002 ; NYI
   89ddc:	00420042 	.inst	0x00420042 ; undefined
   89de0:	80390046 	.inst	0x80390046 ; NYI
	...
   89dec:	001a0000 	.inst	0x001a0000 ; undefined
   89df0:	0000002c 	udf	#44
   89df4:	0002003c 	.inst	0x0002003c ; undefined
   89df8:	003e0002 	.inst	0x003e0002 ; NYI
   89dfc:	00420042 	.inst	0x00420042 ; undefined
   89e00:	80390046 	.inst	0x80390046 ; NYI
	...
   89e0c:	00140000 	.inst	0x00140000 ; undefined
   89e10:	00000014 	udf	#20
   89e14:	0002003c 	.inst	0x0002003c ; undefined
   89e18:	003e0002 	.inst	0x003e0002 ; NYI
   89e1c:	00420042 	.inst	0x00420042 ; undefined
   89e20:	80390046 	.inst	0x80390046 ; NYI
	...
   89e2c:	00080000 	.inst	0x00080000 ; undefined
   89e30:	00080014 	.inst	0x00080014 ; undefined
   89e34:	0002003c 	.inst	0x0002003c ; undefined
   89e38:	003e0002 	.inst	0x003e0002 ; NYI
   89e3c:	00420042 	.inst	0x00420042 ; undefined
   89e40:	80390046 	.inst	0x80390046 ; NYI
	...
   89e54:	00090076 	.inst	0x00090076 ; undefined
   89e58:	003f0009 	.inst	0x003f0009 ; NYI
   89e5c:	00480048 	.inst	0x00480048 ; undefined
   89e60:	00360049 	.inst	0x00360049 ; NYI
	...
   89e74:	0021001e 	.inst	0x0021001e ; NYI
   89e78:	00400040 	.inst	0x00400040 ; undefined
   89e7c:	00400040 	.inst	0x00400040 ; undefined
   89e80:	001e0021 	.inst	0x001e0021 ; undefined
   89e84:	00180004 	.inst	0x00180004 ; undefined
   89e88:	00000000 	udf	#0
   89e8c:	00180000 	.inst	0x00180000 ; undefined
   89e90:	00000006 	udf	#6
   89e94:	0021001e 	.inst	0x0021001e ; NYI
   89e98:	007f0041 	.inst	0x007f0041 ; undefined
   89e9c:	00400040 	.inst	0x00400040 ; undefined
   89ea0:	001e0021 	.inst	0x001e0021 ; undefined
	...
   89eac:	00060000 	.inst	0x00060000 ; undefined
   89eb0:	00000018 	udf	#24
   89eb4:	0021001e 	.inst	0x0021001e ; NYI
   89eb8:	007f0041 	.inst	0x007f0041 ; undefined
   89ebc:	00400040 	.inst	0x00400040 ; undefined
   89ec0:	001e0021 	.inst	0x001e0021 ; undefined
	...
   89ecc:	000c0000 	.inst	0x000c0000 ; undefined
   89ed0:	00000012 	udf	#18
   89ed4:	0021001e 	.inst	0x0021001e ; NYI
   89ed8:	007f0041 	.inst	0x007f0041 ; undefined
   89edc:	00400040 	.inst	0x00400040 ; undefined
   89ee0:	001e0021 	.inst	0x001e0021 ; undefined
	...
   89eec:	00120000 	.inst	0x00120000 ; undefined
   89ef0:	00000012 	udf	#18
   89ef4:	0021001e 	.inst	0x0021001e ; NYI
   89ef8:	007f0041 	.inst	0x007f0041 ; undefined
   89efc:	00400040 	.inst	0x00400040 ; undefined
   89f00:	001e0021 	.inst	0x001e0021 ; undefined
	...
   89f0c:	00300000 	.inst	0x00300000 ; NYI
   89f10:	0000000c 	udf	#12
   89f14:	00080078 	.inst	0x00080078 ; undefined
   89f18:	00080008 	.inst	0x00080008 ; undefined
   89f1c:	00080008 	.inst	0x00080008 ; undefined
   89f20:	00080008 	.inst	0x00080008 ; undefined
	...
   89f2c:	000c0000 	.inst	0x000c0000 ; undefined
   89f30:	00000030 	udf	#48
   89f34:	00080078 	.inst	0x00080078 ; undefined
   89f38:	00080008 	.inst	0x00080008 ; undefined
   89f3c:	00080008 	.inst	0x00080008 ; undefined
   89f40:	00080008 	.inst	0x00080008 ; undefined
	...
   89f4c:	00180000 	.inst	0x00180000 ; undefined
   89f50:	00000024 	udf	#36
   89f54:	00080078 	.inst	0x00080078 ; undefined
   89f58:	00080008 	.inst	0x00080008 ; undefined
   89f5c:	00080008 	.inst	0x00080008 ; undefined
   89f60:	00080008 	.inst	0x00080008 ; undefined
	...
   89f6c:	00240000 	.inst	0x00240000 ; NYI
   89f70:	00000024 	udf	#36
   89f74:	00080078 	.inst	0x00080078 ; undefined
   89f78:	00080008 	.inst	0x00080008 ; undefined
   89f7c:	00080008 	.inst	0x00080008 ; undefined
   89f80:	00080008 	.inst	0x00080008 ; undefined
	...
   89f8c:	00660000 	.inst	0x00660000 ; undefined
   89f90:	00680018 	.inst	0x00680018 ; undefined
   89f94:	0022001e 	.inst	0x0022001e ; NYI
   89f98:	00410041 	.inst	0x00410041 ; undefined
   89f9c:	00410041 	.inst	0x00410041 ; undefined
   89fa0:	001c0022 	.inst	0x001c0022 ; undefined
	...
   89fac:	001a0000 	.inst	0x001a0000 ; undefined
   89fb0:	0000002c 	udf	#44
   89fb4:	0053004e 	.inst	0x0053004e ; undefined
   89fb8:	00410061 	.inst	0x00410061 ; undefined
   89fbc:	00410041 	.inst	0x00410041 ; undefined
   89fc0:	00410041 	.inst	0x00410041 ; undefined
	...
   89fcc:	00300000 	.inst	0x00300000 ; NYI
   89fd0:	0000000c 	udf	#12
   89fd4:	0022001c 	.inst	0x0022001c ; NYI
   89fd8:	00410041 	.inst	0x00410041 ; undefined
   89fdc:	00410041 	.inst	0x00410041 ; undefined
   89fe0:	001c0022 	.inst	0x001c0022 ; undefined
	...
   89fec:	00060000 	.inst	0x00060000 ; undefined
   89ff0:	00000018 	udf	#24
   89ff4:	0022001c 	.inst	0x0022001c ; NYI
   89ff8:	00410041 	.inst	0x00410041 ; undefined
   89ffc:	00410041 	.inst	0x00410041 ; undefined
   8a000:	001c0022 	.inst	0x001c0022 ; undefined
	...
   8a00c:	000c0000 	.inst	0x000c0000 ; undefined
   8a010:	00000012 	udf	#18
   8a014:	0022001c 	.inst	0x0022001c ; NYI
   8a018:	00410041 	.inst	0x00410041 ; undefined
   8a01c:	00410041 	.inst	0x00410041 ; undefined
   8a020:	001c0022 	.inst	0x001c0022 ; undefined
	...
   8a02c:	001a0000 	.inst	0x001a0000 ; undefined
   8a030:	0000002c 	udf	#44
   8a034:	0022001c 	.inst	0x0022001c ; NYI
   8a038:	00410041 	.inst	0x00410041 ; undefined
   8a03c:	00410041 	.inst	0x00410041 ; undefined
   8a040:	001c0022 	.inst	0x001c0022 ; undefined
	...
   8a04c:	00140000 	.inst	0x00140000 ; undefined
   8a050:	00000014 	udf	#20
   8a054:	0022001c 	.inst	0x0022001c ; NYI
   8a058:	00410041 	.inst	0x00410041 ; undefined
   8a05c:	00410041 	.inst	0x00410041 ; undefined
   8a060:	001c0022 	.inst	0x001c0022 ; undefined
	...
   8a074:	00080008 	.inst	0x00080008 ; undefined
   8a078:	007f0000 	.inst	0x007f0000 ; undefined
   8a07c:	00080000 	.inst	0x00080000 ; undefined
   8a080:	00000008 	udf	#8
	...
   8a094:	0022001d 	.inst	0x0022001d ; NYI
   8a098:	00490045 	.inst	0x00490045 ; undefined
   8a09c:	00510049 	.inst	0x00510049 ; undefined
   8a0a0:	005c0022 	.inst	0x005c0022 ; undefined
	...
   8a0ac:	00300000 	.inst	0x00300000 ; NYI
   8a0b0:	0000000c 	udf	#12
   8a0b4:	00410041 	.inst	0x00410041 ; undefined
   8a0b8:	00410041 	.inst	0x00410041 ; undefined
   8a0bc:	00430041 	.inst	0x00430041 ; undefined
   8a0c0:	00390065 	.inst	0x00390065 ; NYI
	...
   8a0cc:	00060000 	.inst	0x00060000 ; undefined
   8a0d0:	00000018 	udf	#24
   8a0d4:	00410041 	.inst	0x00410041 ; undefined
   8a0d8:	00410041 	.inst	0x00410041 ; undefined
   8a0dc:	00430041 	.inst	0x00430041 ; undefined
   8a0e0:	00390065 	.inst	0x00390065 ; NYI
	...
   8a0ec:	000c0000 	.inst	0x000c0000 ; undefined
   8a0f0:	00000012 	udf	#18
   8a0f4:	00410041 	.inst	0x00410041 ; undefined
   8a0f8:	00410041 	.inst	0x00410041 ; undefined
   8a0fc:	00430041 	.inst	0x00430041 ; undefined
   8a100:	00390065 	.inst	0x00390065 ; NYI
	...
   8a10c:	00140000 	.inst	0x00140000 ; undefined
   8a110:	00000014 	udf	#20
   8a114:	00410041 	.inst	0x00410041 ; undefined
   8a118:	00410041 	.inst	0x00410041 ; undefined
   8a11c:	00430041 	.inst	0x00430041 ; undefined
   8a120:	00390065 	.inst	0x00390065 ; NYI
	...
   8a12c:	00060000 	.inst	0x00060000 ; undefined
   8a130:	00000018 	udf	#24
   8a134:	00410041 	.inst	0x00410041 ; undefined
   8a138:	00220022 	.inst	0x00220022 ; NYI
   8a13c:	00140014 	.inst	0x00140014 ; undefined
   8a140:	00080008 	.inst	0x00080008 ; undefined
   8a144:	00300010 	.inst	0x00300010 ; NYI
   8a148:	00000000 	udf	#0
   8a14c:	00400000 	.inst	0x00400000 ; undefined
   8a150:	00400040 	.inst	0x00400040 ; undefined
   8a154:	0062005c 	.inst	0x0062005c ; undefined
   8a158:	00410041 	.inst	0x00410041 ; undefined
   8a15c:	00410041 	.inst	0x00410041 ; undefined
   8a160:	007c0042 	.inst	0x007c0042 ; undefined
   8a164:	00400040 	.inst	0x00400040 ; undefined
   8a168:	00000000 	udf	#0
   8a16c:	00140000 	.inst	0x00140000 ; undefined
   8a170:	00000014 	udf	#20
   8a174:	00410041 	.inst	0x00410041 ; undefined
   8a178:	00220022 	.inst	0x00220022 ; NYI
   8a17c:	00140014 	.inst	0x00140014 ; undefined
   8a180:	00080008 	.inst	0x00080008 ; undefined
   8a184:	00300010 	.inst	0x00300010 ; NYI
   8a188:	ffbdbfef 	.inst	0xffbdbfef ; undefined
   8a18c:	e2ff80cf 	.inst	0xe2ff80cf ; undefined
   8a190:	e2ffa089 	.inst	0xe2ffa089 ; undefined
   8a194:	e2ffa489 	.inst	0xe2ffa489 ; undefined
   8a198:	e2ffa589 	.inst	0xe2ffa589 ; undefined
   8a19c:	96e2a096 	bl	fffffffffb9323f4 <__bss_end+0xfffffffffb8a19bc>
   8a1a0:	ae96e2ac 	.inst	0xae96e2ac ; undefined
   8a1a4:	e2bc97e2 	.inst	0xe2bc97e2 ; undefined
   8a1a8:	ace2be97 	ldp	q23, q15, [x20], #-944
   8a1ac:	8e88e29b 	.inst	0x8e88e29b ; undefined
   8a1b0:	8697e2ff 	.inst	0x8697e2ff ; undefined
   8a1b4:	e2a699e2 	.inst	0xe2a699e2 ; undefined
   8a1b8:	ace2a5ac 	ldp	q12, q9, [x13], #-944
   8a1bc:	bcc2ffa7 	.inst	0xbcc2ffa7 ; undefined
   8a1c0:	ffbdc2ff 	.inst	0xffbdc2ff ; undefined
   8a1c4:	c2ffbec2 	.inst	0xc2ffbec2 ; undefined
   8a1c8:	a8c2ffa6 	ldp	x6, xzr, [x29], #40
   8a1cc:	ffb8c2ff 	.inst	0xffb8c2ff ; undefined
   8a1d0:	e2ff92c6 	.inst	0xe2ff92c6 ; undefined
   8a1d4:	e2ffa080 	.inst	0xe2ffa080 ; undefined
   8a1d8:	e2ffa180 	.inst	0xe2ffa180 ; undefined
   8a1dc:	e2ffb080 	.inst	0xe2ffb080 ; undefined
   8a1e0:	e2ffa284 	.inst	0xe2ffa284 ; undefined
   8a1e4:	e2ffa680 	.inst	0xe2ffa680 ; undefined
   8a1e8:	e2ffb980 	.inst	0xe2ffb980 ; undefined
   8a1ec:	e2ffba80 	.inst	0xe2ffba80 ; undefined
   8a1f0:	80e29c80 	.inst	0x80e29c80 ; undefined
   8a1f4:	b680e29f 	tbz	xzr, #48, 8be44 <_ZL11_systemFont+0xf4>
   8a1f8:	9d80e2ff 	.inst	0x9d80e2ff ; undefined
   8a1fc:	9dcbbaca 	.inst	0x9dcbbaca ; undefined
   8a200:	80e2aecb 	.inst	0x80e2aecb ; undefined
   8a204:	80e2ffb3 	.inst	0x80e2ffb3 ; undefined
   8a208:	b9e2ff9e 	.inst	0xb9e2ff9e ; undefined
   8a20c:	b9e2ff82 	.inst	0xb9e2ff82 ; undefined
   8a210:	ff8ecb81 	.inst	0xff8ecb81 ; undefined
   8a214:	c4ff9ec4 	ld1sh	{z4.d}, p7/z, [x22, z31.d, lsl #1]
   8a218:	b0c4ff9f 	adrp	xzr, ffffffff8a07b000 <__bss_end+0xffffffff89fea5c8>
   8a21c:	ffb1c4ff 	.inst	0xffb1c4ff ; undefined
   8a220:	c5ff9ec5 	.inst	0xc5ff9ec5 ; undefined
   8a224:	c220ff9f 	.inst	0xc220ff9f ; undefined
   8a228:	8080e2a0 	.inst	0x8080e2a0 ; undefined
   8a22c:	e28180e2 	.inst	0xe28180e2 ; undefined
   8a230:	80e28280 	.inst	0x80e28280 ; undefined
   8a234:	8480e283 	prfh	pldl2strm, p0, [z20.s]
   8a238:	e28580e2 	.inst	0xe28580e2 ; undefined
   8a23c:	80e28680 	.inst	0x80e28680 ; undefined
   8a240:	8880e287 	stlr	w7, [x20]
   8a244:	e28980e2 	.inst	0xe28980e2 ; undefined
   8a248:	80e28a80 	.inst	0x80e28a80 ; undefined
   8a24c:	9f81e2af 	.inst	0x9f81e2af ; undefined
   8a250:	22ff21ff 	.inst	0x22ff21ff ; undefined
   8a254:	24ff23ff 	cmpls	p15.d, p0/z, z31.d, #124
   8a258:	26ff25ff 	.inst	0x26ff25ff ; undefined
   8a25c:	b4c227ff 	cbz	xzr, e758 <__bss_size+0xddb9>
   8a260:	bccab9ca 	.inst	0xbccab9ca ; undefined
   8a264:	80e28acb 	.inst	0x80e28acb ; undefined
   8a268:	b280e299 	.inst	0xb280e299 ; undefined
   8a26c:	29ff28ff 	ldp	wzr, w10, [x7, #-8]!
   8a270:	81e22aff 	.inst	0x81e22aff ; undefined
   8a274:	9788e28e 	bl	fffffffffe2c2cac <__bss_end+0xfffffffffe232274>
   8a278:	2cff2bff 	ldp	s31, s10, [sp], #-8
   8a27c:	80e28fcb 	.inst	0x80e28fcb ; undefined
   8a280:	c22dff9a 	.inst	0xc22dff9a ; undefined
   8a284:	9080e2ad 	adrp	x13, ffffffff01cde000 <__bss_end+0xffffffff01c4d5c8>
   8a288:	e29180e2 	.inst	0xe29180e2 ; undefined
   8a28c:	80e29280 	.inst	0x80e29280 ; undefined
   8a290:	8381e293 	.inst	0x8381e293 ; undefined
   8a294:	ff9288e2 	.inst	0xff9288e2 ; undefined
   8a298:	a480e22e 	ldnt1h	{z14.h}, p0/z, [x17]
   8a29c:	81e22fff 	.inst	0x81e22fff ; undefined
   8a2a0:	9588e284 	bl	62c2cb0 <__bss_end+0x6232278>
   8a2a4:	31ff30ff 	.inst	0x31ff30ff ; undefined
   8a2a8:	33ff32ff 	.inst	0x33ff32ff ; undefined
   8a2ac:	35ff34ff 	cbnz	wzr, 88948 <_ZL17_systemFontBuffer+0x7e0>
   8a2b0:	37ff36ff 	tbnz	wzr, #31, 8898c <_ZL17_systemFontBuffer+0x824>
   8a2b4:	39ff38ff 	ldrsb	wzr, [x7, #4046]
   8a2b8:	88e23aff 	.inst	0x88e23aff ; undefined
   8a2bc:	ff3bffb6 	.inst	0xff3bffb6 ; undefined
   8a2c0:	e23dff3c 	.inst	0xe23dff3c ; undefined
   8a2c4:	3eff80b9 	.inst	0x3eff80b9 ; undefined
   8a2c8:	40ff3fff 	.inst	0x40ff3fff ; undefined
   8a2cc:	42ff41ff 	.inst	0x42ff41ff ; undefined
   8a2d0:	44ff43ff 	cdot	z31.d, z31.h, z15.h[1], #0
   8a2d4:	46ff45ff 	.inst	0x46ff45ff ; undefined
   8a2d8:	48ff47ff 	.inst	0x48ff47ff ; undefined
   8a2dc:	4aff49ff 	eon	wzr, w15, wzr, ror #18
   8a2e0:	84e24bff 	ld1h	{z31.s}, p2/z, [sp, z2.s, sxtw #1]
   8a2e4:	ff4cffaa 	.inst	0xff4cffaa ; undefined
   8a2e8:	ff4eff4d 	.inst	0xff4eff4d ; undefined
   8a2ec:	ff50ff4f 	.inst	0xff50ff4f ; undefined
   8a2f0:	ff52ff51 	.inst	0xff52ff51 ; undefined
   8a2f4:	ff54ff53 	.inst	0xff54ff53 ; undefined
   8a2f8:	ff56ff55 	.inst	0xff56ff55 ; undefined
   8a2fc:	ff58ff57 	.inst	0xff58ff57 ; undefined
   8a300:	ff5aff59 	.inst	0xff5aff59 ; undefined
   8a304:	e25cff5b 	.inst	0xe25cff5b ; undefined
   8a308:	5dffb5a7 	.inst	0x5dffb5a7 ; undefined
   8a30c:	84cb5eff 	ld1h	{z31.s}, p7/z, [x23, z11.s, sxtw]
   8a310:	8ce286cb 	.inst	0x8ce286cb ; undefined
   8a314:	ff5fff83 	.inst	0xff5fff83 ; undefined
   8a318:	cabbca60 	eon	x0, x19, x27, asr #50
   8a31c:	e28bcbbd 	.inst	0xe28bcbbd ; undefined
   8a320:	80e29880 	.inst	0x80e29880 ; undefined
   8a324:	b580e29b 	cbnz	x27, fffffffffff8bf74 <__bss_end+0xffffffffffefb53c>
   8a328:	62ff61ff 	.inst	0x62ff61ff ; undefined
   8a32c:	64ff63ff 	.inst	0x64ff63ff ; undefined
   8a330:	66ff65ff 	.inst	0x66ff65ff ; undefined
   8a334:	68ff67ff 	ldpsw	xzr, x25, [sp], #-8
   8a338:	6aff69ff 	bics	wzr, w15, wzr, ror #26
   8a33c:	6cff6bff 	ldp	d31, d26, [sp], #-16
   8a340:	6eff6dff 	.inst	0x6eff6dff ; undefined
   8a344:	70ff6fff 	adr	xzr, 89143 <_ZL17_systemFontBuffer+0xfdb>
   8a348:	72ff71ff 	.inst	0x72ff71ff ; undefined
   8a34c:	74ff73ff 	.inst	0x74ff73ff ; undefined
   8a350:	76ff75ff 	.inst	0x76ff75ff ; undefined
   8a354:	78ff77ff 	.inst	0x78ff77ff ; undefined
   8a358:	7aff79ff 	.inst	0x7aff79ff ; undefined
   8a35c:	7cff7bff 	.inst	0x7cff7bff ; undefined
   8a360:	ffa388e2 	.inst	0xffa388e2 ; undefined
   8a364:	cb7eff7d 	.inst	0xcb7eff7d ; undefined
   8a368:	80e2ff9c 	.inst	0x80e2ff9c ; undefined
   8a36c:	9988e2a2 	ldapursw	x2, [x21, #142]
   8a370:	ff8f97e2 	.inst	0xff8f97e2 ; undefined
   8a374:	c3ff80c3 	.inst	0xc3ff80c3 ; undefined
   8a378:	82c3ff81 	.inst	0x82c3ff81 ; undefined
   8a37c:	ff83c3ff 	.inst	0xff83c3ff ; undefined
   8a380:	c3ff84c3 	.inst	0xc3ff84c3 ; undefined
   8a384:	ab84e285 	adds	x5, x20, x4, asr #56
   8a388:	ff86c3ff 	.inst	0xff86c3ff ; undefined
   8a38c:	c3ff87c3 	.inst	0xc3ff87c3 ; undefined
   8a390:	89c3ff88 	.inst	0x89c3ff88 ; undefined
   8a394:	ff8ac3ff 	.inst	0xff8ac3ff ; undefined
   8a398:	c3ff8bc3 	.inst	0xc3ff8bc3 ; undefined
   8a39c:	8dc3ff8c 	.inst	0x8dc3ff8c ; undefined
   8a3a0:	ff8ec3ff 	.inst	0xff8ec3ff ; undefined
   8a3a4:	c3ff8fc3 	.inst	0xc3ff8fc3 ; undefined
   8a3a8:	ff90c490 	.inst	0xff90c490 ; undefined
   8a3ac:	c3ff91c3 	.inst	0xc3ff91c3 ; undefined
   8a3b0:	93c3ff92 	extr	x18, x28, x3, #63
   8a3b4:	ff94c3ff 	.inst	0xff94c3ff ; undefined
   8a3b8:	c3ff95c3 	.inst	0xc3ff95c3 ; undefined
   8a3bc:	97c3ff96 	bl	ffffffffff18a214 <__bss_end+0xffffffffff0f97dc>
   8a3c0:	ff98c3ff 	.inst	0xff98c3ff ; undefined
   8a3c4:	c3ff99c3 	.inst	0xc3ff99c3 ; undefined
   8a3c8:	9bc3ff9a 	.inst	0x9bc3ff9a ; undefined
   8a3cc:	ff9cc3ff 	.inst	0xff9cc3ff ; undefined
   8a3d0:	c3ff9dc3 	.inst	0xc3ff9dc3 ; undefined
   8a3d4:	9fc3ff9e 	.inst	0x9fc3ff9e ; undefined
   8a3d8:	9296e2ff 	mov	xzr, #0xffffffffffff48e8    	// #-46872
   8a3dc:	ffa1c2ff 	.inst	0xffa1c2ff ; undefined
   8a3e0:	c2ffa2c2 	.inst	0xc2ffa2c2 ; undefined
   8a3e4:	82e2ffa3 	.inst	0x82e2ffa3 ; undefined
   8a3e8:	a5c2ffac 	ld3d	{z12.d-z14.d}, p7/z, [x29, #6, mul vl]
   8a3ec:	ffa0c5ff 	.inst	0xffa0c5ff ; undefined
   8a3f0:	c5ffa7c2 	.inst	0xc5ffa7c2 ; undefined
   8a3f4:	a9c2ffa1 	ldp	x1, xzr, [x29, #40]!
   8a3f8:	ffaac2ff 	.inst	0xffaac2ff ; undefined
   8a3fc:	c2ffabc2 	.inst	0xc2ffabc2 ; undefined
   8a400:	a4c2ffac 	ld3h	{z12.h-z14.h}, p7/z, [x29, #6, mul vl]
   8a404:	ffaec2ff 	.inst	0xffaec2ff ; undefined
   8a408:	89cbafc2 	.inst	0x89cbafc2 ; undefined
   8a40c:	cbb0c2ff 	.inst	0xcbb0c2ff ; undefined
   8a410:	b1c2ff9a 	.inst	0xb1c2ff9a ; undefined
   8a414:	ffb2c2ff 	.inst	0xffb2c2ff ; undefined
   8a418:	c5ffb3c2 	.inst	0xc5ffb3c2 ; undefined
   8a41c:	b5c2ffbd 	cbnz	x29, 10410 <__bss_size+0xfa71>
   8a420:	c2ffbcce 	.inst	0xc2ffbcce ; undefined
   8a424:	b7c2ffb6 	tbnz	x22, #56, 90418 <_ZL4mbox+0xe18>
   8a428:	e2a780e2 	.inst	0xe2a780e2 ; undefined
   8a42c:	b8e2858b 	.inst	0xb8e2858b ; undefined
   8a430:	bec5ffb1 	.inst	0xbec5ffb1 ; undefined
   8a434:	ffb9c2ff 	.inst	0xffb9c2ff ; undefined
   8a438:	c2ffbac2 	.inst	0xc2ffbac2 ; undefined
   8a43c:	92c5ffbb 	mov	x27, #0xffffd002ffffffff    	// #-52763673231361
   8a440:	ff93c5ff 	.inst	0xff93c5ff ; undefined
   8a444:	c2ffb8c5 	.inst	0xc2ffb8c5 ; undefined
   8a448:	94e2ffbf 	bl	394a344 <__bss_end+0x38b990c>
   8a44c:	9480e280 	bl	20c2e4c <__bss_end+0x2032414>
   8a450:	e29580e2 	.inst	0xe29580e2 ; undefined
   8a454:	e2ffaf8e 	.inst	0xe2ffaf8e ; undefined
   8a458:	e2ff8294 	.inst	0xe2ff8294 ; undefined
   8a45c:	95e28c94 	bl	792d6ac <__bss_end+0x789cc74>
   8a460:	94e2ffad 	bl	394a314 <__bss_end+0x38b98dc>
   8a464:	ae95e290 	.inst	0xae95e290 ; undefined
   8a468:	9494e2ff 	bl	25c3064 <__bss_end+0x253262c>
   8a46c:	ffb095e2 	.inst	0xffb095e2 ; undefined
   8a470:	e29894e2 	.inst	0xe29894e2 ; undefined
   8a474:	e2ffaf95 	.inst	0xe2ffaf95 ; undefined
   8a478:	e2ff9c94 	.inst	0xe2ff9c94 ; undefined
   8a47c:	e2ffa494 	.inst	0xe2ffa494 ; undefined
   8a480:	e2ffac94 	.inst	0xe2ffac94 ; undefined
   8a484:	e2ffb494 	.inst	0xe2ffb494 ; undefined
   8a488:	e2ffbc94 	.inst	0xe2ffbc94 ; undefined
   8a48c:	e2ff9196 	.inst	0xe2ff9196 ; undefined
   8a490:	80e2ba8e 	.inst	0x80e2ba8e ; undefined
   8a494:	8ee2ffbe 	.inst	0x8ee2ffbe ; undefined
   8a498:	8ee2ffbb 	.inst	0x8ee2ffbb ; undefined
   8a49c:	8ee2ffbc 	.inst	0x8ee2ffbc ; undefined
   8a4a0:	95e2ffbd 	bl	794a394 <__bss_end+0x78b995c>
   8a4a4:	8194e290 	.inst	0x8194e290 ; undefined
   8a4a8:	9195e2ff 	.inst	0x9195e2ff ; undefined
   8a4ac:	ff8394e2 	.inst	0xff8394e2 ; undefined
   8a4b0:	e29495e2 	.inst	0xe29495e2 ; undefined
   8a4b4:	e2ff8f94 	.inst	0xe2ff8f94 ; undefined
   8a4b8:	94e29795 	bl	393030c <__bss_end+0x389f8d4>
   8a4bc:	95e2ff93 	bl	794a308 <__bss_end+0x78b98d0>
   8a4c0:	9794e29a 	bl	fffffffffe5c2f28 <__bss_end+0xfffffffffe5324f0>
   8a4c4:	9d95e2ff 	.inst	0x9d95e2ff ; undefined
   8a4c8:	ff9b94e2 	.inst	0xff9b94e2 ; undefined
   8a4cc:	e2a095e2 	.inst	0xe2a095e2 ; undefined
   8a4d0:	e2ffa394 	.inst	0xe2ffa394 ; undefined
   8a4d4:	94e2a395 	bl	3933328 <__bss_end+0x38a28f0>
   8a4d8:	95e2ffab 	bl	794a384 <__bss_end+0x78b994c>
   8a4dc:	b394e2a6 	.inst	0xb394e2a6 ; undefined
   8a4e0:	a995e2ff 	stp	xzr, x24, [x23, #344]!
   8a4e4:	ffbb94e2 	.inst	0xffbb94e2 ; undefined
   8a4e8:	e2ac95e2 	.inst	0xe2ac95e2 ; undefined
   8a4ec:	e2ff8b95 	.inst	0xe2ff8b95 ; undefined
   8a4f0:	e2ff8896 	.inst	0xe2ff8896 ; undefined
   8a4f4:	e2ff9186 	.inst	0xe2ff9186 ; undefined
   8a4f8:	e2ff9386 	.inst	0xe2ff9386 ; undefined
   8a4fc:	e2ff9086 	.inst	0xe2ff9086 ; undefined
   8a500:	c3ff9286 	.inst	0xc3ff9286 ; undefined
   8a504:	a1c3ffa0 	.inst	0xa1c3ffa0 ; undefined
   8a508:	ffa2c3ff 	.inst	0xffa2c3ff ; undefined
   8a50c:	c3ffa3c3 	.inst	0xc3ffa3c3 ; undefined
   8a510:	a5c3ffa4 	ld3d	{z4.d-z6.d}, p7/z, [x29, #9, mul vl]
   8a514:	ffa6c3ff 	.inst	0xffa6c3ff ; undefined
   8a518:	c3ffa7c3 	.inst	0xc3ffa7c3 ; undefined
   8a51c:	a9c3ffa8 	ldp	x8, xzr, [x29, #56]!
   8a520:	ffaac3ff 	.inst	0xffaac3ff ; undefined
   8a524:	c3ffabc3 	.inst	0xc3ffabc3 ; undefined
   8a528:	adc3ffac 	ldp	q12, q31, [x29, #112]!
   8a52c:	ffaec3ff 	.inst	0xffaec3ff ; undefined
   8a530:	c3ffafc3 	.inst	0xc3ffafc3 ; undefined
   8a534:	b1c3ffb0 	.inst	0xb1c3ffb0 ; undefined
   8a538:	ffb2c3ff 	.inst	0xffb2c3ff ; undefined
   8a53c:	c3ffb3c3 	.inst	0xc3ffb3c3 ; undefined
   8a540:	b5c3ffb4 	cbnz	x20, 12534 <__bss_size+0x11b95>
   8a544:	ffb6c3ff 	.inst	0xffb6c3ff ; undefined
   8a548:	c3ffb7c3 	.inst	0xc3ffb7c3 ; undefined
   8a54c:	b9c3ffb8 	.inst	0xb9c3ffb8 ; undefined
   8a550:	ffbac3ff 	.inst	0xffbac3ff ; undefined
   8a554:	c3ffbbc3 	.inst	0xc3ffbbc3 ; undefined
   8a558:	bdc3ffbc 	.inst	0xbdc3ffbc ; undefined
   8a55c:	ffbec3ff 	.inst	0xffbec3ff ; undefined
   8a560:	Address 0x000000000008a560 is out of bounds.


Disassembly of section .data:

000000000008a563 <_funcmap>:
   8a563:	30303030 	adr	x16, eab68 <__bss_end+0x5a130>
   8a567:	30303030 	adr	x16, eab6c <__bss_end+0x5a134>
   8a56b:	38303030 	ldsetb	w16, w16, [x1]
   8a56f:	30303030 	adr	x16, eab74 <__bss_end+0x5a13c>
   8a573:	735f3c20 	.inst	0x735f3c20 ; undefined
   8a577:	74726174 	.inst	0x74726174 ; undefined
   8a57b:	300a3a3e 	adr	x30, 9ecc0 <__bss_end+0xe288>
   8a57f:	30303030 	adr	x16, eab84 <__bss_end+0x5a14c>
   8a583:	30303030 	adr	x16, eab88 <__bss_end+0x5a150>
   8a587:	30383030 	adr	x16, fab8c <__bss_end+0x6a154>
   8a58b:	20343430 	.inst	0x20343430 ; undefined
   8a58f:	75725f3c 	.inst	0x75725f3c ; undefined
   8a593:	6f635f6e 	.inst	0x6f635f6e ; undefined
   8a597:	325f6572 	.inst	0x325f6572 ; undefined
   8a59b:	300a3a3e 	adr	x30, 9ece0 <__bss_end+0xe2a8>
   8a59f:	30303030 	adr	x16, eaba4 <__bss_end+0x5a16c>
   8a5a3:	30303030 	adr	x16, eaba8 <__bss_end+0x5a170>
   8a5a7:	30383030 	adr	x16, fabac <__bss_end+0x6a174>
   8a5ab:	20343630 	.inst	0x20343630 ; undefined
   8a5af:	75725f3c 	.inst	0x75725f3c ; undefined
   8a5b3:	6f635f6e 	.inst	0x6f635f6e ; undefined
   8a5b7:	335f6572 	.inst	0x335f6572 ; undefined
   8a5bb:	300a3a3e 	adr	x30, 9ed00 <__bss_end+0xe2c8>
   8a5bf:	30303030 	adr	x16, eabc4 <__bss_end+0x5a18c>
   8a5c3:	30303030 	adr	x16, eabc8 <__bss_end+0x5a190>
   8a5c7:	30383030 	adr	x16, fabcc <__bss_end+0x6a194>
   8a5cb:	20343830 	.inst	0x20343830 ; undefined
   8a5cf:	75725f3c 	.inst	0x75725f3c ; undefined
   8a5d3:	6f635f6e 	.inst	0x6f635f6e ; undefined
   8a5d7:	345f6572 	cbz	w18, 149283 <__bss_end+0xb884b>
   8a5db:	300a3a3e 	adr	x30, 9ed20 <__bss_end+0xe2e8>
   8a5df:	30303030 	adr	x16, eabe4 <__bss_end+0x5a1ac>
   8a5e3:	30303030 	adr	x16, eabe8 <__bss_end+0x5a1b0>
   8a5e7:	30383030 	adr	x16, fabec <__bss_end+0x6a1b4>
   8a5eb:	20346130 	.inst	0x20346130 ; undefined
   8a5ef:	69616d3c 	ldpsw	x28, x27, [x9, #-248]
   8a5f3:	0a3a3e6e 	bic	w14, w19, w26, lsl #15
   8a5f7:	30303030 	adr	x16, eabfc <__bss_end+0x5a1c4>
   8a5fb:	30303030 	adr	x16, eac00 <__bss_end+0x5a1c8>
   8a5ff:	38303030 	ldsetb	w16, w16, [x1]
   8a603:	30373630 	adr	x16, f8cc8 <__bss_end+0x68290>
   8a607:	616d3c20 	.inst	0x616d3c20 ; undefined
   8a60b:	635f6e69 	.inst	0x635f6e69 ; undefined
   8a60f:	5f65726f 	sqdmlsl	s15, h19, v5.h[2]
   8a613:	0a3a3e32 	bic	w18, w17, w26, lsl #15
   8a617:	30303030 	adr	x16, eac1c <__bss_end+0x5a1e4>
   8a61b:	30303030 	adr	x16, eac20 <__bss_end+0x5a1e8>
   8a61f:	38303030 	ldsetb	w16, w16, [x1]
   8a623:	34373630 	cbz	w16, f8ce7 <__bss_end+0x682af>
   8a627:	616d3c20 	.inst	0x616d3c20 ; undefined
   8a62b:	635f6e69 	.inst	0x635f6e69 ; undefined
   8a62f:	5f65726f 	sqdmlsl	s15, h19, v5.h[2]
   8a633:	0a3a3e33 	bic	w19, w17, w26, lsl #15
   8a637:	30303030 	adr	x16, eac3c <__bss_end+0x5a204>
   8a63b:	30303030 	adr	x16, eac40 <__bss_end+0x5a208>
   8a63f:	38303030 	ldsetb	w16, w16, [x1]
   8a643:	38373630 	.inst	0x38373630 ; undefined
   8a647:	616d3c20 	.inst	0x616d3c20 ; undefined
   8a64b:	635f6e69 	.inst	0x635f6e69 ; undefined
   8a64f:	5f65726f 	sqdmlsl	s15, h19, v5.h[2]
   8a653:	0a3a3e34 	bic	w20, w17, w26, lsl #15
   8a657:	30303030 	adr	x16, eac5c <__bss_end+0x5a224>
   8a65b:	30303030 	adr	x16, eac60 <__bss_end+0x5a228>
   8a65f:	38303030 	ldsetb	w16, w16, [x1]
   8a663:	63373630 	.inst	0x63373630 ; undefined
   8a667:	5a5f3c20 	.inst	0x5a5f3c20 ; undefined
   8a66b:	5f5f3134 	sqdmlal	s20, h9, v15.h[1]
   8a66f:	74617473 	.inst	0x74617473 ; undefined
   8a673:	695f6369 	ldpsw	x9, x24, [x27, #248]
   8a677:	6974696e 	ldpsw	x14, x26, [x11, #-96]
   8a67b:	7a696c61 	.inst	0x7a696c61 ; undefined
   8a67f:	6f697461 	uqshl	v1.2d, v3.2d, #41
   8a683:	6e615f6e 	uqrshl	v14.8h, v27.8h, v1.8h
   8a687:	65645f64 	fnmla	z4.h, p7/m, z27.h, z4.h
   8a68b:	75727473 	.inst	0x75727473 ; undefined
   8a68f:	6f697463 	uqshl	v3.2d, v3.2d, #41
   8a693:	69305f6e 	stgp	x14, x23, [x27, #-512]
   8a697:	0a3a3e69 	bic	w9, w19, w26, lsl #15
   8a69b:	30303030 	adr	x16, eaca0 <__bss_end+0x5a268>
   8a69f:	30303030 	adr	x16, eaca4 <__bss_end+0x5a26c>
   8a6a3:	38303030 	ldsetb	w16, w16, [x1]
   8a6a7:	63633630 	.inst	0x63633630 ; undefined
   8a6ab:	475f3c20 	.inst	0x475f3c20 ; undefined
   8a6af:	41424f4c 	.inst	0x41424f4c ; undefined
   8a6b3:	735f5f4c 	.inst	0x735f5f4c ; undefined
   8a6b7:	495f6275 	.inst	0x495f6275 ; undefined
   8a6bb:	69616d5f 	ldpsw	xzr, x27, [x10, #-248]
   8a6bf:	0a3a3e6e 	bic	w14, w19, w26, lsl #15
   8a6c3:	30303030 	adr	x16, eacc8 <__bss_end+0x5a290>
   8a6c7:	30303030 	adr	x16, eaccc <__bss_end+0x5a294>
   8a6cb:	38303030 	ldsetb	w16, w16, [x1]
   8a6cf:	38653630 	.inst	0x38653630 ; undefined
   8a6d3:	5a5f3c20 	.inst	0x5a5f3c20 ; undefined
   8a6d7:	5234314e 	eor	w14, w10, #0x1fff000
   8a6db:	614d4950 	.inst	0x614d4950 ; undefined
   8a6df:	6e696863 	.inst	0x6e696863 ; undefined
   8a6e3:	666e4965 	.inst	0x666e4965 ; undefined
   8a6e7:	4531436f 	.inst	0x4531436f ; undefined
   8a6eb:	0a3a3e76 	bic	w22, w19, w26, lsl #15
   8a6ef:	30303030 	adr	x16, eacf4 <__bss_end+0x5a2bc>
   8a6f3:	30303030 	adr	x16, eacf8 <__bss_end+0x5a2c0>
   8a6f7:	38303030 	ldsetb	w16, w16, [x1]
   8a6fb:	38383730 	.inst	0x38383730 ; undefined
   8a6ff:	5a5f3c20 	.inst	0x5a5f3c20 ; undefined
   8a703:	5330314e 	.inst	0x5330314e ; undefined
   8a707:	6b636174 	.inst	0x6b636174 ; undefined
   8a70b:	63617274 	.inst	0x63617274 ; undefined
   8a70f:	45314365 	.inst	0x45314365 ; undefined
   8a713:	0a3a3e76 	bic	w22, w19, w26, lsl #15
   8a717:	30303030 	adr	x16, ead1c <__bss_end+0x5a2e4>
   8a71b:	30303030 	adr	x16, ead20 <__bss_end+0x5a2e8>
   8a71f:	38303030 	ldsetb	w16, w16, [x1]
   8a723:	38343830 	.inst	0x38343830 ; undefined
   8a727:	5a5f3c20 	.inst	0x5a5f3c20 ; undefined
   8a72b:	6e693431 	cmhi	v17.8h, v1.8h, v9.8h
   8a72f:	79537469 	ldrh	w9, [x3, #2490]
   8a733:	6d657473 	ldp	d19, d29, [x3, #-432]
   8a737:	6f666e49 	.inst	0x6f666e49 ; undefined
   8a73b:	0a3a3e76 	bic	w22, w19, w26, lsl #15
   8a73f:	30303030 	adr	x16, ead44 <__bss_end+0x5a30c>
   8a743:	30303030 	adr	x16, ead48 <__bss_end+0x5a310>
   8a747:	38303030 	ldsetb	w16, w16, [x1]
   8a74b:	34383830 	cbz	w16, fae4f <__bss_end+0x6a417>
   8a74f:	5a5f3c20 	.inst	0x5a5f3c20 ; undefined
   8a753:	65673331 	fmls	z17.h, p4/m, z25.h, z7.h
   8a757:	73795374 	.inst	0x73795374 ; undefined
   8a75b:	496d6574 	.inst	0x496d6574 ; undefined
   8a75f:	766f666e 	.inst	0x766f666e ; undefined
   8a763:	300a3a3e 	adr	x30, 9eea8 <__bss_end+0xe470>
   8a767:	30303030 	adr	x16, ead6c <__bss_end+0x5a334>
   8a76b:	30303030 	adr	x16, ead70 <__bss_end+0x5a338>
   8a76f:	30383030 	adr	x16, fad74 <__bss_end+0x6a33c>
   8a773:	20636138 	.inst	0x20636138 ; undefined
   8a777:	395a5f3c 	ldrb	w28, [x25, #1687]
   8a77b:	43746567 	.inst	0x43746567 ; undefined
   8a77f:	4965726f 	.inst	0x4965726f ; undefined
   8a783:	3a3e7664 	.inst	0x3a3e7664 ; undefined
   8a787:	3030300a 	adr	x10, ead88 <__bss_end+0x5a350>
   8a78b:	30303030 	adr	x16, ead90 <__bss_end+0x5a358>
   8a78f:	30303030 	adr	x16, ead94 <__bss_end+0x5a35c>
   8a793:	63383038 	.inst	0x63383038 ; undefined
   8a797:	5f3c2034 	.inst	0x5f3c2034 ; undefined
   8a79b:	33314e5a 	.inst	0x33314e5a ; undefined
   8a79f:	636e7546 	.inst	0x636e7546 ; undefined
   8a7a3:	6e6f6974 	.inst	0x6e6f6974 ; undefined
   8a7a7:	6562614c 	fnmls	z12.h, p0/m, z10.h, z2.h
   8a7ab:	4531436c 	.inst	0x4531436c ; undefined
   8a7af:	0a3a3e76 	bic	w22, w19, w26, lsl #15
   8a7b3:	30303030 	adr	x16, eadb8 <__bss_end+0x5a380>
   8a7b7:	30303030 	adr	x16, eadbc <__bss_end+0x5a384>
   8a7bb:	38303030 	ldsetb	w16, w16, [x1]
   8a7bf:	30323930 	adr	x16, eeee4 <__bss_end+0x5e4ac>
   8a7c3:	5a5f3c20 	.inst	0x5a5f3c20 ; undefined
   8a7c7:	4633314e 	.inst	0x4633314e ; undefined
   8a7cb:	74636e75 	.inst	0x74636e75 ; undefined
   8a7cf:	4c6e6f69 	.inst	0x4c6e6f69 ; undefined
   8a7d3:	6c656261 	ldnp	d1, d24, [x19, #-432]
   8a7d7:	6a453143 	ands	w3, w10, w5, lsr #12
   8a7db:	300a3a3e 	adr	x30, 9ef20 <__bss_end+0xe4e8>
   8a7df:	30303030 	adr	x16, eade4 <__bss_end+0x5a3ac>
   8a7e3:	30303030 	adr	x16, eade8 <__bss_end+0x5a3b0>
   8a7e7:	30383030 	adr	x16, fadec <__bss_end+0x6a3b4>
   8a7eb:	20386661 	.inst	0x20386661 ; undefined
   8a7ef:	365a5f3c 	tbz	w28, #11, 8f3d3 <_ZL4mbox+0xdf3>
   8a7f3:	65737361 	fnmls	z1.h, p4/m, z27.h, z19.h
   8a7f7:	50627472 	adr	x18, 14f685 <__bss_end+0xbec4d>
   8a7fb:	3a3e634b 	.inst	0x3a3e634b ; undefined
   8a7ff:	3030300a 	adr	x10, eae00 <__bss_end+0x5a3c8>
   8a803:	30303030 	adr	x16, eae08 <__bss_end+0x5a3d0>
   8a807:	30303030 	adr	x16, eae0c <__bss_end+0x5a3d4>
   8a80b:	62623038 	.inst	0x62623038 ; undefined
   8a80f:	6d3c2030 	stp	d16, d8, [x1, #-64]
   8a813:	6f6c6c61 	.inst	0x6f6c6c61 ; undefined
   8a817:	0a3a3e63 	bic	w3, w19, w26, lsl #15
   8a81b:	30303030 	adr	x16, eae20 <__bss_end+0x5a3e8>
   8a81f:	30303030 	adr	x16, eae24 <__bss_end+0x5a3ec>
   8a823:	38303030 	ldsetb	w16, w16, [x1]
   8a827:	30666330 	adr	x16, 15748c <__bss_end+0xc6a54>
   8a82b:	72663c20 	.inst	0x72663c20 ; undefined
   8a82f:	3a3e6565 	.inst	0x3a3e6565 ; undefined
   8a833:	3030300a 	adr	x10, eae34 <__bss_end+0x5a3fc>
   8a837:	30303030 	adr	x16, eae3c <__bss_end+0x5a404>
   8a83b:	30303030 	adr	x16, eae40 <__bss_end+0x5a408>
   8a83f:	31643038 	adds	w24, w1, #0x90c, lsl #12
   8a843:	5f3c2038 	.inst	0x5f3c2038 ; undefined
   8a847:	7330325a 	.inst	0x7330325a ; undefined
   8a84b:	79537465 	ldrh	w5, [x3, #2490]
   8a84f:	6d657473 	ldp	d19, d29, [x3, #-432]
   8a853:	6d617246 	ldp	d6, d28, [x18, #-496]
   8a857:	66756265 	.inst	0x66756265 ; undefined
   8a85b:	31726566 	adds	w6, w11, #0xc99, lsl #12
   8a85f:	61724631 	.inst	0x61724631 ; undefined
   8a863:	7562656d 	.inst	0x7562656d ; undefined
   8a867:	72656666 	.inst	0x72656666 ; undefined
   8a86b:	300a3a3e 	adr	x30, 9efb0 <__bss_end+0xe578>
   8a86f:	30303030 	adr	x16, eae74 <__bss_end+0x5a43c>
   8a873:	30303030 	adr	x16, eae78 <__bss_end+0x5a440>
   8a877:	30383030 	adr	x16, fae7c <__bss_end+0x6a444>
   8a87b:	20633364 	.inst	0x20633364 ; undefined
   8a87f:	325a5f3c 	.inst	0x325a5f3c ; undefined
   8a883:	74656730 	.inst	0x74656730 ; undefined
   8a887:	74737953 	.inst	0x74737953 ; undefined
   8a88b:	72466d65 	.inst	0x72466d65 ; undefined
   8a88f:	62656d61 	.inst	0x62656d61 ; undefined
   8a893:	65666675 	fnmls	z21.h, p1/m, z19.h, z6.h
   8a897:	3a3e7672 	.inst	0x3a3e7672 ; undefined
   8a89b:	3030300a 	adr	x10, eae9c <__bss_end+0x5a464>
   8a89f:	30303030 	adr	x16, eaea4 <__bss_end+0x5a46c>
   8a8a3:	30303030 	adr	x16, eaea8 <__bss_end+0x5a470>
   8a8a7:	34643038 	cbz	w24, 152eab <__bss_end+0xc2473>
   8a8ab:	5f3c2063 	.inst	0x5f3c2063 ; undefined
   8a8af:	7263355a 	.inst	0x7263355a ; undefined
   8a8b3:	76687361 	.inst	0x76687361 ; undefined
   8a8b7:	300a3a3e 	adr	x30, 9effc <__bss_end+0xe5c4>
   8a8bb:	30303030 	adr	x16, eaec0 <__bss_end+0x5a488>
   8a8bf:	30303030 	adr	x16, eaec4 <__bss_end+0x5a48c>
   8a8c3:	30383030 	adr	x16, faec8 <__bss_end+0x6a490>
   8a8c7:	20343864 	.inst	0x20343864 ; undefined
   8a8cb:	355a5f3c 	cbnz	w28, 13f4af <__bss_end+0xaea77>
   8a8cf:	73617263 	.inst	0x73617263 ; undefined
   8a8d3:	74533668 	.inst	0x74533668 ; undefined
   8a8d7:	676e6972 	.inst	0x676e6972 ; undefined
   8a8db:	300a3a3e 	adr	x30, 9f020 <__bss_end+0xe5e8>
   8a8df:	30303030 	adr	x16, eaee4 <__bss_end+0x5a4ac>
   8a8e3:	30303030 	adr	x16, eaee8 <__bss_end+0x5a4b0>
   8a8e7:	31383030 	adds	w16, w1, #0xe0c
   8a8eb:	20636131 	.inst	0x20636131 ; undefined
   8a8ef:	355a5f3c 	cbnz	w28, 13f4d3 <__bss_end+0xaea9b>
   8a8f3:	6967616d 	ldpsw	x13, x24, [x11, #-200]
   8a8f7:	3a3e6a63 	.inst	0x3a3e6a63 ; undefined
   8a8fb:	3030300a 	adr	x10, eaefc <__bss_end+0x5a4c4>
   8a8ff:	30303030 	adr	x16, eaf04 <__bss_end+0x5a4cc>
   8a903:	30303030 	adr	x16, eaf08 <__bss_end+0x5a4d0>
   8a907:	66313138 	.inst	0x66313138 ; undefined
   8a90b:	6d3c2030 	stp	d16, d8, [x1, #-64]
   8a90f:	70636d65 	adr	x5, 1516be <__bss_end+0xc0c86>
   8a913:	0a3a3e79 	bic	w25, w19, w26, lsl #15
   8a917:	30303030 	adr	x16, eaf1c <__bss_end+0x5a4e4>
   8a91b:	30303030 	adr	x16, eaf20 <__bss_end+0x5a4e8>
   8a91f:	38303030 	ldsetb	w16, w16, [x1]
   8a923:	30363231 	adr	x17, f6f68 <__bss_end+0x66530>
   8a927:	5a5f3c20 	.inst	0x5a5f3c20 ; undefined
   8a92b:	5f5f3134 	sqdmlal	s20, h9, v15.h[1]
   8a92f:	74617473 	.inst	0x74617473 ; undefined
   8a933:	695f6369 	ldpsw	x9, x24, [x27, #248]
   8a937:	6974696e 	ldpsw	x14, x26, [x11, #-96]
   8a93b:	7a696c61 	.inst	0x7a696c61 ; undefined
   8a93f:	6f697461 	uqshl	v1.2d, v3.2d, #41
   8a943:	6e615f6e 	uqrshl	v14.8h, v27.8h, v1.8h
   8a947:	65645f64 	fnmla	z4.h, p7/m, z27.h, z4.h
   8a94b:	75727473 	.inst	0x75727473 ; undefined
   8a94f:	6f697463 	uqshl	v3.2d, v3.2d, #41
   8a953:	69305f6e 	stgp	x14, x23, [x27, #-512]
   8a957:	0a3a3e69 	bic	w9, w19, w26, lsl #15
   8a95b:	30303030 	adr	x16, eaf60 <__bss_end+0x5a528>
   8a95f:	30303030 	adr	x16, eaf64 <__bss_end+0x5a52c>
   8a963:	38303030 	ldsetb	w16, w16, [x1]
   8a967:	63623231 	.inst	0x63623231 ; undefined
   8a96b:	475f3c20 	.inst	0x475f3c20 ; undefined
   8a96f:	41424f4c 	.inst	0x41424f4c ; undefined
   8a973:	735f5f4c 	.inst	0x735f5f4c ; undefined
   8a977:	495f6275 	.inst	0x495f6275 ; undefined
   8a97b:	4e5a5f5f 	.inst	0x4e5a5f5f ; undefined
   8a97f:	50523431 	adr	x17, 12f005 <__bss_end+0x9e5cd>
   8a983:	63614d49 	.inst	0x63614d49 ; undefined
   8a987:	656e6968 	fnmls	z8.h, p2/m, z11.h, z14.h
   8a98b:	6f666e49 	.inst	0x6f666e49 ; undefined
   8a98f:	76453243 	.inst	0x76453243 ; undefined
   8a993:	300a3a3e 	adr	x30, 9f0d8 <__bss_end+0xe6a0>
   8a997:	30303030 	adr	x16, eaf9c <__bss_end+0x5a564>
   8a99b:	30303030 	adr	x16, eafa0 <__bss_end+0x5a568>
   8a99f:	31383030 	adds	w16, w1, #0xe0c
   8a9a3:	20386432 	.inst	0x20386432 ; undefined
   8a9a7:	4e5a5f3c 	.inst	0x4e5a5f3c ; undefined
   8a9ab:	75463331 	.inst	0x75463331 ; undefined
   8a9af:	6974636e 	ldpsw	x14, x24, [x27, #-96]
   8a9b3:	614c6e6f 	.inst	0x614c6e6f ; undefined
   8a9b7:	446c6562 	.inst	0x446c6562 ; undefined
   8a9bb:	3e764531 	.inst	0x3e764531 ; undefined
   8a9bf:	30300a3a 	adr	x26, eab04 <__bss_end+0x5a0cc>
   8a9c3:	30303030 	adr	x16, eafc8 <__bss_end+0x5a590>
   8a9c7:	30303030 	adr	x16, eafcc <__bss_end+0x5a594>
   8a9cb:	32313830 	orr	w16, w1, #0x3fff8000
   8a9cf:	3c206366 	.inst	0x3c206366 ; undefined
   8a9d3:	33315a5f 	.inst	0x33315a5f ; undefined
   8a9d7:	7361656d 	.inst	0x7361656d ; undefined
   8a9db:	53657275 	.inst	0x53657275 ; undefined
   8a9df:	6e697274 	uabdl2	v20.4s, v19.8h, v9.8h
   8a9e3:	3e635067 	.inst	0x3e635067 ; undefined
   8a9e7:	30300a3a 	adr	x26, eab2c <__bss_end+0x5a0f4>
   8a9eb:	30303030 	adr	x16, eaff0 <__bss_end+0x5a5b8>
   8a9ef:	30303030 	adr	x16, eaff4 <__bss_end+0x5a5bc>
   8a9f3:	33313830 	.inst	0x33313830 ; undefined
   8a9f7:	3c203034 	.inst	0x3c203034 ; undefined
   8a9fb:	364e5a5f 	tbz	wzr, #9, 87543 <_ZL17_systemFontBuffer+0x189b>
   8a9ff:	69727453 	ldpsw	x19, x29, [x2, #-112]
   8aa03:	3144676e 	adds	w14, w27, #0x119, lsl #12
   8aa07:	3a3e7645 	.inst	0x3a3e7645 ; undefined
   8aa0b:	3030300a 	adr	x10, eb00c <__bss_end+0x5a5d4>
   8aa0f:	30303030 	adr	x16, eb014 <__bss_end+0x5a5dc>
   8aa13:	30303030 	adr	x16, eb018 <__bss_end+0x5a5e0>
   8aa17:	37333138 	tbnz	w24, #6, 9103b <__bss_end+0x603>
   8aa1b:	5f3c2034 	.inst	0x5f3c2034 ; undefined
   8aa1f:	53364e5a 	.inst	0x53364e5a ; undefined
   8aa23:	6e697274 	uabdl2	v20.4s, v19.8h, v9.8h
   8aa27:	45314367 	.inst	0x45314367 ; undefined
   8aa2b:	0a3a3e69 	bic	w9, w19, w26, lsl #15
   8aa2f:	30303030 	adr	x16, eb034 <__bss_end+0x5a5fc>
   8aa33:	30303030 	adr	x16, eb038 <__bss_end+0x5a600>
   8aa37:	38303030 	ldsetb	w16, w16, [x1]
   8aa3b:	30643331 	adr	x17, 1530a0 <__bss_end+0xc2668>
   8aa3f:	5a5f3c20 	.inst	0x5a5f3c20 ; undefined
   8aa43:	7453364e 	.inst	0x7453364e ; undefined
   8aa47:	676e6972 	.inst	0x676e6972 ; undefined
   8aa4b:	52453143 	.inst	0x52453143 ; undefined
   8aa4f:	3e5f534b 	.inst	0x3e5f534b ; undefined
   8aa53:	30300a3a 	adr	x26, eab98 <__bss_end+0x5a160>
   8aa57:	30303030 	adr	x16, eb05c <__bss_end+0x5a624>
   8aa5b:	30303030 	adr	x16, eb060 <__bss_end+0x5a628>
   8aa5f:	34313830 	cbz	w16, ed163 <__bss_end+0x5c72b>
   8aa63:	3c206337 	.inst	0x3c206337 ; undefined
   8aa67:	364e5a5f 	tbz	wzr, #9, 875af <_ZL17_systemFontBuffer+0x1907>
   8aa6b:	69727453 	ldpsw	x19, x29, [x2, #-112]
   8aa6f:	3143676e 	adds	w14, w27, #0xd9, lsl #12
   8aa73:	3a3e7645 	.inst	0x3a3e7645 ; undefined
   8aa77:	3030300a 	adr	x10, eb078 <__bss_end+0x5a640>
   8aa7b:	30303030 	adr	x16, eb080 <__bss_end+0x5a648>
   8aa7f:	30303030 	adr	x16, eb084 <__bss_end+0x5a64c>
   8aa83:	62343138 	.inst	0x62343138 ; undefined
   8aa87:	5f3c2034 	.inst	0x5f3c2034 ; undefined
   8aa8b:	53364e5a 	.inst	0x53364e5a ; undefined
   8aa8f:	6e697274 	uabdl2	v20.4s, v19.8h, v9.8h
   8aa93:	45314367 	.inst	0x45314367 ; undefined
   8aa97:	3a3e6350 	.inst	0x3a3e6350 ; undefined
   8aa9b:	3030300a 	adr	x10, eb09c <__bss_end+0x5a664>
   8aa9f:	30303030 	adr	x16, eb0a4 <__bss_end+0x5a66c>
   8aaa3:	30303030 	adr	x16, eb0a8 <__bss_end+0x5a670>
   8aaa7:	65343138 	.inst	0x65343138 ; undefined
   8aaab:	5f3c2063 	.inst	0x5f3c2063 ; undefined
   8aaaf:	53364e5a 	.inst	0x53364e5a ; undefined
   8aab3:	6e697274 	uabdl2	v20.4s, v19.8h, v9.8h
   8aab7:	45314367 	.inst	0x45314367 ; undefined
   8aabb:	3e634b50 	.inst	0x3e634b50 ; undefined
   8aabf:	30300a3a 	adr	x26, eac04 <__bss_end+0x5a1cc>
   8aac3:	30303030 	adr	x16, eb0c8 <__bss_end+0x5a690>
   8aac7:	30303030 	adr	x16, eb0cc <__bss_end+0x5a694>
   8aacb:	35313830 	cbnz	w16, ed1cf <__bss_end+0x5c797>
   8aacf:	3c203432 	.inst	0x3c203432 ; undefined
   8aad3:	364e5a5f 	tbz	wzr, #9, 8761b <_ZL17_systemFontBuffer+0x1973>
   8aad7:	69727453 	ldpsw	x19, x29, [x2, #-112]
   8aadb:	3143676e 	adds	w14, w27, #0xd9, lsl #12
   8aadf:	69635045 	ldpsw	x5, x20, [x2, #-232]
   8aae3:	300a3a3e 	adr	x30, 9f228 <__bss_end+0xe7f0>
   8aae7:	30303030 	adr	x16, eb0ec <__bss_end+0x5a6b4>
   8aaeb:	30303030 	adr	x16, eb0f0 <__bss_end+0x5a6b8>
   8aaef:	31383030 	adds	w16, w1, #0xe0c
   8aaf3:	20633535 	.inst	0x20633535 ; undefined
   8aaf7:	4e5a5f3c 	.inst	0x4e5a5f3c ; undefined
   8aafb:	72745336 	.inst	0x72745336 ; undefined
   8aaff:	43676e69 	.inst	0x43676e69 ; undefined
   8ab03:	4b504531 	sub	w17, w9, w16, lsr #17
   8ab07:	3a3e6963 	.inst	0x3a3e6963 ; undefined
   8ab0b:	3030300a 	adr	x10, eb10c <__bss_end+0x5a6d4>
   8ab0f:	30303030 	adr	x16, eb114 <__bss_end+0x5a6dc>
   8ab13:	30303030 	adr	x16, eb118 <__bss_end+0x5a6e0>
   8ab17:	61353138 	.inst	0x61353138 ; undefined
   8ab1b:	5f3c2038 	.inst	0x5f3c2038 ; undefined
   8ab1f:	53364e5a 	.inst	0x53364e5a ; undefined
   8ab23:	6e697274 	uabdl2	v20.4s, v19.8h, v9.8h
   8ab27:	456c7067 	subhnb	z7.b, z3.h, z12.h
   8ab2b:	3a3e5f53 	.inst	0x3a3e5f53 ; undefined
   8ab2f:	3030300a 	adr	x10, eb130 <__bss_end+0x5a6f8>
   8ab33:	30303030 	adr	x16, eb138 <__bss_end+0x5a700>
   8ab37:	30303030 	adr	x16, eb13c <__bss_end+0x5a704>
   8ab3b:	35363138 	cbnz	w24, f715f <__bss_end+0x66727>
   8ab3f:	5f3c2034 	.inst	0x5f3c2034 ; undefined
   8ab43:	53364e5a 	.inst	0x53364e5a ; undefined
   8ab47:	6e697274 	uabdl2	v20.4s, v19.8h, v9.8h
   8ab4b:	65473967 	fminv	h7, p6, z11.h
   8ab4f:	6e654c74 	uqshl	v20.8h, v3.8h, v5.8h
   8ab53:	45687467 	subhnt	z7.b, z3.h, z8.h
   8ab57:	0a3a3e76 	bic	w22, w19, w26, lsl #15
   8ab5b:	30303030 	adr	x16, eb160 <__bss_end+0x5a728>
   8ab5f:	30303030 	adr	x16, eb164 <__bss_end+0x5a72c>
   8ab63:	38303030 	ldsetb	w16, w16, [x1]
   8ab67:	38393631 	.inst	0x38393631 ; undefined
   8ab6b:	5a5f3c20 	.inst	0x5a5f3c20 ; undefined
   8ab6f:	7453364e 	.inst	0x7453364e ; undefined
   8ab73:	676e6972 	.inst	0x676e6972 ; undefined
   8ab77:	6d655236 	ldp	d22, d20, [x17, #-432]
   8ab7b:	4565766f 	subhnt	z15.b, z19.h, z5.h
   8ab7f:	0a3a3e69 	bic	w9, w19, w26, lsl #15
   8ab83:	30303030 	adr	x16, eb188 <__bss_end+0x5a750>
   8ab87:	30303030 	adr	x16, eb18c <__bss_end+0x5a754>
   8ab8b:	38303030 	ldsetb	w16, w16, [x1]
   8ab8f:	38643631 	.inst	0x38643631 ; undefined
   8ab93:	5a5f3c20 	.inst	0x5a5f3c20 ; undefined
   8ab97:	7453364e 	.inst	0x7453364e ; undefined
   8ab9b:	676e6972 	.inst	0x676e6972 ; undefined
   8ab9f:	62755339 	.inst	0x62755339 ; undefined
   8aba3:	69727473 	ldpsw	x19, x29, [x3, #-112]
   8aba7:	6945676e 	ldpsw	x14, x25, [x27, #40]
   8abab:	300a3a3e 	adr	x30, 9f2f0 <__bss_end+0xe8b8>
   8abaf:	30303030 	adr	x16, eb1b4 <__bss_end+0x5a77c>
   8abb3:	30303030 	adr	x16, eb1b8 <__bss_end+0x5a780>
   8abb7:	31383030 	adds	w16, w1, #0xe0c
   8abbb:	20343337 	.inst	0x20343337 ; undefined
   8abbf:	4e5a5f3c 	.inst	0x4e5a5f3c ; undefined
   8abc3:	72745336 	.inst	0x72745336 ; undefined
   8abc7:	39676e69 	ldrb	w9, [x19, #2523]
   8abcb:	73627553 	.inst	0x73627553 ; undefined
   8abcf:	6e697274 	uabdl2	v20.4s, v19.8h, v9.8h
   8abd3:	69694567 	ldpsw	x7, x17, [x11, #-184]
   8abd7:	300a3a3e 	adr	x30, 9f31c <__bss_end+0xe8e4>
   8abdb:	30303030 	adr	x16, eb1e0 <__bss_end+0x5a7a8>
   8abdf:	30303030 	adr	x16, eb1e4 <__bss_end+0x5a7ac>
   8abe3:	31383030 	adds	w16, w1, #0xe0c
   8abe7:	20303837 	.inst	0x20303837 ; undefined
   8abeb:	4e5a5f3c 	.inst	0x4e5a5f3c ; undefined
   8abef:	72745336 	.inst	0x72745336 ; undefined
   8abf3:	38676e69 	.inst	0x38676e69 ; undefined
   8abf7:	49556f54 	.inst	0x49556f54 ; undefined
   8abfb:	3436746e 	cbz	w14, f7a87 <__bss_end+0x6704f>
   8abff:	53323245 	.inst	0x53323245 ; undefined
   8ac03:	6e697274 	uabdl2	v20.4s, v19.8h, v9.8h
   8ac07:	6e6f4367 	raddhn2	v7.8h, v27.4s, v15.4s
   8ac0b:	73726576 	.inst	0x73726576 ; undefined
   8ac0f:	466e6f69 	.inst	0x466e6f69 ; undefined
   8ac13:	616d726f 	.inst	0x616d726f ; undefined
   8ac17:	0a3a3e74 	bic	w20, w19, w26, lsl #15
   8ac1b:	30303030 	adr	x16, eb220 <__bss_end+0x5a7e8>
   8ac1f:	30303030 	adr	x16, eb224 <__bss_end+0x5a7ec>
   8ac23:	38303030 	ldsetb	w16, w16, [x1]
   8ac27:	38643931 	.inst	0x38643931 ; undefined
   8ac2b:	5a5f3c20 	.inst	0x5a5f3c20 ; undefined
   8ac2f:	61503431 	.inst	0x61503431 ; undefined
   8ac33:	49657372 	.inst	0x49657372 ; undefined
   8ac37:	6942746e 	ldpsw	x14, x29, [x3, #16]
   8ac3b:	7972616e 	ldrh	w14, [x11, #6448]
   8ac3f:	3a3e696a 	.inst	0x3a3e696a ; undefined
   8ac43:	3030300a 	adr	x10, eb244 <__bss_end+0x5a80c>
   8ac47:	30303030 	adr	x16, eb24c <__bss_end+0x5a814>
   8ac4b:	30303030 	adr	x16, eb250 <__bss_end+0x5a818>
   8ac4f:	38613138 	ldsetlb	w1, w24, [x9]
   8ac53:	5f3c2063 	.inst	0x5f3c2063 ; undefined
   8ac57:	5031315a 	adr	x26, ed281 <__bss_end+0x5c849>
   8ac5b:	65737261 	fnmls	z1.h, p4/m, z19.h, z19.h
   8ac5f:	48746e49 	.inst	0x48746e49 ; undefined
   8ac63:	696a7865 	ldpsw	x5, x30, [x3, #-176]
   8ac67:	300a3a3e 	adr	x30, 9f3ac <__bss_end+0xe974>
   8ac6b:	30303030 	adr	x16, eb270 <__bss_end+0x5a838>
   8ac6f:	30303030 	adr	x16, eb274 <__bss_end+0x5a83c>
   8ac73:	31383030 	adds	w16, w1, #0xe0c
   8ac77:	20343962 	.inst	0x20343962 ; undefined
   8ac7b:	4e5a5f3c 	.inst	0x4e5a5f3c ; undefined
   8ac7f:	72745336 	.inst	0x72745336 ; undefined
   8ac83:	38676e69 	.inst	0x38676e69 ; undefined
   8ac87:	73726150 	.inst	0x73726150 ; undefined
   8ac8b:	746e4965 	.inst	0x746e4965 ; undefined
   8ac8f:	32326945 	orr	w5, w10, #0xffffc1ff
   8ac93:	69727453 	ldpsw	x19, x29, [x2, #-112]
   8ac97:	6f43676e 	sqshlu	v14.2d, v27.2d, #3
   8ac9b:	7265766e 	.inst	0x7265766e ; undefined
   8ac9f:	6e6f6973 	.inst	0x6e6f6973 ; undefined
   8aca3:	6d726f46 	ldp	d6, d27, [x26, #-224]
   8aca7:	3a3e7461 	.inst	0x3a3e7461 ; undefined
   8acab:	3030300a 	adr	x10, eb2ac <__bss_end+0x5a874>
   8acaf:	30303030 	adr	x16, eb2b4 <__bss_end+0x5a87c>
   8acb3:	30303030 	adr	x16, eb2b8 <__bss_end+0x5a880>
   8acb7:	31633138 	adds	w24, w9, #0x8cc, lsl #12
   8acbb:	5f3c2030 	.inst	0x5f3c2030 ; undefined
   8acbf:	53364e5a 	.inst	0x53364e5a ; undefined
   8acc3:	6e697274 	uabdl2	v20.4s, v19.8h, v9.8h
   8acc7:	61503867 	.inst	0x61503867 ; undefined
   8accb:	49657372 	.inst	0x49657372 ; undefined
   8accf:	6a45746e 	ands	w14, w3, w5, lsr #29
   8acd3:	74533232 	.inst	0x74533232 ; undefined
   8acd7:	676e6972 	.inst	0x676e6972 ; undefined
   8acdb:	766e6f43 	.inst	0x766e6f43 ; undefined
   8acdf:	69737265 	ldpsw	x5, x28, [x19, #-104]
   8ace3:	6f466e6f 	.inst	0x6f466e6f ; undefined
   8ace7:	74616d72 	.inst	0x74616d72 ; undefined
   8aceb:	300a3a3e 	adr	x30, 9f430 <__bss_end+0xe9f8>
   8acef:	30303030 	adr	x16, eb2f4 <__bss_end+0x5a8bc>
   8acf3:	30303030 	adr	x16, eb2f8 <__bss_end+0x5a8c0>
   8acf7:	31383030 	adds	w16, w1, #0xe0c
   8acfb:	20633463 	.inst	0x20633463 ; undefined
   8acff:	315a5f3c 	adds	w28, w25, #0x697, lsl #12
   8ad03:	72615035 	.inst	0x72615035 ; undefined
   8ad07:	6f4c6573 	sqshlu	v19.2d, v11.2d, #12
   8ad0b:	6942676e 	ldpsw	x14, x25, [x27, #16]
   8ad0f:	7972616e 	ldrh	w14, [x11, #6448]
   8ad13:	3a3e696d 	.inst	0x3a3e696d ; undefined
   8ad17:	3030300a 	adr	x10, eb318 <__bss_end+0x5a8e0>
   8ad1b:	30303030 	adr	x16, eb320 <__bss_end+0x5a8e8>
   8ad1f:	30303030 	adr	x16, eb324 <__bss_end+0x5a8ec>
   8ad23:	30643138 	adr	x24, 153348 <__bss_end+0xc2910>
   8ad27:	5f3c2030 	.inst	0x5f3c2030 ; undefined
   8ad2b:	5032315a 	adr	x26, ef355 <__bss_end+0x5e91d>
   8ad2f:	65737261 	fnmls	z1.h, p4/m, z19.h, z19.h
   8ad33:	676e6f4c 	.inst	0x676e6f4c ; undefined
   8ad37:	6d786548 	ldp	d8, d25, [x10, #-128]
   8ad3b:	0a3a3e69 	bic	w9, w19, w26, lsl #15
   8ad3f:	30303030 	adr	x16, eb344 <__bss_end+0x5a90c>
   8ad43:	30303030 	adr	x16, eb348 <__bss_end+0x5a910>
   8ad47:	38303030 	ldsetb	w16, w16, [x1]
   8ad4b:	38306531 	.inst	0x38306531 ; undefined
   8ad4f:	5a5f3c20 	.inst	0x5a5f3c20 ; undefined
   8ad53:	7453364e 	.inst	0x7453364e ; undefined
   8ad57:	676e6972 	.inst	0x676e6972 ; undefined
   8ad5b:	72615039 	.inst	0x72615039 ; undefined
   8ad5f:	6f4c6573 	sqshlu	v19.2d, v11.2d, #12
   8ad63:	6c45676e 	ldnp	d14, d25, [x27, #80]
   8ad67:	74533232 	.inst	0x74533232 ; undefined
   8ad6b:	676e6972 	.inst	0x676e6972 ; undefined
   8ad6f:	766e6f43 	.inst	0x766e6f43 ; undefined
   8ad73:	69737265 	ldpsw	x5, x28, [x19, #-104]
   8ad77:	6f466e6f 	.inst	0x6f466e6f ; undefined
   8ad7b:	74616d72 	.inst	0x74616d72 ; undefined
   8ad7f:	0a3a3e69 	bic	w9, w19, w26, lsl #15
   8ad83:	30303030 	adr	x16, eb388 <__bss_end+0x5a950>
   8ad87:	30303030 	adr	x16, eb38c <__bss_end+0x5a954>
   8ad8b:	38303030 	ldsetb	w16, w16, [x1]
   8ad8f:	34636631 	cbz	w17, 151a53 <__bss_end+0xc101b>
   8ad93:	5a5f3c20 	.inst	0x5a5f3c20 ; undefined
   8ad97:	7453364e 	.inst	0x7453364e ; undefined
   8ad9b:	676e6972 	.inst	0x676e6972 ; undefined
   8ad9f:	72615039 	.inst	0x72615039 ; undefined
   8ada3:	6f4c6573 	sqshlu	v19.2d, v11.2d, #12
   8ada7:	6d45676e 	ldp	d14, d25, [x27, #80]
   8adab:	74533232 	.inst	0x74533232 ; undefined
   8adaf:	676e6972 	.inst	0x676e6972 ; undefined
   8adb3:	766e6f43 	.inst	0x766e6f43 ; undefined
   8adb7:	69737265 	ldpsw	x5, x28, [x19, #-104]
   8adbb:	6f466e6f 	.inst	0x6f466e6f ; undefined
   8adbf:	74616d72 	.inst	0x74616d72 ; undefined
   8adc3:	0a3a3e69 	bic	w9, w19, w26, lsl #15
   8adc7:	30303030 	adr	x16, eb3cc <__bss_end+0x5a994>
   8adcb:	30303030 	adr	x16, eb3d0 <__bss_end+0x5a998>
   8adcf:	38303030 	ldsetb	w16, w16, [x1]
   8add3:	30323132 	adr	x18, ef3f8 <__bss_end+0x5e9c0>
   8add7:	5a5f3c20 	.inst	0x5a5f3c20 ; undefined
   8addb:	5f5f3134 	sqdmlal	s20, h9, v15.h[1]
   8addf:	74617473 	.inst	0x74617473 ; undefined
   8ade3:	695f6369 	ldpsw	x9, x24, [x27, #248]
   8ade7:	6974696e 	ldpsw	x14, x26, [x11, #-96]
   8adeb:	7a696c61 	.inst	0x7a696c61 ; undefined
   8adef:	6f697461 	uqshl	v1.2d, v3.2d, #41
   8adf3:	6e615f6e 	uqrshl	v14.8h, v27.8h, v1.8h
   8adf7:	65645f64 	fnmla	z4.h, p7/m, z27.h, z4.h
   8adfb:	75727473 	.inst	0x75727473 ; undefined
   8adff:	6f697463 	uqshl	v3.2d, v3.2d, #41
   8ae03:	69305f6e 	stgp	x14, x23, [x27, #-512]
   8ae07:	0a3a3e69 	bic	w9, w19, w26, lsl #15
   8ae0b:	30303030 	adr	x16, eb410 <__bss_end+0x5a9d8>
   8ae0f:	30303030 	adr	x16, eb414 <__bss_end+0x5a9dc>
   8ae13:	38303030 	ldsetb	w16, w16, [x1]
   8ae17:	34363132 	cbz	w18, f743b <__bss_end+0x66a03>
   8ae1b:	475f3c20 	.inst	0x475f3c20 ; undefined
   8ae1f:	41424f4c 	.inst	0x41424f4c ; undefined
   8ae23:	735f5f4c 	.inst	0x735f5f4c ; undefined
   8ae27:	495f6275 	.inst	0x495f6275 ; undefined
   8ae2b:	315a5f5f 	cmn	w26, #0x697, lsl #12
   8ae2f:	61656d33 	.inst	0x61656d33 ; undefined
   8ae33:	65727573 	fnmls	z19.h, p5/m, z11.h, z18.h
   8ae37:	69727453 	ldpsw	x19, x29, [x2, #-112]
   8ae3b:	6350676e 	.inst	0x6350676e ; undefined
   8ae3f:	300a3a3e 	adr	x30, 9f584 <__bss_end+0xeb4c>
   8ae43:	30303030 	adr	x16, eb448 <__bss_end+0x5aa10>
   8ae47:	30303030 	adr	x16, eb44c <__bss_end+0x5aa14>
   8ae4b:	32383030 	orr	w16, w1, #0x1fff00
   8ae4f:	20303831 	.inst	0x20303831 ; undefined
   8ae53:	4e5a5f3c 	.inst	0x4e5a5f3c ; undefined
   8ae57:	6d695438 	ldp	d24, d21, [x1, #-368]
   8ae5b:	61705365 	.inst	0x61705365 ; undefined
   8ae5f:	4531436e 	.inst	0x4531436e ; undefined
   8ae63:	0a3a3e6d 	bic	w13, w19, w26, lsl #15
   8ae67:	30303030 	adr	x16, eb46c <__bss_end+0x5aa34>
   8ae6b:	30303030 	adr	x16, eb470 <__bss_end+0x5aa38>
   8ae6f:	38303030 	ldsetb	w16, w16, [x1]
   8ae73:	34613132 	cbz	w18, 14d497 <__bss_end+0xbca5f>
   8ae77:	5a5f3c20 	.inst	0x5a5f3c20 ; undefined
   8ae7b:	6954384e 	.inst	0x6954384e ; undefined
   8ae7f:	7053656d 	adr	x13, 131b2e <__bss_end+0xa10f6>
   8ae83:	31436e61 	adds	w1, w19, #0xdb, lsl #12
   8ae87:	54386d45 	b.pl	fbc2f <__bss_end+0x6b1f7>  // b.nfrst
   8ae8b:	55656d69 	.inst	0x55656d69 ; undefined
   8ae8f:	3e74696e 	.inst	0x3e74696e ; undefined
   8ae93:	30300a3a 	adr	x26, eafd8 <__bss_end+0x5a5a0>
   8ae97:	30303030 	adr	x16, eb49c <__bss_end+0x5aa64>
   8ae9b:	30303030 	adr	x16, eb4a0 <__bss_end+0x5aa68>
   8ae9f:	32323830 	orr	w16, w1, #0x1fffc000
   8aea3:	3c203462 	.inst	0x3c203462 ; undefined
   8aea7:	384e5a5f 	ldtrb	wzr, [x18, #229]
   8aeab:	656d6954 	fnmls	z20.h, p2/m, z10.h, z13.h
   8aeaf:	6e617053 	uabdl2	v19.4s, v2.8h, v1.8h
   8aeb3:	65473431 	fminv	h17, p5, z1.h
   8aeb7:	72754374 	.inst	0x72754374 ; undefined
   8aebb:	746e6572 	.inst	0x746e6572 ; undefined
   8aebf:	656d6954 	fnmls	z20.h, p2/m, z10.h, z13.h
   8aec3:	3a3e7645 	.inst	0x3a3e7645 ; undefined
   8aec7:	3030300a 	adr	x10, eb4c8 <__bss_end+0x5aa90>
   8aecb:	30303030 	adr	x16, eb4d0 <__bss_end+0x5aa98>
   8aecf:	30303030 	adr	x16, eb4d4 <__bss_end+0x5aa9c>
   8aed3:	64323238 	.inst	0x64323238 ; undefined
   8aed7:	5f3c2038 	.inst	0x5f3c2038 ; undefined
   8aedb:	54384e5a 	.inst	0x54384e5a ; undefined
   8aedf:	53656d69 	.inst	0x53656d69 ; undefined
   8aee3:	386e6170 	ldumaxlb	w14, w16, [x11]
   8aee7:	6e697053 	uabdl2	v19.4s, v2.8h, v9.8h
   8aeeb:	74696157 	.inst	0x74696157 ; undefined
   8aeef:	3a3e7645 	.inst	0x3a3e7645 ; undefined
   8aef3:	3030300a 	adr	x10, eb4f4 <__bss_end+0x5aabc>
   8aef7:	30303030 	adr	x16, eb4fc <__bss_end+0x5aac4>
   8aefb:	30303030 	adr	x16, eb500 <__bss_end+0x5aac8>
   8aeff:	32333238 	orr	w24, w17, #0x3ffe000
   8af03:	5f3c2038 	.inst	0x5f3c2038 ; undefined
   8af07:	50384e5a 	adr	x26, fb8d1 <__bss_end+0x6ae99>
   8af0b:	46324653 	.inst	0x46324653 ; undefined
   8af0f:	43746e6f 	.inst	0x43746e6f ; undefined
   8af13:	63504531 	.inst	0x63504531 ; undefined
   8af17:	300a3a3e 	adr	x30, 9f65c <__bss_end+0xec24>
   8af1b:	30303030 	adr	x16, eb520 <__bss_end+0x5aae8>
   8af1f:	30303030 	adr	x16, eb524 <__bss_end+0x5aaec>
   8af23:	32383030 	orr	w16, w1, #0x1fff00
   8af27:	20343034 	.inst	0x20343034 ; undefined
   8af2b:	4e5a5f3c 	.inst	0x4e5a5f3c ; undefined
   8af2f:	46535038 	.inst	0x46535038 ; undefined
   8af33:	6e6f4632 	ushl	v18.8h, v17.8h, v15.8h
   8af37:	45314374 	.inst	0x45314374 ; undefined
   8af3b:	0a3a3e76 	bic	w22, w19, w26, lsl #15
   8af3f:	30303030 	adr	x16, eb544 <__bss_end+0x5ab0c>
   8af43:	30303030 	adr	x16, eb548 <__bss_end+0x5ab10>
   8af47:	38303030 	ldsetb	w16, w16, [x1]
   8af4b:	38313432 	.inst	0x38313432 ; undefined
   8af4f:	5a5f3c20 	.inst	0x5a5f3c20 ; undefined
   8af53:	5350384e 	.inst	0x5350384e ; undefined
   8af57:	6f463246 	fcmla	v6.8h, v18.8h, v6.h[0], #90
   8af5b:	3731746e 	tbnz	w14, #6, 8dde7 <_ZL4mbox+0xc67>
   8af5f:	43736148 	.inst	0x43736148 ; undefined
   8af63:	61726168 	.inst	0x61726168 ; undefined
   8af67:	72657463 	.inst	0x72657463 ; undefined
   8af6b:	70796c47 	adr	x7, 17dcf6 <__bss_end+0xed2be>
   8af6f:	3e634568 	.inst	0x3e634568 ; undefined
   8af73:	30300a3a 	adr	x26, eb0b8 <__bss_end+0x5a680>
   8af77:	30303030 	adr	x16, eb57c <__bss_end+0x5ab44>
   8af7b:	30303030 	adr	x16, eb580 <__bss_end+0x5ab48>
   8af7f:	34323830 	cbz	w16, ef683 <__bss_end+0x5ec4b>
   8af83:	3c203037 	.inst	0x3c203037 ; undefined
   8af87:	384e5a5f 	ldtrb	wzr, [x18, #229]
   8af8b:	32465350 	.inst	0x32465350 ; undefined
   8af8f:	746e6f46 	.inst	0x746e6f46 ; undefined
   8af93:	74654738 	.inst	0x74654738 ; undefined
   8af97:	70796c47 	adr	x7, 17dd22 <__bss_end+0xed2ea>
   8af9b:	3e634568 	.inst	0x3e634568 ; undefined
   8af9f:	30300a3a 	adr	x26, eb0e4 <__bss_end+0x5a6ac>
   8afa3:	30303030 	adr	x16, eb5a8 <__bss_end+0x5ab70>
   8afa7:	30303030 	adr	x16, eb5ac <__bss_end+0x5ab74>
   8afab:	34323830 	cbz	w16, ef6af <__bss_end+0x5ec77>
   8afaf:	3c206362 	.inst	0x3c206362 ; undefined
   8afb3:	31345a5f 	cmn	w18, #0xd16
   8afb7:	74735f5f 	.inst	0x74735f5f ; undefined
   8afbb:	63697461 	.inst	0x63697461 ; undefined
   8afbf:	696e695f 	ldpsw	xzr, x26, [x10, #-144]
   8afc3:	6c616974 	ldnp	d20, d26, [x11, #-496]
   8afc7:	74617a69 	.inst	0x74617a69 ; undefined
   8afcb:	5f6e6f69 	.inst	0x5f6e6f69 ; undefined
   8afcf:	5f646e61 	.inst	0x5f646e61 ; undefined
   8afd3:	74736564 	.inst	0x74736564 ; undefined
   8afd7:	74637572 	.inst	0x74637572 ; undefined
   8afdb:	5f6e6f69 	.inst	0x5f6e6f69 ; undefined
   8afdf:	3e696930 	.inst	0x3e696930 ; undefined
   8afe3:	30300a3a 	adr	x26, eb128 <__bss_end+0x5a6f0>
   8afe7:	30303030 	adr	x16, eb5ec <__bss_end+0x5abb4>
   8afeb:	30303030 	adr	x16, eb5f0 <__bss_end+0x5abb8>
   8afef:	35323830 	cbnz	w16, ef6f3 <__bss_end+0x5ecbb>
   8aff3:	3c203030 	.inst	0x3c203030 ; undefined
   8aff7:	4f4c475f 	.inst	0x4f4c475f ; undefined
   8affb:	5f4c4142 	.inst	0x5f4c4142 ; undefined
   8afff:	6275735f 	.inst	0x6275735f ; undefined
   8b003:	5f5f495f 	.inst	0x5f5f495f ; undefined
   8b007:	50384e5a 	adr	x26, fb9d1 <__bss_end+0x6af99>
   8b00b:	46324653 	.inst	0x46324653 ; undefined
   8b00f:	43746e6f 	.inst	0x43746e6f ; undefined
   8b013:	63504532 	.inst	0x63504532 ; undefined
   8b017:	300a3a3e 	adr	x30, 9f75c <__bss_end+0xed24>
   8b01b:	30303030 	adr	x16, eb620 <__bss_end+0x5abe8>
   8b01f:	30303030 	adr	x16, eb624 <__bss_end+0x5abec>
   8b023:	32383030 	orr	w16, w1, #0x1fff00
   8b027:	20633135 	.inst	0x20633135 ; undefined
   8b02b:	4e5a5f3c 	.inst	0x4e5a5f3c ; undefined
   8b02f:	696f5035 	ldpsw	x21, x20, [x1, #-136]
   8b033:	3143746e 	adds	w14, w3, #0xdd, lsl #12
   8b037:	3a3e7645 	.inst	0x3a3e7645 ; undefined
   8b03b:	3030300a 	adr	x10, eb63c <__bss_end+0x5ac04>
   8b03f:	30303030 	adr	x16, eb644 <__bss_end+0x5ac0c>
   8b043:	30303030 	adr	x16, eb648 <__bss_end+0x5ac10>
   8b047:	34353238 	cbz	w24, f568b <__bss_end+0x64c53>
   8b04b:	5f3c2030 	.inst	0x5f3c2030 ; undefined
   8b04f:	50354e5a 	adr	x26, f5a19 <__bss_end+0x64fe1>
   8b053:	746e696f 	.inst	0x746e696f ; undefined
   8b057:	69453143 	ldpsw	x3, x12, [x10, #40]
   8b05b:	0a3a3e69 	bic	w9, w19, w26, lsl #15
   8b05f:	30303030 	adr	x16, eb664 <__bss_end+0x5ac2c>
   8b063:	30303030 	adr	x16, eb668 <__bss_end+0x5ac30>
   8b067:	38303030 	ldsetb	w16, w16, [x1]
   8b06b:	34373532 	cbz	w18, f970f <__bss_end+0x68cd7>
   8b06f:	5a5f3c20 	.inst	0x5a5f3c20 ; undefined
   8b073:	6953344e 	ldpsw	x14, x13, [x2, #152]
   8b077:	3143657a 	adds	w26, w11, #0xd9, lsl #12
   8b07b:	3a3e7645 	.inst	0x3a3e7645 ; undefined
   8b07f:	3030300a 	adr	x10, eb680 <__bss_end+0x5ac48>
   8b083:	30303030 	adr	x16, eb688 <__bss_end+0x5ac50>
   8b087:	30303030 	adr	x16, eb68c <__bss_end+0x5ac54>
   8b08b:	39353238 	strb	w24, [x17, #3404]
   8b08f:	5f3c2038 	.inst	0x5f3c2038 ; undefined
   8b093:	53344e5a 	.inst	0x53344e5a ; undefined
   8b097:	43657a69 	.inst	0x43657a69 ; undefined
   8b09b:	69694531 	.inst	0x69694531 ; undefined
   8b09f:	300a3a3e 	adr	x30, 9f7e4 <__bss_end+0xedac>
   8b0a3:	30303030 	adr	x16, eb6a8 <__bss_end+0x5ac70>
   8b0a7:	30303030 	adr	x16, eb6ac <__bss_end+0x5ac74>
   8b0ab:	32383030 	orr	w16, w1, #0x1fff00
   8b0af:	20636335 	.inst	0x20636335 ; undefined
   8b0b3:	4e5a5f3c 	.inst	0x4e5a5f3c ; undefined
   8b0b7:	63655239 	.inst	0x63655239 ; undefined
   8b0bb:	676e6174 	.inst	0x676e6174 ; undefined
   8b0bf:	3143656c 	adds	w12, w11, #0xd9, lsl #12
   8b0c3:	3a3e7645 	.inst	0x3a3e7645 ; undefined
   8b0c7:	3030300a 	adr	x10, eb6c8 <__bss_end+0x5ac90>
   8b0cb:	30303030 	adr	x16, eb6d0 <__bss_end+0x5ac98>
   8b0cf:	30303030 	adr	x16, eb6d4 <__bss_end+0x5ac9c>
   8b0d3:	30363238 	adr	x24, f7718 <__bss_end+0x66ce0>
   8b0d7:	5f3c2030 	.inst	0x5f3c2030 ; undefined
   8b0db:	52394e5a 	eor	w26, w18, #0x7ffff80
   8b0df:	61746365 	.inst	0x61746365 ; undefined
   8b0e3:	656c676e 	fnmls	z14.h, p1/m, z27.h, z12.h
   8b0e7:	69453143 	ldpsw	x3, x12, [x10, #40]
   8b0eb:	3e696969 	.inst	0x3e696969 ; undefined
   8b0ef:	30300a3a 	adr	x26, eb234 <__bss_end+0x5a7fc>
   8b0f3:	30303030 	adr	x16, eb6f8 <__bss_end+0x5acc0>
   8b0f7:	30303030 	adr	x16, eb6fc <__bss_end+0x5acc4>
   8b0fb:	36323830 	tbz	w16, #6, 8f7ff <_ZL4mbox+0x1ff>
   8b0ff:	3c203435 	.inst	0x3c203435 ; undefined
   8b103:	354e5a5f 	cbnz	wzr, 127c4b <__bss_end+0x97213>
   8b107:	6f6c6f43 	.inst	0x6f6c6f43 ; undefined
   8b10b:	45314372 	.inst	0x45314372 ; undefined
   8b10f:	3e636363 	.inst	0x3e636363 ; undefined
   8b113:	30300a3a 	adr	x26, eb258 <__bss_end+0x5a820>
   8b117:	30303030 	adr	x16, eb71c <__bss_end+0x5ace4>
   8b11b:	30303030 	adr	x16, eb720 <__bss_end+0x5ace8>
   8b11f:	36323830 	tbz	w16, #6, 8f823 <_ZL4mbox+0x223>
   8b123:	3c203839 	.inst	0x3c203839 ; undefined
   8b127:	354e5a5f 	cbnz	wzr, 127c6f <__bss_end+0x97237>
   8b12b:	6f6c6f43 	.inst	0x6f6c6f43 ; undefined
   8b12f:	45314372 	.inst	0x45314372 ; undefined
   8b133:	63636363 	.inst	0x63636363 ; undefined
   8b137:	300a3a3e 	adr	x30, 9f87c <__bss_end+0xee44>
   8b13b:	30303030 	adr	x16, eb740 <__bss_end+0x5ad08>
   8b13f:	30303030 	adr	x16, eb744 <__bss_end+0x5ad0c>
   8b143:	32383030 	orr	w16, w1, #0x1fff00
   8b147:	20636536 	.inst	0x20636536 ; undefined
   8b14b:	4e5a5f3c 	.inst	0x4e5a5f3c ; undefined
   8b14f:	6c6f4335 	ldnp	d21, d16, [x25, #-272]
   8b153:	6734726f 	.inst	0x6734726f ; undefined
   8b157:	45527465 	smullt	z5.h, z3.b, z18.b
   8b15b:	0a3a3e76 	bic	w22, w19, w26, lsl #15
   8b15f:	30303030 	adr	x16, eb764 <__bss_end+0x5ad2c>
   8b163:	30303030 	adr	x16, eb768 <__bss_end+0x5ad30>
   8b167:	38303030 	ldsetb	w16, w16, [x1]
   8b16b:	63303732 	.inst	0x63303732 ; undefined
   8b16f:	5a5f3c20 	.inst	0x5a5f3c20 ; undefined
   8b173:	6f43354e 	ursra	v14.2d, v10.2d, #61
   8b177:	34726f6c 	cbz	w12, 16ff63 <__bss_end+0xdf52b>
   8b17b:	52746573 	.inst	0x52746573 ; undefined
   8b17f:	3a3e6345 	.inst	0x3a3e6345 ; undefined
   8b183:	3030300a 	adr	x10, eb784 <__bss_end+0x5ad4c>
   8b187:	30303030 	adr	x16, eb78c <__bss_end+0x5ad54>
   8b18b:	30303030 	adr	x16, eb790 <__bss_end+0x5ad58>
   8b18f:	35373238 	cbnz	w24, f97d3 <__bss_end+0x68d9b>
   8b193:	5f3c2034 	.inst	0x5f3c2034 ; undefined
   8b197:	43354e5a 	.inst	0x43354e5a ; undefined
   8b19b:	726f6c6f 	.inst	0x726f6c6f ; undefined
   8b19f:	74656734 	.inst	0x74656734 ; undefined
   8b1a3:	3e764547 	.inst	0x3e764547 ; undefined
   8b1a7:	30300a3a 	adr	x26, eb2ec <__bss_end+0x5a8b4>
   8b1ab:	30303030 	adr	x16, eb7b0 <__bss_end+0x5ad78>
   8b1af:	30303030 	adr	x16, eb7b4 <__bss_end+0x5ad7c>
   8b1b3:	37323830 	tbnz	w16, #6, 8f8b7 <_ZL4mbox+0x2b7>
   8b1b7:	3c203437 	.inst	0x3c203437 ; undefined
   8b1bb:	354e5a5f 	cbnz	wzr, 127d03 <__bss_end+0x972cb>
   8b1bf:	6f6c6f43 	.inst	0x6f6c6f43 ; undefined
   8b1c3:	65733472 	fmls	z18.h, p5/m, z3.h, z19.h
   8b1c7:	63454774 	.inst	0x63454774 ; undefined
   8b1cb:	300a3a3e 	adr	x30, 9f910 <__bss_end+0xeed8>
   8b1cf:	30303030 	adr	x16, eb7d4 <__bss_end+0x5ad9c>
   8b1d3:	30303030 	adr	x16, eb7d8 <__bss_end+0x5ada0>
   8b1d7:	32383030 	orr	w16, w1, #0x1fff00
   8b1db:	20636237 	.inst	0x20636237 ; undefined
   8b1df:	4e5a5f3c 	.inst	0x4e5a5f3c ; undefined
   8b1e3:	6c6f4335 	ldnp	d21, d16, [x25, #-272]
   8b1e7:	6734726f 	.inst	0x6734726f ; undefined
   8b1eb:	45427465 	smullt	z5.h, z3.b, z2.b
   8b1ef:	0a3a3e76 	bic	w22, w19, w26, lsl #15
   8b1f3:	30303030 	adr	x16, eb7f8 <__bss_end+0x5adc0>
   8b1f7:	30303030 	adr	x16, eb7fc <__bss_end+0x5adc4>
   8b1fb:	38303030 	ldsetb	w16, w16, [x1]
   8b1ff:	63643732 	.inst	0x63643732 ; undefined
   8b203:	5a5f3c20 	.inst	0x5a5f3c20 ; undefined
   8b207:	6f43354e 	ursra	v14.2d, v10.2d, #61
   8b20b:	34726f6c 	cbz	w12, 16fff7 <__bss_end+0xdf5bf>
   8b20f:	42746573 	.inst	0x42746573 ; undefined
   8b213:	3a3e6345 	.inst	0x3a3e6345 ; undefined
   8b217:	3030300a 	adr	x10, eb818 <__bss_end+0x5ade0>
   8b21b:	30303030 	adr	x16, eb820 <__bss_end+0x5ade8>
   8b21f:	30303030 	adr	x16, eb824 <__bss_end+0x5adec>
   8b223:	32383238 	orr	w24, w17, #0x1fff00
   8b227:	5f3c2034 	.inst	0x5f3c2034 ; undefined
   8b22b:	43354e5a 	.inst	0x43354e5a ; undefined
   8b22f:	726f6c6f 	.inst	0x726f6c6f ; undefined
   8b233:	74656734 	.inst	0x74656734 ; undefined
   8b237:	3e764541 	.inst	0x3e764541 ; undefined
   8b23b:	30300a3a 	adr	x26, eb380 <__bss_end+0x5a948>
   8b23f:	30303030 	adr	x16, eb844 <__bss_end+0x5ae0c>
   8b243:	30303030 	adr	x16, eb848 <__bss_end+0x5ae10>
   8b247:	38323830 	.inst	0x38323830 ; undefined
   8b24b:	3c203034 	.inst	0x3c203034 ; undefined
   8b24f:	354e5a5f 	cbnz	wzr, 127d97 <__bss_end+0x9735f>
   8b253:	6f6c6f43 	.inst	0x6f6c6f43 ; undefined
   8b257:	65733472 	fmls	z18.h, p5/m, z3.h, z19.h
   8b25b:	63454174 	.inst	0x63454174 ; undefined
   8b25f:	300a3a3e 	adr	x30, 9f9a4 <__bss_end+0xef6c>
   8b263:	30303030 	adr	x16, eb868 <__bss_end+0x5ae30>
   8b267:	30303030 	adr	x16, eb86c <__bss_end+0x5ae34>
   8b26b:	32383030 	orr	w16, w1, #0x1fff00
   8b26f:	20343838 	.inst	0x20343838 ; undefined
   8b273:	4e5a5f3c 	.inst	0x4e5a5f3c ; undefined
   8b277:	61724738 	.inst	0x61724738 ; undefined
   8b27b:	63696870 	.inst	0x63696870 ; undefined
   8b27f:	45314373 	.inst	0x45314373 ; undefined
   8b283:	72463131 	.inst	0x72463131 ; undefined
   8b287:	62656d61 	.inst	0x62656d61 ; undefined
   8b28b:	65666675 	fnmls	z21.h, p1/m, z19.h, z6.h
   8b28f:	0a3a3e72 	bic	w18, w19, w26, lsl #15
   8b293:	30303030 	adr	x16, eb898 <__bss_end+0x5ae60>
   8b297:	30303030 	adr	x16, eb89c <__bss_end+0x5ae64>
   8b29b:	38303030 	ldsetb	w16, w16, [x1]
   8b29f:	30633832 	adr	x18, 1519a4 <__bss_end+0xc0f6c>
   8b2a3:	5a5f3c20 	.inst	0x5a5f3c20 ; undefined
   8b2a7:	7247384e 	.inst	0x7247384e ; undefined
   8b2ab:	69687061 	ldpsw	x1, x28, [x3, #-192]
   8b2af:	33317363 	.inst	0x33317363 ; undefined
   8b2b3:	42746547 	.inst	0x42746547 ; undefined
   8b2b7:	65666675 	fnmls	z21.h, p1/m, z19.h, z6.h
   8b2bb:	7a695372 	.inst	0x7a695372 ; undefined
   8b2bf:	3e764565 	.inst	0x3e764565 ; undefined
   8b2c3:	30300a3a 	adr	x26, eb408 <__bss_end+0x5a9d0>
   8b2c7:	30303030 	adr	x16, eb8cc <__bss_end+0x5ae94>
   8b2cb:	30303030 	adr	x16, eb8d0 <__bss_end+0x5ae98>
   8b2cf:	38323830 	.inst	0x38323830 ; undefined
   8b2d3:	3c203865 	.inst	0x3c203865 ; undefined
   8b2d7:	384e5a5f 	ldtrb	wzr, [x18, #229]
   8b2db:	70617247 	adr	x7, 14e126 <__bss_end+0xbd6ee>
   8b2df:	73636968 	.inst	0x73636968 ; undefined
   8b2e3:	6c694634 	ldnp	d20, d17, [x17, #-368]
   8b2e7:	4335456c 	.inst	0x4335456c ; undefined
   8b2eb:	726f6c6f 	.inst	0x726f6c6f ; undefined
   8b2ef:	300a3a3e 	adr	x30, 9fa34 <__bss_end+0xeffc>
   8b2f3:	30303030 	adr	x16, eb8f8 <__bss_end+0x5aec0>
   8b2f7:	30303030 	adr	x16, eb8fc <__bss_end+0x5aec4>
   8b2fb:	32383030 	orr	w16, w1, #0x1fff00
   8b2ff:	20383539 	.inst	0x20383539 ; undefined
   8b303:	4e5a5f3c 	.inst	0x4e5a5f3c ; undefined
   8b307:	61724738 	.inst	0x61724738 ; undefined
   8b30b:	63696870 	.inst	0x63696870 ; undefined
   8b30f:	46333173 	.inst	0x46333173 ; undefined
   8b313:	526c6c69 	.inst	0x526c6c69 ; undefined
   8b317:	61746365 	.inst	0x61746365 ; undefined
   8b31b:	656c676e 	fnmls	z14.h, p1/m, z27.h, z12.h
   8b31f:	65523945 	fcmeq	p5.h, p6/z, z10.h, #0.0
   8b323:	6e617463 	uabd	v3.8h, v3.8h, v1.8h
   8b327:	35656c67 	cbnz	w7, 1560b3 <__bss_end+0xc567b>
   8b32b:	6f6c6f43 	.inst	0x6f6c6f43 ; undefined
   8b32f:	0a3a3e72 	bic	w18, w19, w26, lsl #15
   8b333:	30303030 	adr	x16, eb938 <__bss_end+0x5af00>
   8b337:	30303030 	adr	x16, eb93c <__bss_end+0x5af04>
   8b33b:	38303030 	ldsetb	w16, w16, [x1]
   8b33f:	30346132 	adr	x18, f3f64 <__bss_end+0x6352c>
   8b343:	5a5f3c20 	.inst	0x5a5f3c20 ; undefined
   8b347:	7247384e 	.inst	0x7247384e ; undefined
   8b34b:	69687061 	ldpsw	x1, x28, [x3, #-192]
   8b34f:	44387363 	.inst	0x44387363 ; undefined
   8b353:	43776172 	.inst	0x43776172 ; undefined
   8b357:	45726168 	addhnb	z8.b, z11.h, z18.h
   8b35b:	53503850 	.inst	0x53503850 ; undefined
   8b35f:	6f463246 	fcmla	v6.8h, v18.8h, v6.h[0], #90
   8b363:	5035746e 	adr	x14, f61f1 <__bss_end+0x657b9>
   8b367:	746e696f 	.inst	0x746e696f ; undefined
   8b36b:	6f433563 	ursra	v3.2d, v11.2d, #61
   8b36f:	3e726f6c 	.inst	0x3e726f6c ; undefined
   8b373:	30300a3a 	adr	x26, eb4b8 <__bss_end+0x5aa80>
   8b377:	30303030 	adr	x16, eb97c <__bss_end+0x5af44>
   8b37b:	30303030 	adr	x16, eb980 <__bss_end+0x5af48>
   8b37f:	62323830 	.inst	0x62323830 ; undefined
   8b383:	3c203065 	.inst	0x3c203065 ; undefined
   8b387:	384e5a5f 	ldtrb	wzr, [x18, #229]
   8b38b:	70617247 	adr	x7, 14e1d6 <__bss_end+0xbd79e>
   8b38f:	73636968 	.inst	0x73636968 ; undefined
   8b393:	72443031 	.inst	0x72443031 ; undefined
   8b397:	74537761 	.inst	0x74537761 ; undefined
   8b39b:	676e6972 	.inst	0x676e6972 ; undefined
   8b39f:	50385045 	adr	x5, fbda9 <__bss_end+0x6b371>
   8b3a3:	46324653 	.inst	0x46324653 ; undefined
   8b3a7:	35746e6f 	cbnz	w15, 174173 <__bss_end+0xe373b>
   8b3ab:	6e696f50 	umin	v16.8h, v26.8h, v9.8h
   8b3af:	74533674 	.inst	0x74533674 ; undefined
   8b3b3:	676e6972 	.inst	0x676e6972 ; undefined
   8b3b7:	6c6f4335 	ldnp	d21, d16, [x25, #-272]
   8b3bb:	3a3e726f 	.inst	0x3a3e726f ; undefined
   8b3bf:	3030300a 	adr	x10, eb9c0 <__bss_end+0x5af88>
   8b3c3:	30303030 	adr	x16, eb9c8 <__bss_end+0x5af90>
   8b3c7:	30303030 	adr	x16, eb9cc <__bss_end+0x5af94>
   8b3cb:	31643238 	adds	w24, w17, #0x90c, lsl #12
   8b3cf:	5f3c2034 	.inst	0x5f3c2034 ; undefined
   8b3d3:	31314e5a 	adds	w26, w18, #0xc53
   8b3d7:	6d617246 	ldp	d6, d28, [x18, #-496]
   8b3db:	66756265 	.inst	0x66756265 ; undefined
   8b3df:	43726566 	.inst	0x43726566 ; undefined
   8b3e3:	3e764531 	.inst	0x3e764531 ; undefined
   8b3e7:	30300a3a 	adr	x26, eb52c <__bss_end+0x5aaf4>
   8b3eb:	30303030 	adr	x16, eb9f0 <__bss_end+0x5afb8>
   8b3ef:	30303030 	adr	x16, eb9f4 <__bss_end+0x5afbc>
   8b3f3:	64323830 	.inst	0x64323830 ; undefined
   8b3f7:	3c203833 	.inst	0x3c203833 ; undefined
   8b3fb:	314e5a5f 	cmn	w18, #0x396, lsl #12
   8b3ff:	61724631 	.inst	0x61724631 ; undefined
   8b403:	7562656d 	.inst	0x7562656d ; undefined
   8b407:	72656666 	.inst	0x72656666 ; undefined
   8b40b:	69453143 	ldpsw	x3, x12, [x10, #40]
   8b40f:	0a3a3e69 	bic	w9, w19, w26, lsl #15
   8b413:	30303030 	adr	x16, eba18 <__bss_end+0x5afe0>
   8b417:	30303030 	adr	x16, eba1c <__bss_end+0x5afe4>
   8b41b:	38303030 	ldsetb	w16, w16, [x1]
   8b41f:	34376532 	cbz	w18, fa0c3 <__bss_end+0x6968b>
   8b423:	5a5f3c20 	.inst	0x5a5f3c20 ; undefined
   8b427:	4730314e 	.inst	0x4730314e ; undefined
   8b42b:	484f4950 	ldxrh	w16, [x10]
   8b42f:	6c646e61 	ldnp	d1, d27, [x19, #-448]
   8b433:	45314365 	.inst	0x45314365 ; undefined
   8b437:	0a3a3e76 	bic	w22, w19, w26, lsl #15
   8b43b:	30303030 	adr	x16, eba40 <__bss_end+0x5b008>
   8b43f:	30303030 	adr	x16, eba44 <__bss_end+0x5b00c>
   8b443:	38303030 	ldsetb	w16, w16, [x1]
   8b447:	38386532 	.inst	0x38386532 ; undefined
   8b44b:	5a5f3c20 	.inst	0x5a5f3c20 ; undefined
   8b44f:	4730314e 	.inst	0x4730314e ; undefined
   8b453:	484f4950 	ldxrh	w16, [x10]
   8b457:	6c646e61 	ldnp	d1, d27, [x19, #-448]
   8b45b:	45314365 	.inst	0x45314365 ; undefined
   8b45f:	0a3a3e69 	bic	w9, w19, w26, lsl #15
   8b463:	30303030 	adr	x16, eba68 <__bss_end+0x5b030>
   8b467:	30303030 	adr	x16, eba6c <__bss_end+0x5b034>
   8b46b:	38303030 	ldsetb	w16, w16, [x1]
   8b46f:	30626532 	adr	x18, 150114 <__bss_end+0xbf6dc>
   8b473:	5a5f3c20 	.inst	0x5a5f3c20 ; undefined
   8b477:	4730314e 	.inst	0x4730314e ; undefined
   8b47b:	484f4950 	ldxrh	w16, [x10]
   8b47f:	6c646e61 	ldnp	d1, d27, [x19, #-448]
   8b483:	65533665 	fcmne	p5.h, p5/z, z19.h, #0.0
   8b487:	6e695074 	uabal2	v20.4s, v3.8h, v9.8h
   8b48b:	3a3e6945 	.inst	0x3a3e6945 ; undefined
   8b48f:	3030300a 	adr	x10, eba90 <__bss_end+0x5b058>
   8b493:	30303030 	adr	x16, eba98 <__bss_end+0x5b060>
   8b497:	30303030 	adr	x16, eba9c <__bss_end+0x5b064>
   8b49b:	65303338 	.inst	0x65303338 ; undefined
   8b49f:	5f3c2063 	.inst	0x5f3c2063 ; undefined
   8b4a3:	30314e5a 	adr	x26, ede6c <__bss_end+0x5d434>
   8b4a7:	4f495047 	.inst	0x4f495047 ; undefined
   8b4ab:	646e6148 	.inst	0x646e6148 ; undefined
   8b4af:	5338656c 	.inst	0x5338656c ; undefined
   8b4b3:	6e497465 	.inst	0x6e497465 ; undefined
   8b4b7:	45747570 	subhnt	z16.b, z11.h, z20.h
   8b4bb:	0a3a3e76 	bic	w22, w19, w26, lsl #15
   8b4bf:	30303030 	adr	x16, ebac4 <__bss_end+0x5b08c>
   8b4c3:	30303030 	adr	x16, ebac8 <__bss_end+0x5b090>
   8b4c7:	38303030 	ldsetb	w16, w16, [x1]
   8b4cb:	34333133 	cbz	w19, f1aef <__bss_end+0x610b7>
   8b4cf:	5a5f3c20 	.inst	0x5a5f3c20 ; undefined
   8b4d3:	4730314e 	.inst	0x4730314e ; undefined
   8b4d7:	484f4950 	ldxrh	w16, [x10]
   8b4db:	6c646e61 	ldnp	d1, d27, [x19, #-448]
   8b4df:	65533965 	fcmne	p5.h, p6/z, z11.h, #0.0
   8b4e3:	74754f74 	.inst	0x74754f74 ; undefined
   8b4e7:	45747570 	subhnt	z16.b, z11.h, z20.h
   8b4eb:	0a3a3e76 	bic	w22, w19, w26, lsl #15
   8b4ef:	30303030 	adr	x16, ebaf4 <__bss_end+0x5b0bc>
   8b4f3:	30303030 	adr	x16, ebaf8 <__bss_end+0x5b0c0>
   8b4f7:	38303030 	ldsetb	w16, w16, [x1]
   8b4fb:	63613133 	.inst	0x63613133 ; undefined
   8b4ff:	5a5f3c20 	.inst	0x5a5f3c20 ; undefined
   8b503:	4730314e 	.inst	0x4730314e ; undefined
   8b507:	484f4950 	ldxrh	w16, [x10]
   8b50b:	6c646e61 	ldnp	d1, d27, [x19, #-448]
   8b50f:	72573565 	.inst	0x72573565 ; undefined
   8b513:	45657469 	subhnt	z9.b, z3.h, z5.h
   8b517:	0a3a3e62 	bic	w2, w19, w26, lsl #15
   8b51b:	30303030 	adr	x16, ebb20 <__bss_end+0x5b0e8>
   8b51f:	30303030 	adr	x16, ebb24 <__bss_end+0x5b0ec>
   8b523:	38303030 	ldsetb	w16, w16, [x1]
   8b527:	63313233 	.inst	0x63313233 ; undefined
   8b52b:	5a5f3c20 	.inst	0x5a5f3c20 ; undefined
   8b52f:	4730314e 	.inst	0x4730314e ; undefined
   8b533:	484f4950 	ldxrh	w16, [x10]
   8b537:	6c646e61 	ldnp	d1, d27, [x19, #-448]
   8b53b:	73493865 	.inst	0x73493865 ; undefined
   8b53f:	69746341 	ldpsw	x1, x24, [x26, #-96]
   8b543:	76456576 	.inst	0x76456576 ; undefined
   8b547:	300a3a3e 	adr	x30, 9fc8c <__bss_end+0xf254>
   8b54b:	30303030 	adr	x16, ebb50 <__bss_end+0x5b118>
   8b54f:	30303030 	adr	x16, ebb54 <__bss_end+0x5b11c>
   8b553:	33383030 	.inst	0x33383030 ; undefined
   8b557:	20383532 	.inst	0x20383532 ; undefined
   8b55b:	345a5f3c 	cbz	w28, 14013f <__bss_end+0xaf707>
   8b55f:	735f5f31 	.inst	0x735f5f31 ; undefined
   8b563:	69746174 	ldpsw	x20, x24, [x11, #-96]
   8b567:	6e695f63 	uqrshl	v3.8h, v27.8h, v9.8h
   8b56b:	61697469 	.inst	0x61697469 ; undefined
   8b56f:	617a696c 	.inst	0x617a696c ; undefined
   8b573:	6e6f6974 	.inst	0x6e6f6974 ; undefined
   8b577:	646e615f 	.inst	0x646e615f ; undefined
   8b57b:	7365645f 	.inst	0x7365645f ; undefined
   8b57f:	63757274 	.inst	0x63757274 ; undefined
   8b583:	6e6f6974 	.inst	0x6e6f6974 ; undefined
   8b587:	6969305f 	ldpsw	xzr, x12, [x2, #-184]
   8b58b:	300a3a3e 	adr	x30, 9fcd0 <__bss_end+0xf298>
   8b58f:	30303030 	adr	x16, ebb94 <__bss_end+0x5b15c>
   8b593:	30303030 	adr	x16, ebb98 <__bss_end+0x5b160>
   8b597:	33383030 	.inst	0x33383030 ; undefined
   8b59b:	20633932 	.inst	0x20633932 ; undefined
   8b59f:	4c475f3c 	.inst	0x4c475f3c ; undefined
   8b5a3:	4c41424f 	.inst	0x4c41424f ; undefined
   8b5a7:	75735f5f 	.inst	0x75735f5f ; undefined
   8b5ab:	5f495f62 	.inst	0x5f495f62 ; undefined
   8b5af:	314e5a5f 	cmn	w18, #0x396, lsl #12
   8b5b3:	49504730 	.inst	0x49504730 ; undefined
   8b5b7:	6e61484f 	uqxtn2	v15.8h, v2.4s
   8b5bb:	43656c64 	.inst	0x43656c64 ; undefined
   8b5bf:	3e764532 	.inst	0x3e764532 ; undefined
   8b5c3:	30300a3a 	adr	x26, eb708 <__bss_end+0x5acd0>
   8b5c7:	30303030 	adr	x16, ebbcc <__bss_end+0x5b194>
   8b5cb:	30303030 	adr	x16, ebbd0 <__bss_end+0x5b198>
   8b5cf:	32333830 	orr	w16, w1, #0xfffe000
   8b5d3:	3c203862 	.inst	0x3c203862 ; undefined
   8b5d7:	374e5a5f 	tbnz	wzr, #9, 8811f <_ZL17_systemFontBuffer+0x2477>
   8b5db:	6c69614d 	ldnp	d13, d24, [x10, #-368]
   8b5df:	43786f62 	.inst	0x43786f62 ; undefined
   8b5e3:	3e764531 	.inst	0x3e764531 ; undefined
   8b5e7:	30300a3a 	adr	x26, eb72c <__bss_end+0x5acf4>
   8b5eb:	30303030 	adr	x16, ebbf0 <__bss_end+0x5b1b8>
   8b5ef:	30303030 	adr	x16, ebbf4 <__bss_end+0x5b1bc>
   8b5f3:	33333830 	.inst	0x33333830 ; undefined
   8b5f7:	3c203830 	.inst	0x3c203830 ; undefined
   8b5fb:	374e5a5f 	tbnz	wzr, #9, 88143 <_ZL17_systemFontBuffer+0x249b>
   8b5ff:	6c69614d 	ldnp	d13, d24, [x10, #-368]
   8b603:	35786f62 	cbnz	w2, 17c3ef <__bss_end+0xeb9b7>
   8b607:	65736552 	fnmls	z18.h, p1/m, z10.h, z19.h
   8b60b:	3e764574 	.inst	0x3e764574 ; undefined
   8b60f:	30300a3a 	adr	x26, eb754 <__bss_end+0x5ad1c>
   8b613:	30303030 	adr	x16, ebc18 <__bss_end+0x5b1e0>
   8b617:	30303030 	adr	x16, ebc1c <__bss_end+0x5b1e4>
   8b61b:	33333830 	.inst	0x33333830 ; undefined
   8b61f:	3c203834 	.inst	0x3c203834 ; undefined
   8b623:	374e5a5f 	tbnz	wzr, #9, 8816b <_ZL17_systemFontBuffer+0x3>
   8b627:	6c69614d 	ldnp	d13, d24, [x10, #-368]
   8b62b:	37786f62 	tbnz	w2, #15, 8c417 <_ZL4mbox+0x2b7>
   8b62f:	44646441 	.inst	0x44646441 ; undefined
   8b633:	45617461 	subhnt	z1.b, z3.h, z1.h
   8b637:	0a3a3e6a 	bic	w10, w19, w26, lsl #15
   8b63b:	30303030 	adr	x16, ebc40 <__bss_end+0x5b208>
   8b63f:	30303030 	adr	x16, ebc44 <__bss_end+0x5b20c>
   8b643:	38303030 	ldsetb	w16, w16, [x1]
   8b647:	63633333 	.inst	0x63633333 ; undefined
   8b64b:	5a5f3c20 	.inst	0x5a5f3c20 ; undefined
   8b64f:	614d374e 	.inst	0x614d374e ; undefined
   8b653:	6f626c69 	.inst	0x6f626c69 ; undefined
   8b657:	41383178 	.inst	0x41383178 ; undefined
   8b65b:	65526464 	fcmeq	p4.h, p1/z, z3.h, z18.h
   8b65f:	73657571 	.inst	0x73657571 ; undefined
   8b663:	6f725074 	fcmla	v20.8h, v3.8h, v18.h[1], #180
   8b667:	74726570 	.inst	0x74726570 ; undefined
   8b66b:	6a6a4579 	bics	w25, w11, w10, lsr #17
   8b66f:	300a3a3e 	adr	x30, 9fdb4 <__bss_end+0xf37c>
   8b673:	30303030 	adr	x16, ebc78 <__bss_end+0x5b240>
   8b677:	30303030 	adr	x16, ebc7c <__bss_end+0x5b244>
   8b67b:	33383030 	.inst	0x33383030 ; undefined
   8b67f:	20303234 	.inst	0x20303234 ; undefined
   8b683:	4e5a5f3c 	.inst	0x4e5a5f3c ; undefined
   8b687:	69614d37 	ldpsw	x23, x19, [x9, #-248]
   8b68b:	786f626c 	ldumaxlh	w15, w12, [x19]
   8b68f:	64413831 	fcmla	z17.h, p6/m, z1.h, z1.h, #90
   8b693:	71655264 	subs	w4, w19, #0x954, lsl #12
   8b697:	74736575 	.inst	0x74736575 ; undefined
   8b69b:	706f7250 	adr	x16, 16a4e6 <__bss_end+0xd9aae>
   8b69f:	79747265 	ldrh	w5, [x19, #6712]
   8b6a3:	6a6a6a45 	bics	w5, w18, w10, lsr #26
   8b6a7:	300a3a3e 	adr	x30, 9fdec <__bss_end+0xf3b4>
   8b6ab:	30303030 	adr	x16, ebcb0 <__bss_end+0x5b278>
   8b6af:	30303030 	adr	x16, ebcb4 <__bss_end+0x5b27c>
   8b6b3:	33383030 	.inst	0x33383030 ; undefined
   8b6b7:	20343834 	.inst	0x20343834 ; undefined
   8b6bb:	4e5a5f3c 	.inst	0x4e5a5f3c ; undefined
   8b6bf:	69614d37 	ldpsw	x23, x19, [x9, #-248]
   8b6c3:	786f626c 	ldumaxlh	w15, w12, [x19]
   8b6c7:	64413831 	fcmla	z17.h, p6/m, z1.h, z1.h, #90
   8b6cb:	71655264 	subs	w4, w19, #0x954, lsl #12
   8b6cf:	74736575 	.inst	0x74736575 ; undefined
   8b6d3:	706f7250 	adr	x16, 16a51e <__bss_end+0xd9ae6>
   8b6d7:	79747265 	ldrh	w5, [x19, #6712]
   8b6db:	6a6a6a45 	bics	w5, w18, w10, lsr #26
   8b6df:	0a3a3e6a 	bic	w10, w19, w26, lsl #15
   8b6e3:	30303030 	adr	x16, ebce8 <__bss_end+0x5b2b0>
   8b6e7:	30303030 	adr	x16, ebcec <__bss_end+0x5b2b4>
   8b6eb:	38303030 	ldsetb	w16, w16, [x1]
   8b6ef:	38663433 	.inst	0x38663433 ; undefined
   8b6f3:	5a5f3c20 	.inst	0x5a5f3c20 ; undefined
   8b6f7:	614d374e 	.inst	0x614d374e ; undefined
   8b6fb:	6f626c69 	.inst	0x6f626c69 ; undefined
   8b6ff:	41383178 	.inst	0x41383178 ; undefined
   8b703:	65526464 	fcmeq	p4.h, p1/z, z3.h, z18.h
   8b707:	73657571 	.inst	0x73657571 ; undefined
   8b70b:	6f725074 	fcmla	v20.8h, v3.8h, v18.h[1], #180
   8b70f:	74726570 	.inst	0x74726570 ; undefined
   8b713:	6a6a4579 	bics	w25, w11, w10, lsr #17
   8b717:	3e6a6a6a 	.inst	0x3e6a6a6a ; undefined
   8b71b:	30300a3a 	adr	x26, eb860 <__bss_end+0x5ae28>
   8b71f:	30303030 	adr	x16, ebd24 <__bss_end+0x5b2ec>
   8b723:	30303030 	adr	x16, ebd28 <__bss_end+0x5b2f0>
   8b727:	35333830 	cbnz	w16, f1e2b <__bss_end+0x613f3>
   8b72b:	3c206337 	.inst	0x3c206337 ; undefined
   8b72f:	374e5a5f 	tbnz	wzr, #9, 88277 <_ZL17_systemFontBuffer+0x10f>
   8b733:	6c69614d 	ldnp	d13, d24, [x10, #-368]
   8b737:	34786f62 	cbz	w2, 17c523 <__bss_end+0xebaeb>
   8b73b:	6b636150 	.inst	0x6b636150 ; undefined
   8b73f:	3a3e7645 	.inst	0x3a3e7645 ; undefined
   8b743:	3030300a 	adr	x10, ebd44 <__bss_end+0x5b30c>
   8b747:	30303030 	adr	x16, ebd4c <__bss_end+0x5b314>
   8b74b:	30303030 	adr	x16, ebd50 <__bss_end+0x5b318>
   8b74f:	62353338 	.inst	0x62353338 ; undefined
   8b753:	5f3c2034 	.inst	0x5f3c2034 ; undefined
   8b757:	4d374e5a 	.inst	0x4d374e5a ; undefined
   8b75b:	626c6961 	.inst	0x626c6961 ; undefined
   8b75f:	5735786f 	.inst	0x5735786f ; undefined
   8b763:	65746972 	fnmls	z18.h, p2/m, z11.h, z20.h
   8b767:	3a3e7645 	.inst	0x3a3e7645 ; undefined
   8b76b:	3030300a 	adr	x10, ebd6c <__bss_end+0x5b334>
   8b76f:	30303030 	adr	x16, ebd74 <__bss_end+0x5b33c>
   8b773:	30303030 	adr	x16, ebd78 <__bss_end+0x5b340>
   8b777:	65353338 	.inst	0x65353338 ; undefined
   8b77b:	5f3c2034 	.inst	0x5f3c2034 ; undefined
   8b77f:	5f31345a 	.inst	0x5f31345a ; undefined
   8b783:	6174735f 	.inst	0x6174735f ; undefined
   8b787:	5f636974 	.inst	0x5f636974 ; undefined
   8b78b:	74696e69 	.inst	0x74696e69 ; undefined
   8b78f:	696c6169 	ldpsw	x9, x24, [x11, #-160]
   8b793:	6974617a 	ldpsw	x26, x24, [x11, #-96]
   8b797:	615f6e6f 	.inst	0x615f6e6f ; undefined
   8b79b:	645f646e 	fcmla	z14.h, p1/m, z3.h, z31.h, #270
   8b79f:	72747365 	.inst	0x72747365 ; undefined
   8b7a3:	69746375 	ldpsw	x21, x24, [x27, #-96]
   8b7a7:	305f6e6f 	adr	x15, 14a574 <__bss_end+0xb9b3c>
   8b7ab:	3a3e6969 	.inst	0x3a3e6969 ; undefined
   8b7af:	3030300a 	adr	x10, ebdb0 <__bss_end+0x5b378>
   8b7b3:	30303030 	adr	x16, ebdb8 <__bss_end+0x5b380>
   8b7b7:	30303030 	adr	x16, ebdbc <__bss_end+0x5b384>
   8b7bb:	32363338 	orr	w24, w25, #0x7ffc00
   8b7bf:	5f3c2038 	.inst	0x5f3c2038 ; undefined
   8b7c3:	424f4c47 	.inst	0x424f4c47 ; undefined
   8b7c7:	5f5f4c41 	.inst	0x5f5f4c41 ; undefined
   8b7cb:	5f627573 	sqshl	d19, d11, #34
   8b7cf:	5a5f5f49 	.inst	0x5a5f5f49 ; undefined
   8b7d3:	614d374e 	.inst	0x614d374e ; undefined
   8b7d7:	6f626c69 	.inst	0x6f626c69 ; undefined
   8b7db:	45324378 	.inst	0x45324378 ; undefined
   8b7df:	0a3a3e76 	bic	w22, w19, w26, lsl #15
   8b7e3:	30303030 	adr	x16, ebde8 <__bss_end+0x5b3b0>
   8b7e7:	30303030 	adr	x16, ebdec <__bss_end+0x5b3b4>
   8b7eb:	38303030 	ldsetb	w16, w16, [x1]
   8b7ef:	34343633 	cbz	w19, f3eb3 <__bss_end+0x6347b>
   8b7f3:	5a5f3c20 	.inst	0x5a5f3c20 ; undefined
   8b7f7:	5331314e 	.inst	0x5331314e ; undefined
   8b7fb:	65747379 	fnmls	z25.h, p4/m, z27.h, z20.h
   8b7ff:	6d69546d 	ldp	d13, d21, [x3, #-368]
   8b803:	34317265 	cbz	w5, ee64f <__bss_end+0x5dc17>
   8b807:	53746547 	.inst	0x53746547 ; undefined
   8b80b:	65747379 	fnmls	z25.h, p4/m, z27.h, z20.h
   8b80f:	6d69546d 	ldp	d13, d21, [x3, #-368]
   8b813:	76457265 	.inst	0x76457265 ; undefined
   8b817:	300a3a3e 	adr	x30, 9ff5c <__bss_end+0xf524>
   8b81b:	30303030 	adr	x16, ebe20 <__bss_end+0x5b3e8>
   8b81f:	30303030 	adr	x16, ebe24 <__bss_end+0x5b3ec>
   8b823:	33383030 	.inst	0x33383030 ; undefined
   8b827:	20303536 	.inst	0x20303536 ; undefined
   8b82b:	4e5a5f3c 	.inst	0x4e5a5f3c ; undefined
   8b82f:	79533131 	ldrh	w17, [x9, #2456]
   8b833:	6d657473 	ldp	d19, d29, [x3, #-432]
   8b837:	656d6954 	fnmls	z20.h, p2/m, z10.h, z13.h
   8b83b:	47333272 	.inst	0x47333272 ; undefined
   8b83f:	79537465 	ldrh	w5, [x3, #2490]
   8b843:	6d657473 	ldp	d19, d29, [x3, #-432]
   8b847:	656d6954 	fnmls	z20.h, p2/m, z10.h, z13.h
   8b84b:	65724672 	fnmla	z18.h, p1/m, z19.h, z18.h
   8b84f:	6e657571 	uabd	v17.8h, v11.8h, v5.8h
   8b853:	76457963 	.inst	0x76457963 ; undefined
   8b857:	300a3a3e 	adr	x30, 9ff9c <__bss_end+0xf564>
   8b85b:	30303030 	adr	x16, ebe60 <__bss_end+0x5b428>
   8b85f:	30303030 	adr	x16, ebe64 <__bss_end+0x5b42c>
   8b863:	33383030 	.inst	0x33383030 ; undefined
   8b867:	20383636 	.inst	0x20383636 ; undefined
   8b86b:	4e5a5f3c 	.inst	0x4e5a5f3c ; undefined
   8b86f:	79533131 	ldrh	w17, [x9, #2456]
   8b873:	6d657473 	ldp	d19, d29, [x3, #-432]
   8b877:	656d6954 	fnmls	z20.h, p2/m, z10.h, z13.h
   8b87b:	47333172 	.inst	0x47333172 ; undefined
   8b87f:	79537465 	ldrh	w5, [x3, #2490]
   8b883:	6d657473 	ldp	d19, d29, [x3, #-432]
   8b887:	656d6954 	fnmls	z20.h, p2/m, z10.h, z13.h
   8b88b:	3a3e7645 	.inst	0x3a3e7645 ; undefined
   8b88f:	3030300a 	adr	x10, ebe90 <__bss_end+0x5b458>
   8b893:	30303030 	adr	x16, ebe98 <__bss_end+0x5b460>
   8b897:	30303030 	adr	x16, ebe9c <__bss_end+0x5b464>
   8b89b:	66363338 	.inst	0x66363338 ; undefined
   8b89f:	5f3c2034 	.inst	0x5f3c2034 ; undefined
   8b8a3:	5f31345a 	.inst	0x5f31345a ; undefined
   8b8a7:	6174735f 	.inst	0x6174735f ; undefined
   8b8ab:	5f636974 	.inst	0x5f636974 ; undefined
   8b8af:	74696e69 	.inst	0x74696e69 ; undefined
   8b8b3:	696c6169 	ldpsw	x9, x24, [x11, #-160]
   8b8b7:	6974617a 	ldpsw	x26, x24, [x11, #-96]
   8b8bb:	615f6e6f 	.inst	0x615f6e6f ; undefined
   8b8bf:	645f646e 	fcmla	z14.h, p1/m, z3.h, z31.h, #270
   8b8c3:	72747365 	.inst	0x72747365 ; undefined
   8b8c7:	69746375 	ldpsw	x21, x24, [x27, #-96]
   8b8cb:	305f6e6f 	adr	x15, 14a698 <__bss_end+0xb9c60>
   8b8cf:	3a3e6969 	.inst	0x3a3e6969 ; undefined
   8b8d3:	3030300a 	adr	x10, ebed4 <__bss_end+0x5b49c>
   8b8d7:	30303030 	adr	x16, ebedc <__bss_end+0x5b4a4>
   8b8db:	30303030 	adr	x16, ebee0 <__bss_end+0x5b4a8>
   8b8df:	33373338 	.inst	0x33373338 ; undefined
   8b8e3:	5f3c2038 	.inst	0x5f3c2038 ; undefined
   8b8e7:	424f4c47 	.inst	0x424f4c47 ; undefined
   8b8eb:	5f5f4c41 	.inst	0x5f5f4c41 ; undefined
   8b8ef:	5f627573 	sqshl	d19, d11, #34
   8b8f3:	5a5f5f49 	.inst	0x5a5f5f49 ; undefined
   8b8f7:	5331314e 	.inst	0x5331314e ; undefined
   8b8fb:	65747379 	fnmls	z25.h, p4/m, z27.h, z20.h
   8b8ff:	6d69546d 	ldp	d13, d21, [x3, #-368]
   8b903:	34317265 	cbz	w5, ee74f <__bss_end+0x5dd17>
   8b907:	53746547 	.inst	0x53746547 ; undefined
   8b90b:	65747379 	fnmls	z25.h, p4/m, z27.h, z20.h
   8b90f:	6d69546d 	ldp	d13, d21, [x3, #-368]
   8b913:	76457265 	.inst	0x76457265 ; undefined
   8b917:	300a3a3e 	adr	x30, a005c <__bss_end+0xf624>
   8b91b:	30303030 	adr	x16, ebf20 <__bss_end+0x5b4e8>
   8b91f:	30303030 	adr	x16, ebf24 <__bss_end+0x5b4ec>
   8b923:	33383030 	.inst	0x33383030 ; undefined
   8b927:	20343537 	.inst	0x20343537 ; undefined
   8b92b:	315a5f3c 	adds	w28, w25, #0x697, lsl #12
   8b92f:	74656734 	.inst	0x74656734 ; undefined
   8b933:	636e7546 	.inst	0x636e7546 ; undefined
   8b937:	6e6f6974 	.inst	0x6e6f6974 ; undefined
   8b93b:	7670614d 	.inst	0x7670614d ; undefined
   8b93f:	300a3a3e 	adr	x30, a0084 <__bss_end+0xf64c>
   8b943:	30303030 	adr	x16, ebf48 <__bss_end+0x5b510>
   8b947:	30303030 	adr	x16, ebf4c <__bss_end+0x5b514>
   8b94b:	33383030 	.inst	0x33383030 ; undefined
   8b94f:	20633537 	.inst	0x20633537 ; undefined
   8b953:	315a5f3c 	adds	w28, w25, #0x697, lsl #12
   8b957:	74657333 	.inst	0x74657333 ; undefined
   8b95b:	74737953 	.inst	0x74737953 ; undefined
   8b95f:	6f466d65 	.inst	0x6f466d65 ; undefined
   8b963:	5038746e 	adr	x14, fc7f1 <__bss_end+0x6bdb9>
   8b967:	46324653 	.inst	0x46324653 ; undefined
   8b96b:	3e746e6f 	.inst	0x3e746e6f ; undefined
   8b96f:	30300a3a 	adr	x26, ebab4 <__bss_end+0x5b07c>
   8b973:	30303030 	adr	x16, ebf78 <__bss_end+0x5b540>
   8b977:	30303030 	adr	x16, ebf7c <__bss_end+0x5b544>
   8b97b:	37333830 	tbnz	w16, #6, 9207f <__bss_end+0x1647>
   8b97f:	3c206339 	.inst	0x3c206339 ; undefined
   8b983:	33315a5f 	.inst	0x33315a5f ; undefined
   8b987:	53746567 	.inst	0x53746567 ; undefined
   8b98b:	65747379 	fnmls	z25.h, p4/m, z27.h, z20.h
   8b98f:	6e6f466d 	ushl	v13.8h, v19.8h, v15.8h
   8b993:	3a3e7674 	.inst	0x3a3e7674 ; undefined
   8b997:	3030300a 	adr	x10, ebf98 <__bss_end+0x5b560>
   8b99b:	30303030 	adr	x16, ebfa0 <__bss_end+0x5b568>
   8b99f:	30303030 	adr	x16, ebfa4 <__bss_end+0x5b56c>
   8b9a3:	64373338 	.inst	0x64373338 ; undefined
   8b9a7:	5f3c2030 	.inst	0x5f3c2030 ; undefined
   8b9ab:	5f31345a 	.inst	0x5f31345a ; undefined
   8b9af:	6174735f 	.inst	0x6174735f ; undefined
   8b9b3:	5f636974 	.inst	0x5f636974 ; undefined
   8b9b7:	74696e69 	.inst	0x74696e69 ; undefined
   8b9bb:	696c6169 	ldpsw	x9, x24, [x11, #-160]
   8b9bf:	6974617a 	ldpsw	x26, x24, [x11, #-96]
   8b9c3:	615f6e6f 	.inst	0x615f6e6f ; undefined
   8b9c7:	645f646e 	fcmla	z14.h, p1/m, z3.h, z31.h, #270
   8b9cb:	72747365 	.inst	0x72747365 ; undefined
   8b9cf:	69746375 	ldpsw	x21, x24, [x27, #-96]
   8b9d3:	305f6e6f 	adr	x15, 14a7a0 <__bss_end+0xb9d68>
   8b9d7:	3a3e6969 	.inst	0x3a3e6969 ; undefined
   8b9db:	3030300a 	adr	x10, ebfdc <__bss_end+0x5b5a4>
   8b9df:	30303030 	adr	x16, ebfe4 <__bss_end+0x5b5ac>
   8b9e3:	30303030 	adr	x16, ebfe8 <__bss_end+0x5b5b0>
   8b9e7:	31383338 	adds	w24, w25, #0xe0c
   8b9eb:	5f3c2034 	.inst	0x5f3c2034 ; undefined
   8b9ef:	424f4c47 	.inst	0x424f4c47 ; undefined
   8b9f3:	5f5f4c41 	.inst	0x5f5f4c41 ; undefined
   8b9f7:	5f627573 	sqshl	d19, d11, #34
   8b9fb:	5a5f5f49 	.inst	0x5a5f5f49 ; undefined
   8b9ff:	65733331 	fmls	z17.h, p4/m, z25.h, z19.h
   8ba03:	73795374 	.inst	0x73795374 ; undefined
   8ba07:	466d6574 	.inst	0x466d6574 ; undefined
   8ba0b:	38746e6f 	.inst	0x38746e6f ; undefined
   8ba0f:	32465350 	.inst	0x32465350 ; undefined
   8ba13:	746e6f46 	.inst	0x746e6f46 ; undefined
   8ba17:	300a3a3e 	adr	x30, a015c <__bss_end+0xf724>
   8ba1b:	30303030 	adr	x16, ec020 <__bss_end+0x5b5e8>
   8ba1f:	30303030 	adr	x16, ec024 <__bss_end+0x5b5ec>
   8ba23:	33383030 	.inst	0x33383030 ; undefined
   8ba27:	20303338 	.inst	0x20303338 ; undefined
   8ba2b:	4c5a5f3c 	.inst	0x4c5a5f3c ; undefined
   8ba2f:	735f3731 	.inst	0x735f3731 ; undefined
   8ba33:	65747379 	fnmls	z25.h, p4/m, z27.h, z20.h
   8ba37:	6e6f466d 	ushl	v13.8h, v19.8h, v15.8h
   8ba3b:	66754274 	.inst	0x66754274 ; undefined
   8ba3f:	3e726566 	.inst	0x3e726566 ; undefined
   8ba43:	30300a3a 	adr	x26, ebb88 <__bss_end+0x5b150>
   8ba47:	30303030 	adr	x16, ec04c <__bss_end+0x5b614>
   8ba4b:	30303030 	adr	x16, ec050 <__bss_end+0x5b618>
   8ba4f:	63353830 	.inst	0x63353830 ; undefined
   8ba53:	3c203061 	.inst	0x3c203061 ; undefined
   8ba57:	314c5a5f 	cmn	w18, #0x316, lsl #12
   8ba5b:	79735f37 	ldrh	w23, [x25, #6574]
   8ba5f:	6d657473 	ldp	d19, d29, [x3, #-432]
   8ba63:	746e6f46 	.inst	0x746e6f46 ; undefined
   8ba67:	66667542 	.inst	0x66667542 ; undefined
   8ba6b:	3a3e7265 	.inst	0x3a3e7265 ; undefined
   8ba6f:	3030300a 	adr	x10, ec070 <__bss_end+0x5b638>
   8ba73:	30303030 	adr	x16, ec078 <__bss_end+0x5b640>
   8ba77:	30303030 	adr	x16, ec07c <__bss_end+0x5b644>
   8ba7b:	36313838 	tbz	w24, #6, 8e17f <_ZL4mbox+0xfff>
   8ba7f:	5f3c2030 	.inst	0x5f3c2030 ; undefined
   8ba83:	37314c5a 	tbnz	w26, #6, 8e40b <_ZL11_systemFont+0x27b>
   8ba87:	7379735f 	.inst	0x7379735f ; undefined
   8ba8b:	466d6574 	.inst	0x466d6574 ; undefined
   8ba8f:	42746e6f 	.inst	0x42746e6f ; undefined
   8ba93:	65666675 	fnmls	z21.h, p1/m, z19.h, z6.h
   8ba97:	0a3a3e72 	bic	w18, w19, w26, lsl #15
   8ba9b:	30303030 	adr	x16, ec0a0 <__bss_end+0x5b668>
   8ba9f:	30303030 	adr	x16, ec0a4 <__bss_end+0x5b66c>
   8baa3:	38303030 	ldsetb	w16, w16, [x1]
   8baa7:	30363561 	adr	x1, f8154 <__bss_end+0x6771c>
   8baab:	692e3c20 	stgp	x0, x15, [x1, #-576]
   8baaf:	5f74696e 	.inst	0x5f74696e ; undefined
   8bab3:	61727261 	.inst	0x61727261 ; undefined
   8bab7:	0a3a3e79 	bic	w25, w19, w26, lsl #15
   8babb:	30303030 	adr	x16, ec0c0 <__bss_end+0x5b688>
   8babf:	30303030 	adr	x16, ec0c4 <__bss_end+0x5b68c>
   8bac3:	38303030 	ldsetb	w16, w16, [x1]
   8bac7:	30613561 	adr	x1, 14e174 <__bss_end+0xbd73c>
   8bacb:	5a5f3c20 	.inst	0x5a5f3c20 ; undefined
   8bacf:	5f38314c 	.inst	0x5f38314c ; undefined
   8bad3:	74737973 	.inst	0x74737973 ; undefined
   8bad7:	72466d65 	.inst	0x72466d65 ; undefined
   8badb:	62656d61 	.inst	0x62656d61 ; undefined
   8badf:	65666675 	fnmls	z21.h, p1/m, z19.h, z6.h
   8bae3:	0a3a3e72 	bic	w18, w19, w26, lsl #15
   8bae7:	30303030 	adr	x16, ec0ec <__bss_end+0x5b6b4>
   8baeb:	30303030 	adr	x16, ec0f0 <__bss_end+0x5b6b8>
   8baef:	38303030 	ldsetb	w16, w16, [x1]
   8baf3:	30623561 	adr	x1, 1501a0 <__bss_end+0xbf768>
   8baf7:	5a5f3c20 	.inst	0x5a5f3c20 ; undefined
   8bafb:	5f31314c 	.inst	0x5f31314c ; undefined
   8baff:	74737973 	.inst	0x74737973 ; undefined
   8bb03:	6f466d65 	.inst	0x6f466d65 ; undefined
   8bb07:	3a3e746e 	.inst	0x3a3e746e ; undefined
   8bb0b:	3030300a 	adr	x10, ec10c <__bss_end+0x5b6d4>
   8bb0f:	30303030 	adr	x16, ec114 <__bss_end+0x5b6dc>
   8bb13:	30303030 	adr	x16, ec118 <__bss_end+0x5b6e0>
   8bb17:	63396138 	.inst	0x63396138 ; undefined
   8bb1b:	5f3c2030 	.inst	0x5f3c2030 ; undefined
   8bb1f:	6d344c5a 	stp	d26, d19, [x2, #-192]
   8bb23:	3e786f62 	.inst	0x3e786f62 ; undefined
   8bb27:	30300a3a 	adr	x26, ebc6c <__bss_end+0x5b234>
   8bb2b:	30303030 	adr	x16, ec130 <__bss_end+0x5b6f8>
   8bb2f:	30303030 	adr	x16, ec134 <__bss_end+0x5b6fc>
   8bb33:	39623830 	ldrb	w16, [x1, #2190]
   8bb37:	3c203064 	.inst	0x3c203064 ; undefined
   8bb3b:	314c5a5f 	cmn	w18, #0x316, lsl #12
   8bb3f:	79735f38 	ldrh	w24, [x25, #6574]
   8bb43:	6d657473 	ldp	d19, d29, [x3, #-432]
   8bb47:	6d617246 	ldp	d6, d28, [x18, #-496]
   8bb4b:	66756265 	.inst	0x66756265 ; undefined
   8bb4f:	3e726566 	.inst	0x3e726566 ; undefined
   8bb53:	30300a3a 	adr	x26, ebc98 <__bss_end+0x5b260>
   8bb57:	30303030 	adr	x16, ec15c <__bss_end+0x5b724>
   8bb5b:	30303030 	adr	x16, ec160 <__bss_end+0x5b728>
   8bb5f:	39623830 	ldrb	w16, [x1, #2190]
   8bb63:	3c203065 	.inst	0x3c203065 ; undefined
   8bb67:	344c5a5f 	cbz	wzr, 1246af <__bss_end+0x93c77>
   8bb6b:	786f626d 	ldumaxlh	w15, w13, [x19]
   8bb6f:	300a3a3e 	adr	x30, a02b4 <__bss_end+0xf87c>
   8bb73:	30303030 	adr	x16, ec178 <__bss_end+0x5b740>
   8bb77:	30303030 	adr	x16, ec17c <__bss_end+0x5b744>
   8bb7b:	63383030 	.inst	0x63383030 ; undefined
   8bb7f:	20306639 	.inst	0x20306639 ; undefined
   8bb83:	4c5a5f3c 	.inst	0x4c5a5f3c ; undefined
   8bb87:	735f3131 	.inst	0x735f3131 ; undefined
   8bb8b:	65747379 	fnmls	z25.h, p4/m, z27.h, z20.h
   8bb8f:	6e6f466d 	ushl	v13.8h, v19.8h, v15.8h
   8bb93:	0a3a3e74 	bic	w20, w19, w26, lsl #15
   8bb97:	30303030 	adr	x16, ec19c <__bss_end+0x5b764>
   8bb9b:	30303030 	adr	x16, ec1a0 <__bss_end+0x5b768>
   8bb9f:	38303030 	ldsetb	w16, w16, [x1]
   8bba3:	38666463 	.inst	0x38666463 ; undefined
   8bba7:	5a5f3c20 	.inst	0x5a5f3c20 ; undefined
   8bbab:	5f31314c 	.inst	0x5f31314c ; undefined
   8bbaf:	74737973 	.inst	0x74737973 ; undefined
   8bbb3:	6e496d65 	.inst	0x6e496d65 ; undefined
   8bbb7:	3a3e6f66 	.inst	0x3a3e6f66 ; undefined
   8bbbb:	3030300a 	adr	x10, ec1bc <__bss_end+0x5b784>
   8bbbf:	30303030 	adr	x16, ec1c4 <__bss_end+0x5b78c>
   8bbc3:	30303030 	adr	x16, ec1c8 <__bss_end+0x5b790>
   8bbc7:	31656338 	adds	w24, w25, #0x958, lsl #12
   8bbcb:	5f3c2038 	.inst	0x5f3c2038 ; undefined
   8bbcf:	38314c5a 	.inst	0x38314c5a ; undefined
   8bbd3:	7379735f 	.inst	0x7379735f ; undefined
   8bbd7:	466d6574 	.inst	0x466d6574 ; undefined
   8bbdb:	656d6172 	fnmls	z18.h, p0/m, z11.h, z13.h
   8bbdf:	66667562 	.inst	0x66667562 ; undefined
   8bbe3:	3a3e7265 	.inst	0x3a3e7265 ; undefined
   8bbe7:	3030300a 	adr	x10, ec1e8 <__bss_end+0x5b7b0>
   8bbeb:	30303030 	adr	x16, ec1f0 <__bss_end+0x5b7b8>
   8bbef:	30303030 	adr	x16, ec1f4 <__bss_end+0x5b7bc>
   8bbf3:	32656338 	.inst	0x32656338 ; undefined
   8bbf7:	5f3c2038 	.inst	0x5f3c2038 ; undefined
   8bbfb:	38314c5a 	.inst	0x38314c5a ; undefined
   8bbff:	7379735f 	.inst	0x7379735f ; undefined
   8bc03:	466d6574 	.inst	0x466d6574 ; undefined
   8bc07:	656d6172 	fnmls	z18.h, p0/m, z11.h, z13.h
   8bc0b:	66667562 	.inst	0x66667562 ; undefined
   8bc0f:	3a3e7265 	.inst	0x3a3e7265 ; undefined
   8bc13:	3030300a 	adr	x10, ec214 <__bss_end+0x5b7dc>
   8bc17:	30303030 	adr	x16, ec21c <__bss_end+0x5b7e4>
   8bc1b:	30303030 	adr	x16, ec220 <__bss_end+0x5b7e8>
   8bc1f:	34656338 	cbz	w24, 156883 <__bss_end+0xc5e4b>
   8bc23:	5f3c2030 	.inst	0x5f3c2030 ; undefined
   8bc27:	6d344c5a 	stp	d26, d19, [x2, #-192]
   8bc2b:	3e786f62 	.inst	0x3e786f62 ; undefined
   8bc2f:	30300a3a 	adr	x26, ebd74 <__bss_end+0x5b33c>
   8bc33:	30303030 	adr	x16, ec238 <__bss_end+0x5b800>
   8bc37:	30303030 	adr	x16, ec23c <__bss_end+0x5b804>
   8bc3b:	65643830 	fmls	z16.h, p6/m, z1.h, z4.h
   8bc3f:	3c203035 	.inst	0x3c203035 ; undefined
   8bc43:	314c5a5f 	cmn	w18, #0x316, lsl #12
   8bc47:	79735f38 	ldrh	w24, [x25, #6574]
   8bc4b:	6d657473 	ldp	d19, d29, [x3, #-432]
   8bc4f:	6d617246 	ldp	d6, d28, [x18, #-496]
   8bc53:	66756265 	.inst	0x66756265 ; undefined
   8bc57:	3e726566 	.inst	0x3e726566 ; undefined
   8bc5b:	30300a3a 	adr	x26, ebda0 <__bss_end+0x5b368>
   8bc5f:	30303030 	adr	x16, ec264 <__bss_end+0x5b82c>
   8bc63:	30303030 	adr	x16, ec268 <__bss_end+0x5b830>
   8bc67:	65643830 	fmls	z16.h, p6/m, z1.h, z4.h
   8bc6b:	3c203036 	.inst	0x3c203036 ; undefined
   8bc6f:	344c5a5f 	cbz	wzr, 1247b7 <__bss_end+0x93d7f>
   8bc73:	786f626d 	ldumaxlh	w15, w13, [x19]
   8bc77:	300a3a3e 	adr	x30, a03bc <__bss_end+0xf984>
   8bc7b:	30303030 	adr	x16, ec280 <__bss_end+0x5b848>
   8bc7f:	30303030 	adr	x16, ec284 <__bss_end+0x5b84c>
   8bc83:	65383030 	.inst	0x65383030 ; undefined
   8bc87:	20303765 	.inst	0x20303765 ; undefined
   8bc8b:	4c5a5f3c 	.inst	0x4c5a5f3c ; undefined
   8bc8f:	735f3831 	.inst	0x735f3831 ; undefined
   8bc93:	65747379 	fnmls	z25.h, p4/m, z27.h, z20.h
   8bc97:	6172466d 	.inst	0x6172466d ; undefined
   8bc9b:	7562656d 	.inst	0x7562656d ; undefined
   8bc9f:	72656666 	.inst	0x72656666 ; undefined
   8bca3:	300a3a3e 	adr	x30, a03e8 <__bss_end+0xf9b0>
   8bca7:	30303030 	adr	x16, ec2ac <__bss_end+0x5b874>
   8bcab:	30303030 	adr	x16, ec2b0 <__bss_end+0x5b878>
   8bcaf:	65383030 	.inst	0x65383030 ; undefined
   8bcb3:	20303865 	.inst	0x20303865 ; undefined
   8bcb7:	4c5a5f3c 	.inst	0x4c5a5f3c ; undefined
   8bcbb:	735f3831 	.inst	0x735f3831 ; undefined
   8bcbf:	65747379 	fnmls	z25.h, p4/m, z27.h, z20.h
   8bcc3:	6172466d 	.inst	0x6172466d ; undefined
   8bcc7:	7562656d 	.inst	0x7562656d ; undefined
   8bccb:	72656666 	.inst	0x72656666 ; undefined
   8bccf:	300a3a3e 	adr	x30, a0414 <__bss_end+0xf9dc>
   8bcd3:	30303030 	adr	x16, ec2d8 <__bss_end+0x5b8a0>
   8bcd7:	30303030 	adr	x16, ec2dc <__bss_end+0x5b8a4>
   8bcdb:	65383030 	.inst	0x65383030 ; undefined
   8bcdf:	20303965 	.inst	0x20303965 ; undefined
   8bce3:	4c5a5f3c 	.inst	0x4c5a5f3c ; undefined
   8bce7:	735f3131 	.inst	0x735f3131 ; undefined
   8bceb:	65747379 	fnmls	z25.h, p4/m, z27.h, z20.h
   8bcef:	6e6f466d 	ushl	v13.8h, v19.8h, v15.8h
   8bcf3:	0a3a3e74 	bic	w20, w19, w26, lsl #15

Disassembly of section .init_array:

000000000008bcf8 <.init_array>:
   8bcf8:	000806cc 	.inst	0x000806cc ; undefined
   8bcfc:	00000000 	udf	#0
   8bd00:	000812bc 	.inst	0x000812bc ; undefined
   8bd04:	00000000 	udf	#0
   8bd08:	00082164 	.inst	0x00082164 ; undefined
   8bd0c:	00000000 	udf	#0
   8bd10:	00082500 	.inst	0x00082500 ; undefined
   8bd14:	00000000 	udf	#0
   8bd18:	0008329c 	.inst	0x0008329c ; undefined
   8bd1c:	00000000 	udf	#0
   8bd20:	00083628 	.inst	0x00083628 ; undefined
   8bd24:	00000000 	udf	#0
   8bd28:	00083738 	.inst	0x00083738 ; undefined
   8bd2c:	00000000 	udf	#0
   8bd30:	00083818 	.inst	0x00083818 ; undefined
   8bd34:	00000000 	udf	#0

Disassembly of section .bss:

000000000008bd40 <_ZL18_systemFramebuffer>:
	...

000000000008bd50 <_ZL11_systemFont>:
	...

000000000008c160 <_ZL4mbox>:
	...

000000000008d170 <_ZL18_systemFramebuffer>:
	...

000000000008d180 <_ZL4mbox>:
	...

000000000008e190 <_ZL11_systemFont>:
	...

000000000008e598 <_ZL11_systemInfo>:
	...

000000000008e5b8 <_ZL18_systemFramebuffer>:
	...

000000000008e5c8 <_ZL18_systemFramebuffer>:
	...

000000000008e5e0 <_ZL4mbox>:
	...

000000000008f5f0 <_ZL18_systemFramebuffer>:
	...

000000000008f600 <_ZL4mbox>:
	...

0000000000090610 <_ZL18_systemFramebuffer>:
	...

0000000000090620 <_ZL18_systemFramebuffer>:
	...

0000000000090630 <_ZL11_systemFont>:
	...
